; VS. Battle City — Full ROM Listing
; Generated by gen_full_listing.py

; ---------------------------------------------------------------------------
; Range $8000–$801A (ptr16) LevelCodePtrs
; ---------------------------------------------------------------------------

LevelCodePtrs:
  $8000  4D 87     .word $874D -> Level0Init
  $8002  6E 8A     .word $8A6E -> Level1Init
  $8004  6A 89     .word $896A -> Level2Init
  $8006  E8 91     .word $91E8 -> Level3Init
  $8008  48 8B     .word $8B48 -> Level4Init
  $800A  09 D3     .word $D309
  $800C  84 D1     .word $D184
  $800E  09 D3     .word $D309
  $8010  9F D1     .word $D19F
  $8012  32 BB     .word $BB32 -> Level9Init
  $8014  65 BE     .word $BE65 -> Level10Init
  $8016  BC 90     .word $90BC -> Level11Init
  $8018  E8 91     .word $91E8 -> Level3Init
; ---------------------------------------------------------------------------
; Range $801A–$8034 (ptr16) LevelFormationPtrs
; ---------------------------------------------------------------------------

LevelFormationPtrs:
  $801A  34 80     .word $8034 -> Stage0FormationData
  $801C  78 80     .word $8078 -> Stage1FormationTable
  $801E  6C 80     .word $806C -> Stage2FormationTable
  $8020  3C 80     .word $803C -> Stage3FormationTable
  $8022  4C 80     .word $804C -> Stage4FormationTable
  $8024  5E 80     .word $805E -> Stage5FormationTable
  $8026  84 80     .word $8084 -> Stage6FormationTable
  $8028  66 80     .word $8066 -> Stage7FormationTable
  $802A  7C 80     .word $807C -> Stage8FormationTable
  $802C  8A 80     .word $808A -> Stage9FormationTable
  $802E  96 80     .word $8096 -> Stage10FormationTable
  $8030  A0 80     .word $80A0 -> Stage11FormationTable
  $8032  A4 80     .word $80A4 -> Stage12FormationTable
; ---------------------------------------------------------------------------
; Range $8034–$80A4 (ptr16) InnerFormationTables
; ---------------------------------------------------------------------------

Stage0FormationData:
  $8034  22 8B     .word $8B22 -> Stage0InitPhase0
  $8036  2B 89     .word $892B -> Stage0InitPhase1
  $8038  30 89     .word $8930 -> Stage0InitPhase2
  $803A  64 8A     .word $8A64 -> Stage0InitPhase3

Stage3FormationTable:
  $803C  D9 90     .word $90D9
  $803E  55 97     .word $9755
  $8040  DF 90     .word $90DF
  $8042  00 91     .word $9100
  $8044  39 91     .word $9139
  $8046  34 91     .word $9134
  $8048  41 91     .word $9141
  $804A  5D 91     .word $915D

Stage4FormationTable:
  $804C  42 8E     .word $8E42
  $804E  47 8E     .word $8E47
  $8050  69 8E     .word $8E69
  $8052  4F 8E     .word $8E4F
  $8054  9F 8E     .word $8E9F
  $8056  D5 8E     .word $8ED5
  $8058  5D 8F     .word $8F5D
  $805A  7F 8F     .word $8F7F
  $805C  64 8A     .word $8A64 -> Stage0InitPhase3

Stage5FormationTable:
  $805E  BD D0     .word $D0BD
  $8060  44 D3     .word $D344
  $8062  3A D1     .word $D13A
  $8064  07 D1     .word $D107

Stage7FormationTable:
  $8066  BD D0     .word $D0BD
  $8068  96 D3     .word $D396
  $806A  F9 D1     .word $D1F9

Stage2FormationTable:
  $806C  B6 89     .word $89B6
  $806E  C9 89     .word $89C9
  $8070  D1 89     .word $89D1
  $8072  F6 89     .word $89F6
  $8074  29 8A     .word $8A29
  $8076  4C 8A     .word $8A4C

Stage1FormationTable:
  $8078  22 8B     .word $8B22 -> Stage0InitPhase0
  $807A  FF 8A     .word $8AFF -> Stage1FormationPhase1

Stage8FormationTable:
  $807C  BD D0     .word $D0BD
  $807E  F4 D1     .word $D1F4
  $8080  AC D1     .word $D1AC
  $8082  BF D1     .word $D1BF

Stage6FormationTable:
  $8084  BD D0     .word $D0BD
  $8086  43 D1     .word $D143
  $8088  07 D1     .word $D107

Stage9FormationTable:
  $808A  DF 90     .word $90DF
  $808C  96 BA     .word $BA96 -> Stage9_10FormationPhase1
  $808E  A2 BA     .word $BAA2 -> Stage9FormationPhase2
  $8090  C9 BA     .word $BAC9 -> Stage9_10FormationPhase3
  $8092  1A BB     .word $BB1A -> Stage9FormationPhase4
  $8094  64 8A     .word $8A64 -> Stage0InitPhase3

Stage10FormationTable:
  $8096  96 BA     .word $BA96 -> Stage9_10FormationPhase1
  $8098  33 BE     .word $BE33 -> Stage10FormationPhase2
  $809A  C9 BA     .word $BAC9 -> Stage9_10FormationPhase3
  $809C  38 BE     .word $BE38 -> Stage10FormationPhase4
  $809E  64 8A     .word $8A64 -> Stage0InitPhase3

Stage11FormationTable:
  $80A0  A4 90     .word $90A4 -> Stage11FormationPhase0
  $80A2  64 8A     .word $8A64 -> Stage0InitPhase3
; ---------------------------------------------------------------------------
; Range $80A4–$80B6 (u8) InnerTablesData
; ---------------------------------------------------------------------------

Stage12FormationTable:
  $80A4  C8        .byte $C8  ; 200
  $80A5  90        .byte $90  ; 144
  $80A6  D9        .byte $D9  ; 217
  $80A7  90        .byte $90  ; 144
  $80A8  55        .byte $55  ; 85
  $80A9  97        .byte $97  ; 151
  $80AA  DF        .byte $DF  ; 223
  $80AB  90        .byte $90  ; 144
  $80AC  00        .byte $00  ; 0
  $80AD  91        .byte $91  ; 145
  $80AE  39        .byte $39  ; 57
  $80AF  91        .byte $91  ; 145
  $80B0  34        .byte $34  ; 52
  $80B1  91        .byte $91  ; 145
  $80B2  41        .byte $41  ; 65
  $80B3  91        .byte $91  ; 145
  $80B4  5D        .byte $5D  ; 93
  $80B5  91        .byte $91  ; 145
; ---------------------------------------------------------------------------
; Range $80B6–$80C3 (u8) StageFlagsTable
; ---------------------------------------------------------------------------

StageFlagsTable:
  $80B6  04        .byte $04  ; 4
  $80B7  04        .byte $04  ; 4
  $80B8  04        .byte $04  ; 4
  $80B9  00        .byte $00  ; 0
  $80BA  04        .byte $04  ; 4
  $80BB  04        .byte $04  ; 4
  $80BC  04        .byte $04  ; 4
  $80BD  04        .byte $04  ; 4
  $80BE  04        .byte $04  ; 4
  $80BF  00        .byte $00  ; 0
  $80C0  00        .byte $00  ; 0
  $80C1  04        .byte $04  ; 4
  $80C2  00        .byte $00  ; 0
; ---------------------------------------------------------------------------
; Range $80C3–$82F4 (hex8)
; ---------------------------------------------------------------------------
  $80C3  00        .byte $00
  $80C4  2E        .byte $2E
  $80C5  00        .byte $00
  $80C6  00        .byte $00
  $80C7  24        .byte $24
  $80C8  00        .byte $00
  $80C9  00        .byte $00
  $80CA  28        .byte $28
  $80CB  00        .byte $00
  $80CC  00        .byte $00
  $80CD  26        .byte $26
  $80CE  00        .byte $00
  $80CF  00        .byte $00
  $80D0  24        .byte $24
  $80D1  00        .byte $00
  $80D2  00        .byte $00
  $80D3  24        .byte $24
  $80D4  00        .byte $00
  $80D5  00        .byte $00
  $80D6  28        .byte $28
  $80D7  00        .byte $00
  $80D8  01        .byte $01
  $80D9  12        .byte $12
  $80DA  00        .byte $00
  $80DB  01        .byte $01
  $80DC  0C        .byte $0C
  $80DD  00        .byte $00
  $80DE  01        .byte $01
  $80DF  14        .byte $14
  $80E0  00        .byte $00
  $80E1  01        .byte $01
  $80E2  14        .byte $14
  $80E3  00        .byte $00
  $80E4  01        .byte $01
  $80E5  13        .byte $13
  $80E6  00        .byte $00
  $80E7  01        .byte $01
  $80E8  10        .byte $10
  $80E9  00        .byte $00
  $80EA  01        .byte $01
  $80EB  13        .byte $13
  $80EC  00        .byte $00
  $80ED  F1        .byte $F1
  $80EE  07        .byte $07
  $80EF  80        .byte $80
  $80F0  81        .byte $81
  $80F1  03        .byte $03
  $80F2  00        .byte $00
  $80F3  03        .byte $03
  $80F4  00        .byte $00
  $80F5  02        .byte $02
  $80F6  00        .byte $00
  $80F7  02        .byte $02
  $80F8  00        .byte $00
  $80F9  01        .byte $01
  $80FA  32        .byte $32
  $80FB  01        .byte $01
  $80FC  32        .byte $32
  $80FD  01        .byte $01
  $80FE  32        .byte $32
  $80FF  01        .byte $01
  $8100  32        .byte $32
  $8101  01        .byte $01
  $8102  00        .byte $00
  $8103  01        .byte $01
  $8104  00        .byte $00
  $8105  00        .byte $00
  $8106  32        .byte $32
  $8107  02        .byte $02
  $8108  00        .byte $00
  $8109  02        .byte $02
  $810A  00        .byte $00
  $810B  01        .byte $01
  $810C  32        .byte $32
  $810D  01        .byte $01
  $810E  32        .byte $32
  $810F  01        .byte $01
  $8110  00        .byte $00
  $8111  01        .byte $01
  $8112  00        .byte $00
  $8113  01        .byte $01
  $8114  00        .byte $00
  $8115  01        .byte $01
  $8116  00        .byte $00
  $8117  00        .byte $00
  $8118  32        .byte $32
  $8119  00        .byte $00
  $811A  32        .byte $32
  $811B  00        .byte $00
  $811C  19        .byte $19
  $811D  09        .byte $09
  $811E  0B        .byte $0B
  $811F  0D        .byte $0D
  $8120  0F        .byte $0F
  $8121  0E        .byte $0E
  $8122  1A        .byte $1A
  $8123  26        .byte $26
  $8124  32        .byte $32
  $8125  38        .byte $38
  $8126  48        .byte $48
  $8127  58        .byte $58
  $8128  68        .byte $68

Level3SoundInitTable:
  $8129  20        .byte $20
  $812A  D4        .byte $D4
  $812B  02        .byte $02
  $812C  9B        .byte $9B
  $812D  00        .byte $00
  $812E  00        .byte $00
  $812F  18        .byte $18
  $8130  3F        .byte $3F
  $8131  28        .byte $28
  $8132  20        .byte $20
  $8133  28        .byte $28
  $8134  38        .byte $38
  $8135  0C        .byte $0C
  $8136  00        .byte $00
  $8137  3C        .byte $3C
  $8138  1C        .byte $1C
  $8139  C0        .byte $C0
  $813A  7F        .byte $7F
  $813B  06        .byte $06
  $813C  02        .byte $02
  $813D  0A        .byte $0A
  $813E  0B        .byte $0B
  $813F  01        .byte $01
  $8140  B0        .byte $B0
  $8141  20        .byte $20
  $8142  40        .byte $40
  $8143  7F        .byte $7F
  $8144  03        .byte $03
  $8145  03        .byte $03
  $8146  01        .byte $01
  $8147  06        .byte $06
  $8148  04        .byte $04
  $8149  40        .byte $40
  $814A  58        .byte $58
  $814B  48        .byte $48
  $814C  48        .byte $48
  $814D  73        .byte $73
  $814E  43        .byte $43
  $814F  CF        .byte $CF
  $8150  22        .byte $22
  $8151  23        .byte $23
  $8152  24        .byte $24

Level0DispatchTable:
  $8153  85        .byte $85 ; Level0DispatchTable: 7 16-bit ptrs (indexed by D1-1)*2: D1=1→$8885 D1=2→$886A D1=3→$884F D1=4→$D1BF D1=5→$8919 D1=6→$202A D1=7→$2822; indirect dispatch via JMP($0000)
  $8154  88        .byte $88
  $8155  6A        .byte $6A
  $8156  88        .byte $88
  $8157  4F        .byte $4F
  $8158  88        .byte $88
  $8159  BF        .byte $BF
  $815A  D1        .byte $D1
  $815B  19        .byte $19
  $815C  89        .byte $89
  $815D  2A        .byte $2A
  $815E  20        .byte $20
  $815F  22        .byte $22
  $8160  28        .byte $28
  $8161  22        .byte $22
  $8162  21        .byte $21
  $8163  21        .byte $21
  $8164  66        .byte $66
  $8165  86        .byte $86
  $8166  66        .byte $66
  $8167  86        .byte $86
  $8168  66        .byte $66
  $8169  A6        .byte $A6
  $816A  26        .byte $26
  $816B  00        .byte $00
  $816C  00        .byte $00
  $816D  00        .byte $00
  $816E  00        .byte $00
  $816F  01        .byte $01
  $8170  00        .byte $00
  $8171  00        .byte $00
  $8172  00        .byte $00
  $8173  00        .byte $00
  $8174  0A        .byte $0A
  $8175  20        .byte $20
  $8176  34        .byte $34
  $8177  00        .byte $00
  $8178  43        .byte $43
  $8179  44        .byte $44
  $817A  0B        .byte $0B
  $817B  55        .byte $55
  $817C  49        .byte $49
  $817D  C7        .byte $C7
  $817E  C7        .byte $C7
  $817F  55        .byte $55
  $8180  85        .byte $85
  $8181  C5        .byte $C5
  $8182  06        .byte $06
  $8183  56        .byte $56
  $8184  FC        .byte $FC
  $8185  56        .byte $56
  $8186  56        .byte $56
  $8187  56        .byte $56
  $8188  1D        .byte $1D
  $8189  1B        .byte $1B
  $818A  0A        .byte $0A
  $818B  0C        .byte $0C
  $818C  14        .byte $14
  $818D  2C        .byte $2C
  $818E  9C        .byte $9C
  $818F  A1        .byte $A1
  $8190  A6        .byte $A6
  $8191  AB        .byte $AB
  $8192  B0        .byte $B0
  $8193  B5        .byte $B5
  $8194  BA        .byte $BA
  $8195  81        .byte $81
  $8196  81        .byte $81
  $8197  81        .byte $81
  $8198  81        .byte $81
  $8199  81        .byte $81
  $819A  81        .byte $81
  $819B  81        .byte $81
  $819C  22        .byte $22
  $819D  5C        .byte $5C
  $819E  5E        .byte $5E
  $819F  5D        .byte $5D
  $81A0  5F        .byte $5F
  $81A1  22        .byte $22
  $81A2  60        .byte $60
  $81A3  62        .byte $62
  $81A4  61        .byte $61
  $81A5  63        .byte $63
  $81A6  22        .byte $22
  $81A7  64        .byte $64
  $81A8  66        .byte $66
  $81A9  65        .byte $65
  $81AA  67        .byte $67
  $81AB  22        .byte $22
  $81AC  68        .byte $68
  $81AD  6A        .byte $6A
  $81AE  69        .byte $69
  $81AF  6B        .byte $6B
  $81B0  22        .byte $22
  $81B1  6C        .byte $6C
  $81B2  6E        .byte $6E
  $81B3  6D        .byte $6D
  $81B4  6F        .byte $6F
  $81B5  22        .byte $22
  $81B6  70        .byte $70
  $81B7  72        .byte $72
  $81B8  71        .byte $71
  $81B9  6F        .byte $6F
  $81BA  22        .byte $22
  $81BB  73        .byte $73
  $81BC  75        .byte $75
  $81BD  74        .byte $74
  $81BE  76        .byte $76
  $81BF  C7        .byte $C7
  $81C0  D1        .byte $D1
  $81C1  DB        .byte $DB
  $81C2  E5        .byte $E5
  $81C3  81        .byte $81
  $81C4  81        .byte $81
  $81C5  81        .byte $81
  $81C6  81        .byte $81
  $81C7  2A        .byte $2A
  $81C8  AC        .byte $AC
  $81C9  2A        .byte $2A
  $81CA  CC        .byte $CC
  $81CB  2A        .byte $2A
  $81CC  EC        .byte $EC
  $81CD  2B        .byte $2B
  $81CE  0C        .byte $0C
  $81CF  2B        .byte $2B
  $81D0  2C        .byte $2C
  $81D1  20        .byte $20
  $81D2  CC        .byte $CC
  $81D3  20        .byte $20
  $81D4  EC        .byte $EC
  $81D5  21        .byte $21
  $81D6  0C        .byte $0C
  $81D7  21        .byte $21
  $81D8  2C        .byte $2C
  $81D9  21        .byte $21
  $81DA  4C        .byte $4C
  $81DB  22        .byte $22
  $81DC  AC        .byte $AC
  $81DD  22        .byte $22
  $81DE  CC        .byte $CC
  $81DF  22        .byte $22
  $81E0  EC        .byte $EC
  $81E1  23        .byte $23
  $81E2  0C        .byte $0C
  $81E3  23        .byte $23
  $81E4  2C        .byte $2C
  $81E5  28        .byte $28
  $81E6  CC        .byte $CC
  $81E7  28        .byte $28
  $81E8  EC        .byte $EC
  $81E9  29        .byte $29
  $81EA  0C        .byte $0C
  $81EB  29        .byte $29
  $81EC  2C        .byte $2C
  $81ED  29        .byte $29
  $81EE  4C        .byte $4C
  $81EF  F2        .byte $F2
  $81F0  B2        .byte $B2
  $81F1  10        .byte $10
  $81F2  30        .byte $30
  $81F3  04        .byte $04
  $81F4  0C        .byte $0C
  $81F5  45        .byte $45
  $81F6  CF        .byte $CF
  $81F7  23        .byte $23
  $81F8  E8        .byte $E8
  $81F9  00        .byte $00
  $81FA  FF        .byte $FF
  $81FB  23        .byte $23
  $81FC  F0        .byte $F0
  $81FD  00        .byte $00
  $81FE  AF        .byte $AF
  $81FF  00        .byte $00
  $8200  21        .byte $21
  $8201  6B        .byte $6B
  $8202  21        .byte $21
  $8203  8B        .byte $8B
  $8204  21        .byte $21
  $8205  AB        .byte $AB
  $8206  21        .byte $21
  $8207  CB        .byte $CB
  $8208  21        .byte $21
  $8209  EB        .byte $EB
  $820A  82        .byte $82
  $820B  86        .byte $86
  $820C  8A        .byte $8A
  $820D  8E        .byte $8E
  $820E  92        .byte $92
  $820F  96        .byte $96
  $8210  9A        .byte $9A
  $8211  9E        .byte $9E
  $8212  22        .byte $22
  $8213  22        .byte $22
  $8214  22        .byte $22
  $8215  22        .byte $22
  $8216  22        .byte $22
  $8217  22        .byte $22
  $8218  22        .byte $22
  $8219  22        .byte $22
  $821A  2A        .byte $2A
  $821B  43        .byte $43
  $821C  5C        .byte $5C
  $821D  75        .byte $75
  $821E  8E        .byte $8E
  $821F  A7        .byte $A7
  $8220  C0        .byte $C0
  $8221  D9        .byte $D9
  $8222  82        .byte $82
  $8223  82        .byte $82
  $8224  82        .byte $82
  $8225  82        .byte $82
  $8226  82        .byte $82
  $8227  82        .byte $82
  $8228  82        .byte $82
  $8229  82        .byte $82
  $822A  64        .byte $64
  $822B  B2        .byte $B2
  $822C  B4        .byte $B4
  $822D  FC        .byte $FC
  $822E  FC        .byte $FC
  $822F  B3        .byte $B3
  $8230  B5        .byte $B5
  $8231  FC        .byte $FC
  $8232  FC        .byte $FC
  $8233  FC        .byte $FC
  $8234  DE        .byte $DE
  $8235  E2        .byte $E2
  $8236  FC        .byte $FC
  $8237  FC        .byte $FC
  $8238  DF        .byte $DF
  $8239  FC        .byte $FC
  $823A  E2        .byte $E2
  $823B  B2        .byte $B2
  $823C  B4        .byte $B4
  $823D  FC        .byte $FC
  $823E  FC        .byte $FC
  $823F  B3        .byte $B3
  $8240  B5        .byte $B5
  $8241  FC        .byte $FC
  $8242  FC        .byte $FC
  $8243  64        .byte $64
  $8244  B6        .byte $B6
  $8245  B8        .byte $B8
  $8246  FC        .byte $FC
  $8247  FC        .byte $FC
  $8248  B7        .byte $B7
  $8249  B9        .byte $B9
  $824A  FC        .byte $FC
  $824B  FC        .byte $FC
  $824C  FC        .byte $FC
  $824D  DE        .byte $DE
  $824E  E2        .byte $E2
  $824F  FC        .byte $FC
  $8250  FC        .byte $FC
  $8251  DF        .byte $DF
  $8252  FC        .byte $FC
  $8253  E2        .byte $E2
  $8254  B6        .byte $B6
  $8255  B8        .byte $B8
  $8256  FC        .byte $FC
  $8257  FC        .byte $FC
  $8258  B7        .byte $B7
  $8259  B9        .byte $B9
  $825A  FC        .byte $FC
  $825B  FC        .byte $FC
  $825C  64        .byte $64
  $825D  BA        .byte $BA
  $825E  BC        .byte $BC
  $825F  FC        .byte $FC
  $8260  FC        .byte $FC
  $8261  BB        .byte $BB
  $8262  BD        .byte $BD
  $8263  FC        .byte $FC
  $8264  FC        .byte $FC
  $8265  FC        .byte $FC
  $8266  DE        .byte $DE
  $8267  E2        .byte $E2
  $8268  FC        .byte $FC
  $8269  FC        .byte $FC
  $826A  DF        .byte $DF
  $826B  FC        .byte $FC
  $826C  E2        .byte $E2
  $826D  BA        .byte $BA
  $826E  BC        .byte $BC
  $826F  FC        .byte $FC
  $8270  FC        .byte $FC
  $8271  BB        .byte $BB
  $8272  BD        .byte $BD
  $8273  FC        .byte $FC
  $8274  FC        .byte $FC
  $8275  64        .byte $64
  $8276  BE        .byte $BE
  $8277  C0        .byte $C0
  $8278  FC        .byte $FC
  $8279  FC        .byte $FC
  $827A  BF        .byte $BF
  $827B  C1        .byte $C1
  $827C  FC        .byte $FC
  $827D  FC        .byte $FC
  $827E  FC        .byte $FC
  $827F  DE        .byte $DE
  $8280  E2        .byte $E2
  $8281  FC        .byte $FC
  $8282  FC        .byte $FC
  $8283  DF        .byte $DF
  $8284  FC        .byte $FC
  $8285  E2        .byte $E2
  $8286  BE        .byte $BE
  $8287  C0        .byte $C0
  $8288  FC        .byte $FC
  $8289  FC        .byte $FC
  $828A  BF        .byte $BF
  $828B  C1        .byte $C1
  $828C  FC        .byte $FC
  $828D  FC        .byte $FC
  $828E  64        .byte $64
  $828F  C2        .byte $C2
  $8290  C4        .byte $C4
  $8291  FC        .byte $FC
  $8292  FC        .byte $FC
  $8293  C3        .byte $C3
  $8294  C5        .byte $C5
  $8295  FC        .byte $FC
  $8296  FC        .byte $FC
  $8297  FC        .byte $FC
  $8298  DE        .byte $DE
  $8299  E2        .byte $E2
  $829A  FC        .byte $FC
  $829B  FC        .byte $FC
  $829C  DF        .byte $DF
  $829D  FC        .byte $FC
  $829E  E2        .byte $E2
  $829F  C2        .byte $C2
  $82A0  C4        .byte $C4
  $82A1  FC        .byte $FC
  $82A2  FC        .byte $FC
  $82A3  C3        .byte $C3
  $82A4  C5        .byte $C5
  $82A5  FC        .byte $FC
  $82A6  FC        .byte $FC
  $82A7  64        .byte $64
  $82A8  C6        .byte $C6
  $82A9  C8        .byte $C8
  $82AA  FC        .byte $FC
  $82AB  FC        .byte $FC
  $82AC  C7        .byte $C7
  $82AD  C5        .byte $C5
  $82AE  FC        .byte $FC
  $82AF  FC        .byte $FC
  $82B0  FC        .byte $FC
  $82B1  DE        .byte $DE
  $82B2  E2        .byte $E2
  $82B3  FC        .byte $FC
  $82B4  FC        .byte $FC
  $82B5  DF        .byte $DF
  $82B6  FC        .byte $FC
  $82B7  E2        .byte $E2
  $82B8  C6        .byte $C6
  $82B9  C8        .byte $C8
  $82BA  FC        .byte $FC
  $82BB  FC        .byte $FC
  $82BC  C7        .byte $C7
  $82BD  C5        .byte $C5
  $82BE  FC        .byte $FC
  $82BF  FC        .byte $FC
  $82C0  64        .byte $64
  $82C1  C9        .byte $C9
  $82C2  CB        .byte $CB
  $82C3  E0        .byte $E0
  $82C4  E1        .byte $E1
  $82C5  CA        .byte $CA
  $82C6  CC        .byte $CC
  $82C7  FC        .byte $FC
  $82C8  FC        .byte $FC
  $82C9  FC        .byte $FC
  $82CA  DE        .byte $DE
  $82CB  FC        .byte $FC
  $82CC  FC        .byte $FC
  $82CD  FC        .byte $FC
  $82CE  DF        .byte $DF
  $82CF  FC        .byte $FC
  $82D0  FC        .byte $FC
  $82D1  C9        .byte $C9
  $82D2  CB        .byte $CB
  $82D3  FC        .byte $FC
  $82D4  FC        .byte $FC
  $82D5  CA        .byte $CA
  $82D6  CC        .byte $CC
  $82D7  FC        .byte $FC
  $82D8  FC        .byte $FC
  $82D9  24        .byte $24
  $82DA  C9        .byte $C9
  $82DB  CB        .byte $CB
  $82DC  E0        .byte $E0
  $82DD  E1        .byte $E1
  $82DE  CA        .byte $CA
  $82DF  CC        .byte $CC
  $82E0  FC        .byte $FC
  $82E1  FC        .byte $FC
  $82E2  69        .byte $69
  $82E3  9F        .byte $9F
  $82E4  00        .byte $00
  $82E5  52        .byte $52
  $82E6  8B        .byte $8B
  $82E7  8B        .byte $8B
  $82E8  8C        .byte $8C
  $82E9  8C        .byte $8C

MusicSlotInitTable:
  $82EA  23        .byte $23
  $82EB  15        .byte $15
  $82EC  04        .byte $04
  $82ED  2C        .byte $2C
  $82EE  FE        .byte $FE
  $82EF  FE        .byte $FE
  $82F0  FE        .byte $FE
  $82F1  00        .byte $00
  $82F2  57        .byte $57
  $82F3  55        .byte $55
; ---------------------------------------------------------------------------
; Range $82F4–$8312 (u8) SpriteTables
; ---------------------------------------------------------------------------

SlotSprPtrLo:
  $82F4  74        .byte $74  ; 116 ; SlotSprPtrLo[6]: {$74
  $82F5  63        .byte $63  ; 99
  $82F6  86        .byte $86  ; 134
  $82F7  53        .byte $53  ; 83
  $82F8  96        .byte $96  ; 150
  $82F9  D0        .byte $D0  ; 208

SlotSprOffset:
  $82FA  4C        .byte $4C  ; 76 ; SlotSprOffset[6]: {$4C
  $82FB  54        .byte $54  ; 84
  $82FC  5C        .byte $5C  ; 92
  $82FD  64        .byte $64  ; 100
  $82FE  6C        .byte $6C  ; 108
  $82FF  78        .byte $78  ; 120

SlotSprPtrHi:
  $8300  90        .byte $90  ; 144 ; SlotSprPtrHi[6]: {$90
  $8301  90        .byte $90  ; 144
  $8302  90        .byte $90  ; 144
  $8303  90        .byte $90  ; 144
  $8304  90        .byte $90  ; 144
  $8305  A2        .byte $A2  ; 162

SlotEntityType:
  $8306  02        .byte $02  ; 2 ; SlotEntityType[6]: {$02
  $8307  02        .byte $02  ; 2
  $8308  02        .byte $02  ; 2
  $8309  02        .byte $02  ; 2
  $830A  02        .byte $02  ; 2
  $830B  00        .byte $00  ; 0

SlotOAMBase:
  $830C  04        .byte $04  ; 4 ; SlotOAMBase[6]: {$04
  $830D  1C        .byte $1C  ; 28
  $830E  34        .byte $34  ; 52
  $830F  4C        .byte $4C  ; 76
  $8310  64        .byte $64  ; 100
  $8311  7C        .byte $7C  ; 124
; ---------------------------------------------------------------------------
; Range $8312–$8316 (u8) WaveControlInit
; ---------------------------------------------------------------------------

WaveCtrlInit:
  $8312  09        .byte $09  ; 9 ; WaveCtrlInit[4]: {$09
  $8313  23        .byte $23  ; 35
  $8314  54        .byte $54  ; 84
  $8315  06        .byte $06  ; 6
; ---------------------------------------------------------------------------
; Range $8316–$8348 (hex8)
; ---------------------------------------------------------------------------
  $8316  09        .byte $09
  $8317  23        .byte $23
  $8318  44        .byte $44
  $8319  06        .byte $06
  $831A  20        .byte $20
  $831B  32        .byte $32
  $831C  3B        .byte $3B
  $831D  83        .byte $83
  $831E  83        .byte $83
  $831F  83        .byte $83
  $8320  10        .byte $10
  $8321  15        .byte $15
  $8322  20        .byte $20
  $8323  25        .byte $25
  $8324  30        .byte $30
  $8325  35        .byte $35
  $8326  40        .byte $40
  $8327  45        .byte $45
  $8328  50        .byte $50
  $8329  55        .byte $55
  $832A  60        .byte $60
  $832B  65        .byte $65
  $832C  70        .byte $70
  $832D  75        .byte $75
  $832E  80        .byte $80
  $832F  85        .byte $85
  $8330  90        .byte $90
  $8331  95        .byte $95
  $8332  10        .byte $10
  $8333  20        .byte $20
  $8334  30        .byte $30
  $8335  40        .byte $40
  $8336  50        .byte $50
  $8337  60        .byte $60
  $8338  70        .byte $70
  $8339  80        .byte $80
  $833A  90        .byte $90
  $833B  10        .byte $10
  $833C  A8        .byte $A8
  $833D  00        .byte $00
  $833E  01        .byte $01
  $833F  38        .byte $38
  $8340  A8        .byte $A8
  $8341  AE        .byte $AE
  $8342  00        .byte $00
  $8343  20        .byte $20
  $8344  A8        .byte $A8
  $8345  AF        .byte $AF
  $8346  00        .byte $00
  $8347  28        .byte $28
; ---------------------------------------------------------------------------
; Range $8348–$8360 (u8) PtrTablesAB
; ---------------------------------------------------------------------------

SlotDataPtrALo:
  $8348  60        .byte $60  ; 96 ; SlotDataPtrALo[6]: {$60
  $8349  66        .byte $66  ; 102
  $834A  6C        .byte $6C  ; 108
  $834B  72        .byte $72  ; 114
  $834C  78        .byte $78  ; 120
  $834D  7E        .byte $7E  ; 126

SlotDataPtrAHi:
  $834E  83        .byte $83  ; 131 ; SlotDataPtrAHi[6]: {all $83} high bytes for set A ptrs -> $8360
  $834F  83        .byte $83  ; 131
  $8350  83        .byte $83  ; 131
  $8351  83        .byte $83  ; 131
  $8352  83        .byte $83  ; 131
  $8353  83        .byte $83  ; 131

SlotDataPtrBLo:
  $8354  84        .byte $84  ; 132 ; SlotDataPtrBLo[6]: {$84
  $8355  8A        .byte $8A  ; 138
  $8356  90        .byte $90  ; 144
  $8357  96        .byte $96  ; 150
  $8358  9C        .byte $9C  ; 156
  $8359  7E        .byte $7E  ; 126

SlotDataPtrBHi:
  $835A  83        .byte $83  ; 131 ; SlotDataPtrBHi[6]: {all $83} high bytes for set B ptrs -> $8384
  $835B  83        .byte $83  ; 131
  $835C  83        .byte $83  ; 131
  $835D  83        .byte $83  ; 131
  $835E  83        .byte $83  ; 131
  $835F  83        .byte $83  ; 131
; ---------------------------------------------------------------------------
; Range $8360–$83A2 (u8) EntitySlotData
; ---------------------------------------------------------------------------

SlotDataBlocksA:
  $8360  00        .byte $00  ; 0 ; SlotDataBlocksA: 6x6-byte entity slot templates (set A
  $8361  00        .byte $00  ; 0
  $8362  05        .byte $05  ; 5
  $8363  00        .byte $00  ; 0
  $8364  00        .byte $00  ; 0
  $8365  00        .byte $00  ; 0
  $8366  00        .byte $00  ; 0
  $8367  00        .byte $00  ; 0
  $8368  03        .byte $03  ; 3
  $8369  00        .byte $00  ; 0
  $836A  00        .byte $00  ; 0
  $836B  00        .byte $00  ; 0
  $836C  00        .byte $00  ; 0
  $836D  00        .byte $00  ; 0
  $836E  02        .byte $02  ; 2
  $836F  00        .byte $00  ; 0
  $8370  00        .byte $00  ; 0
  $8371  00        .byte $00  ; 0
  $8372  00        .byte $00  ; 0
  $8373  00        .byte $00  ; 0
  $8374  01        .byte $01  ; 1
  $8375  00        .byte $00  ; 0
  $8376  00        .byte $00  ; 0
  $8377  00        .byte $00  ; 0
  $8378  00        .byte $00  ; 0
  $8379  00        .byte $00  ; 0
  $837A  00        .byte $00  ; 0
  $837B  05        .byte $05  ; 5
  $837C  00        .byte $00  ; 0
  $837D  00        .byte $00  ; 0
  $837E  00        .byte $00  ; 0
  $837F  00        .byte $00  ; 0
  $8380  00        .byte $00  ; 0
  $8381  00        .byte $00  ; 0
  $8382  00        .byte $00  ; 0
  $8383  00        .byte $00  ; 0

SlotDataBlocksB:
  $8384  00        .byte $00  ; 0 ; SlotDataBlocksB: 6x6-byte entity slot templates (set B
  $8385  01        .byte $01  ; 1
  $8386  00        .byte $00  ; 0
  $8387  00        .byte $00  ; 0
  $8388  00        .byte $00  ; 0
  $8389  00        .byte $00  ; 0
  $838A  00        .byte $00  ; 0
  $838B  00        .byte $00  ; 0
  $838C  06        .byte $06  ; 6
  $838D  00        .byte $00  ; 0
  $838E  00        .byte $00  ; 0
  $838F  00        .byte $00  ; 0
  $8390  00        .byte $00  ; 0
  $8391  00        .byte $00  ; 0
  $8392  04        .byte $04  ; 4
  $8393  00        .byte $00  ; 0
  $8394  00        .byte $00  ; 0
  $8395  00        .byte $00  ; 0
  $8396  00        .byte $00  ; 0
  $8397  00        .byte $00  ; 0
  $8398  02        .byte $02  ; 2
  $8399  00        .byte $00  ; 0
  $839A  00        .byte $00  ; 0
  $839B  00        .byte $00  ; 0
  $839C  00        .byte $00  ; 0
  $839D  00        .byte $00  ; 0
  $839E  01        .byte $01  ; 1
  $839F  00        .byte $00  ; 0
  $83A0  00        .byte $00  ; 0
  $83A1  00        .byte $00  ; 0
; ---------------------------------------------------------------------------
; Range $83A2–$83AD (hex8)
; ---------------------------------------------------------------------------

SpeedDeltaTable:
  $83A2  00        .byte $00
  $83A3  80        .byte $80
  $83A4  40        .byte $40
  $83A5  98        .byte $98
  $83A6  AE        .byte $AE
  $83A7  00        .byte $00
  $83A8  78        .byte $78
  $83A9  98        .byte $98
  $83AA  AF        .byte $AF
  $83AB  00        .byte $00
  $83AC  80        .byte $80
; ---------------------------------------------------------------------------
; Range $83AD–$83B3 (u8) StageNumLUT
; ---------------------------------------------------------------------------

StageNumLUT:
  $83AD  00        .byte $00  ; 0 ; StageNumLUT[6]: {$00
  $83AE  07        .byte $07  ; 7
  $83AF  0B        .byte $0B  ; 11
  $83B0  02        .byte $02  ; 2
  $83B1  05        .byte $05  ; 5
  $83B2  01        .byte $01  ; 1
; ---------------------------------------------------------------------------
; Range $83B3–$86E0 (code)
; ---------------------------------------------------------------------------
  $83B3  01 B1     ORA ($B1,X)
  $83B5  C4 D7     CPY $D7
  $83B7  EA        NOP 
  $83B8  FD 10 23  SBC $2310,X
  $83BB  6F 60 51  RRA $5160
  $83BE  9E        ??? 
  $83BF  EF 14 37  ISC $3714
  $83C2  2B        ??? 
  $83C3  C4 F8     CPY $F8
  $83C5  2C 88 1F  BIT $1F88
  $83C8  38        SEC 
  $83C9  55 5A     EOR $5A,X
  $83CB  5F 6C 86  SRE $866C,X
  $83CE  97 A4     SAX $A4,Y
  $83D0  B1 B6     LDA ($B6),Y
  $83D2  CE D3 D8  DEC $D8D3
  $83D5  EF 06 0B  ISC $0B06
  $83D8  10 83     BPL $835D
  $83DA  B6 15     LDX $15,Y
  $83DC  79 7E B6  ADC $B67E,Y
  $83DF  36 45     ROL $45,X
  $83E1  55 C7     EOR $C7,X
  $83E3  44 9B     NOP $9B
  $83E5  C7 60     DCP $60
  $83E7  98        TYA 
  $83E8  03 9A     SLO ($9A,X)
  $83EA  9A        TXS 
  $83EB  9A        TXS 
  $83EC  9A        TXS 
  $83ED  9A        TXS 
  $83EE  9B        ??? 
  $83EF  9B        ??? 
  $83F0  9D 9D 9B  STA $9B9D,X
  $83F3  9F        ??? 
  $83F4  A0 A1     LDY #$A1
  $83F6  9D 9D 9C  STA $9C9D,X
  $83F9  9C        ??? 
  $83FA  9D A1 A2  STA $A2A1,X
  $83FD  A2 A2     LDX #$A2
  $83FF  A2 A2     LDX #$A2
  $8401  A2 A2     LDX #$A2
  $8403  A2 A2     LDX #$A2
  $8405  A2 A2     LDX #$A2
  $8407  A2 A2     LDX #$A2
  $8409  A2 A2     LDX #$A2
  $840B  A3 A3     LAX ($A3,X)
  $840D  A3 9E     LAX ($9E,X)
  $840F  9E        ??? 
  $8410  9F        ??? 
  $8411  9E        ??? 
  $8412  9E        ??? 
  $8413  9E        ??? 
  $8414  9B        ??? 
  $8415  A1 9E     LDA ($9E,X)
  $8417  A3 9D     LAX ($9D,X)
  $8419  A4 A4     LDY $A4
  $841B  9C        ??? 
  $841C  9C        ??? 
  $841D  DE DC E1  DEC $E1DC,X
  $8420  F8        SED 
  $8421  FC EF E1  NOP $E1EF,X
  $8424  EE C9 44  INC $44C9
  $8427  C9 00     CMP #$00
  $8429  84 44     STY $44
  $842B  F9 00 74  SBC $7400,Y
  $842E  07 23     SLO $23
  $8430  78        SEI 
  $8431  04 1D     NOP $1D
  $8433  F8        SED 
  $8434  FE FE 39  INC $39FE,X
  $8437  23 03     RLA ($03,X)
  $8439  26 00     ROL $00
  $843B  1B 06 36  SLO $3606,Y
  $843E  05 10     ORA $10
  $8440  05 02     ORA $02
  $8442  1A        NOP 
  $8443  02        ??? 
  $8444  32        ??? 
  $8445  3F 17 1A  RLA $1A17,X
  $8448  17 16     SLO $16,X
  $844A  0C 17 C7  NOP $C717
  $844D  DB 00 E0  DCP $E000,Y
  $8450  C7 DD     DCP $DD
  $8452  00        BRK 
  $8453  E8        INX 
  $8454  CC 80 00  CPY $0080
  $8457  84 CC     STY $CC
  $8459  82 00     NOP #$00
  $845B  8C D4 81  STY $81D4
  $845E  00        BRK 
  $845F  84 D4     STY $D4
  $8461  83 00     SAX ($00,X)
  $8463  8C 64 B0  STY $B064
  $8466  02        ??? 
  $8467  30 64     BMI $84CD
  $8469  84 A4     STY $A4
  $846B  71 74     ADC ($74),Y
  $846D  77 84     RRA $84,X
  $846F  84 84     STY $84
  $8471  00        BRK 
  $8472  00        BRK 
  $8473  00        BRK 
  $8474  00        BRK 
  $8475  03 00     SLO ($00,X)
  $8477  00        BRK 
  $8478  06 00     ASL $00
  $847A  01 12     ORA ($12,X)
  $847C  00        BRK 
  $847D  01 15     ORA ($15,X)
  $847F  00        BRK 
  $8480  01 18     ORA ($18,X)
  $8482  00        BRK 
  $8483  01 1B     ORA ($1B,X)
  $8485  00        BRK 
  $8486  01 1E     ORA ($1E,X)
  $8488  00        BRK 
  $8489  00        BRK 
  $848A  01 0C     ORA ($0C,X)
  $848C  00        BRK 
  $848D  01 0F     ORA ($0F,X)
  $848F  00        BRK 
  $8490  01 12     ORA ($12,X)
  $8492  00        BRK 
  $8493  01 15     ORA ($15,X)
  $8495  00        BRK 
  $8496  01 18     ORA ($18,X)
  $8498  00        BRK 
  $8499  00        BRK 
  $849A  01 14     ORA ($14,X)
  $849C  00        BRK 
  $849D  01 16     ORA ($16,X)
  $849F  00        BRK 
  $84A0  01 18     ORA ($18,X)
  $84A2  00        BRK 
  $84A3  01 1A     ORA ($1A,X)
  $84A5  00        BRK 
  $84A6  01 1C     ORA ($1C,X)
  $84A8  00        BRK 
  $84A9  00        BRK 
  $84AA  01 14     ORA ($14,X)
  $84AC  00        BRK 
  $84AD  01 16     ORA ($16,X)
  $84AF  00        BRK 
  $84B0  01 18     ORA ($18,X)
  $84B2  00        BRK 
  $84B3  01 1A     ORA ($1A,X)
  $84B5  00        BRK 
  $84B6  01 1C     ORA ($1C,X)
  $84B8  00        BRK 
  $84B9  00        BRK 
  $84BA  01 13     ORA ($13,X)
  $84BC  00        BRK 
  $84BD  01 14     ORA ($14,X)
  $84BF  32        ??? 
  $84C0  01 16     ORA ($16,X)
  $84C2  00        BRK 
  $84C3  01 17     ORA ($17,X)
  $84C5  32        ??? 
  $84C6  01 19     ORA ($19,X)
  $84C8  00        BRK 
  $84C9  00        BRK 
  $84CA  01 10     ORA ($10,X)
  $84CC  00        BRK 
  $84CD  01 11     ORA ($11,X)
  $84CF  32        ??? 
  $84D0  01 13     ORA ($13,X)
  $84D2  00        BRK 
  $84D3  01 14     ORA ($14,X)
  $84D5  32        ??? 
  $84D6  01 16     ORA ($16,X)
  $84D8  00        BRK 
  $84D9  00        BRK 
  $84DA  01 13     ORA ($13,X)
  $84DC  00        BRK 
  $84DD  01 14     ORA ($14,X)
  $84DF  32        ??? 
  $84E0  01 16     ORA ($16,X)
  $84E2  00        BRK 
  $84E3  01 17     ORA ($17,X)
  $84E5  32        ??? 
  $84E6  01 19     ORA ($19,X)
  $84E8  00        BRK 
  $84E9  00        BRK 
  $84EA  0A        ASL 
  $84EB  24 11     BIT $11
  $84ED  16 24     ASL $24,X
  $84EF  11 16     ORA ($16),Y
  $84F1  24 17     BIT $17
  $84F3  1D 24 17  ORA $1724,X
  $84F6  1C 24 16  NOP $1624,X
  $84F9  00        BRK 
  $84FA  0A        ASL 
  $84FB  24 11     BIT $11
  $84FD  0A        ASL 
  $84FE  24 11     BIT $11
  $8500  1C 18 10  NOP $1018,X
  $8503  14 22     NOP $22,X
  $8505  18        CLC 
  $8506  22        ??? 
  $8507  0A        ASL 
  $8508  16 00     ASL $00,X
  $850A  0A        ASL 
  $850B  24 11     BIT $11
  $850D  13 1E     SLO ($1E),Y
  $850F  17 1D     SLO $1D,X
  $8511  0A        ASL 
  $8512  0E 1C 1E  ASL $1E1C
  $8515  16 1E     ASL $1E,X
  $8517  0C 11 00  NOP $0011
  $851A  14 24     NOP $24,X
  $851C  18        CLC 
  $851D  22        ??? 
  $851E  24 1C     BIT $1C
  $8520  0A        ASL 
  $8521  12        ??? 
  $8522  14 14     NOP $14,X
  $8524  0E 12 0A  ASL $0A12
  $8527  14 12     NOP $12,X
  $8529  00        BRK 
  $852A  11 0A     ORA ($0A),Y
  $852C  1C 17 0A  NOP $0A17,X
  $852F  14 16     NOP $16,X
  $8531  12        ??? 
  $8532  1D 16 12  ORA $1216,X
  $8535  22        ??? 
  $8536  1D 0E 17  ORA $170E,X
  $8539  00        BRK 
  $853A  16 12     ASL $12,X
  $853C  22        ??? 
  $853D  1D 0E 17  ORA $170E,X
  $8540  0A        ASL 
  $8541  14 12     NOP $12,X
  $8543  16 12     ASL $12,X
  $8545  1D 13 24  ORA $2413,X
  $8548  14 00     NOP $00,X
  $854A  0A        ASL 
  $854B  24 18     BIT $18
  $854D  14 0E     NOP $0E,X
  $854F  22        ??? 
  $8550  12        ??? 
  $8551  0C 12 1B  NOP $1B12
  $8554  24 11     BIT $11
  $8556  0A        ASL 
  $8557  24 0E     BIT $0E
  $8559  00        BRK 
  $855A  11 25     ORA ($25),Y
  $855C  00        BRK 
  $855D  10 96     BPL $84F5
  $855F  00        BRK 
  $8560  10 54     BPL $85B6
  $8562  50 10     BVC $8574
  $8564  38        SEC 
  $8565  00        BRK 
  $8566  09 82     ORA #$82
  $8568  50 09     BVC $8573
  $856A  52        ??? 
  $856B  80 09     NOP #$09
  $856D  26 50     ROL $50
  $856F  08        PHP 
  $8570  68        PLA 
  $8571  00        BRK 
  $8572  08        PHP 
  $8573  45 20     EOR $20
  $8575  08        PHP 
  $8576  23 00     RLA ($00,X)
  $8578  0A        ASL 
  $8579  24 11     BIT $11
  $857B  0A        ASL 
  $857C  24 17     BIT $17
  $857E  0A        ASL 
  $857F  22        ??? 
  $8580  0A        ASL 
  $8581  16 12     ASL $12,X
  $8583  22        ??? 
  $8584  14 18     NOP $18,X
  $8586  17 1D     SLO $1D,X
  $8588  0E 17 22  ASL $2217
  $858B  24 14     BIT $14
  $858D  17 18     SLO $18,X
  $858F  17 1C     SLO $1C,X
  $8591  12        ??? 
  $8592  17 22     SLO $22,X
  $8594  0A        ASL 
  $8595  1C FE FF  NOP $FFFE,X
  $8598  00        BRK 
  $8599  5F 78 D8  SRE $D878,X
  $859C  A9 00     LDA #$00
  $859E  8D 00 20  STA $2000
  $85A1  A2 FF     LDX #$FF
  $85A3  9A        TXS 
  $85A4  AD 02 20  LDA $2002
  $85A7  29 80     AND #$80
  $85A9  F0 F9     BEQ $85A4
  $85AB  AD 02 20  LDA $2002
  $85AE  29 80     AND #$80
  $85B0  F0 F9     BEQ $85AB
  $85B2  A0 07     LDY #$07
  $85B4  84 01     STY $01
  $85B6  A0 00     LDY #$00
  $85B8  84 00     STY $00
  $85BA  98        TYA 
  $85BB  91 00     STA ($00),Y
  $85BD  88        DEY 
  $85BE  D0 FB     BNE $85BB
  $85C0  C6 01     DEC $01
  $85C2  10 F7     BPL $85BB
  $85C4  20 FC 85  JSR $85FC
  $85C7  20 76 CF  JSR $CF76
  $85CA  A5 49     LDA $49
  $85CC  8D 5C 06  STA $065C
  $85CF  A5 4A     LDA $4A
  $85D1  8D 5D 06  STA $065D
  $85D4  20 D2 99  JSR ControllerDoubleRead
  $85D7  A5 14     LDA $14
  $85D9  05 15     ORA $15
  $85DB  29 10     AND #$10
  $85DD  F0 03     BEQ $85E2
  $85DF  4C DF 85  JMP $85DF
  $85E2  A9 00     LDA #$00
  $85E4  8D 11 40  STA $4011
  $85E7  A9 06     LDA #$06
  $85E9  8D 01 20  STA $2001
  $85EC  85 18     STA $18
  $85EE  20 1C 87  JSR StageFirstTimeInit
  $85F1  A9 90     LDA #$90
  $85F3  20 47 87  JSR WritePPUCtrl
  $85F6  20 B1 99  JSR $99B1
  $85F9  4C F6 85  JMP $85F6
  $85FC  A2 29     LDX #$29
  $85FE  BD C3 80  LDA $80C3,X
  $8601  9D 30 06  STA $0630,X
  $8604  CA        DEX 
  $8605  10 F7     BPL $85FE
  $8607  A2 70     LDX #$70
  $8609  BD 7A 84  LDA $847A,X
  $860C  9D A0 06  STA $06A0,X
  $860F  BD EA 84  LDA $84EA,X
  $8612  9D 10 07  STA $0710,X
  $8615  CA        DEX 
  $8616  10 F1     BPL $8609
  $8618  A2 1E     LDX #$1E
  $861A  BD 5A 85  LDA $855A,X
  $861D  9D 5E 06  STA $065E,X
  $8620  BD 78 85  LDA $8578,X
  $8623  9D 80 06  STA $0680,X
  $8626  CA        DEX 
  $8627  10 F1     BPL $861A
  $8629  60        RTS 
  $862A  A5 10     LDA $10
  $862C  29 7F     AND #$7F
  $862E  20 47 87  JSR WritePPUCtrl
  $8631  A5 43     LDA $43
  $8633  D0 09     BNE $863E
  $8635  A5 11     LDA $11
  $8637  09 1A     ORA #$1A
  $8639  8D 01 20  STA $2001
  $863C  85 11     STA $11
  $863E  A9 00     LDA #$00
  $8640  8D 03 20  STA $2003
  $8643  A9 02     LDA #$02
  $8645  8D 14 40  STA $4014
  $8648  20 90 86  JSR $8690
  $864B  20 81 F3  JSR $F381
  $864E  A5 40     LDA $40
  $8650  F0 19     BEQ $866B
  $8652  A5 6E     LDA $6E
  $8654  F0 12     BEQ $8668
  $8656  4A        LSR 
  $8657  90 09     BCC $8662
  $8659  20 D6 96  JSR CalcSpeedTiers
  $865C  20 64 97  JSR LevelScreenInit
  $865F  4C 6B 86  JMP $866B
  $8662  20 E5 97  JSR VBlankScrollApply6B
  $8665  4C 6B 86  JMP $866B
  $8668  20 03 98  JSR PPUCtrlRefreshScroll12
  $866B  E6 3F     INC $3F
  $866D  20 9B 99  JSR $999B
  $8670  20 D2 99  JSR ControllerDoubleRead
  $8673  20 BE CF  JSR $CFBE
  $8676  20 F7 CF  JSR $CFF7
  $8679  20 BA 86  JSR $86BA
  $867C  20 DE 86  JSR $86DE
  $867F  20 28 D0  JSR $D028
  $8682  20 49 D0  JSR $D049
  $8685  AD 02 20  LDA $2002
  $8688  A5 10     LDA $10
  $868A  09 80     ORA #$80
  $868C  20 47 87  JSR WritePPUCtrl
  $868F  40        RTI 
  $8690  A6 43     LDX $43
  $8692  BD B3 83  LDA $83B3,X
  $8695  85 00     STA $00
  $8697  BD E8 83  LDA $83E8,X
  $869A  85 01     STA $01
  $869C  20 A7 9A  JSR $9AA7
  $869F  A9 00     LDA #$00
  $86A1  8D 00 03  STA $0300
  $86A4  8D 01 03  STA $0301
  $86A7  85 43     STA $43
  $86A9  A9 3F     LDA #$3F
  $86AB  8D 06 20  STA $2006
  $86AE  A9 00     LDA #$00
  $86B0  8D 06 20  STA $2006
  $86B3  8D 06 20  STA $2006
  $86B6  8D 06 20  STA $2006
  $86B9  60        RTS 
  $86BA  AD 14 06  LDA $0614
  $86BD  F0 1E     BEQ $86DD
  $86BF  A2 0F     LDX #$0F
  $86C1  A9 00     LDA #$00
  $86C3  95 F0     STA $F0,X
  $86C5  CA        DEX 
  $86C6  10 FB     BPL $86C3
  $86C8  A5 51     LDA $51
  $86CA  D0 06     BNE $86D2
  $86CC  A5 4D     LDA $4D
  $86CE  C9 07     CMP #$07
  $86D0  D0 0B     BNE $86DD
  $86D2  A9 01     LDA #$01
  $86D4  85 41     STA $41
  $86D6  4A        LSR 
  $86D7  8D 14 06  STA $0614
  $86DA  4C EF 8A  JMP StageAdvance
  $86DD  60        RTS 
  $86DE  A5 40     LDA $40
; ---------------------------------------------------------------------------
; Range $86E0–$874D (code) StageLoader
; ---------------------------------------------------------------------------

StageLoader:
  $86E0  F0 10     BEQ $86F2 ; StageLoader: loads level-init ptr ($8000[stage]) via JmpThruPtr0 when $30!=0; else uses $801A outer table + SubStageIdx ($42)
  $86E2  A5 41     LDA $41
  $86E4  0A        ASL 
  $86E5  A8        TAY 
  $86E6  B9 00 80  LDA LevelCodePtrs,Y
  $86E9  85 00     STA $00
  $86EB  C8        INY 
  $86EC  B9 00 80  LDA LevelCodePtrs,Y
  $86EF  4C 63 8B  JMP JmpThruPtr0
  $86F2  20 DA 98  JSR DisableRendering
  $86F5  A5 30     LDA $30
  $86F7  D0 53     BNE $874C
  $86F9  A5 41     LDA $41
  $86FB  0A        ASL 
  $86FC  AA        TAX 
  $86FD  BD 1A 80  LDA LevelFormationPtrs,X
  $8700  85 02     STA $02 ; StageLoader sub-stage dispatch: outer ptr=$801A[stage*2]; Y=SubStageIdx-1; inner table ptr[Y*2] called via JmpThruPtr0; first call (Y<0) goes to one-time init at $871C
  $8702  E8        INX 
  $8703  BD 1A 80  LDA LevelFormationPtrs,X
  $8706  85 03     STA $03
  $8708  A4 42     LDY $42
  $870A  E6 42     INC $42
  $870C  88        DEY 
  $870D  30 0D     BMI StageFirstTimeInit
  $870F  98        TYA 
  $8710  0A        ASL 
  $8711  A8        TAY 
  $8712  B1 02     LDA ($02),Y
  $8714  85 00     STA $00
  $8716  C8        INY 
  $8717  B1 02     LDA ($02),Y
  $8719  4C 63 8B  JMP JmpThruPtr0

StageFirstTimeInit:
  $871C  20 E0 98  JSR HideAllSprites ; StageLoader first-time init: JSR $98E0/$98BE; zero ZP $68-$EF; ORA stage flags from $80B6; call $97B1 (palette/init)
  $871F  20 BE 98  JSR ClearNametablesInit
  $8722  A6 41     LDX $41
  $8724  A5 59     LDA $59
  $8726  29 FB     AND #$FB
  $8728  1D B6 80  ORA StageFlagsTable,X
  $872B  85 59     STA $59
  $872D  A9 00     LDA #$00
  $872F  A2 EF     LDX #$EF
  $8731  95 00     STA $00,X
  $8733  CA        DEX 
  $8734  E0 67     CPX #$67
  $8736  D0 F9     BNE $8731
  $8738  20 B1 97  JSR ResetScrollToZero
  $873B  85 12     STA $12
  $873D  85 6B     STA $6B
  $873F  85 13     STA $13
  $8741  85 6C     STA $6C
  $8743  85 FC     STA $FC
  $8745  A9 10     LDA #$10

WritePPUCtrl:
  $8747  8D 00 20  STA $2000 ; WritePPUCtrl: STA $2000; STA $10; RTS — write A to PPU control register and save shadow copy in $10
  $874A  85 10     STA $10
  $874C  60        RTS 
; ---------------------------------------------------------------------------
; Range $874D–$F239 (code)
; ---------------------------------------------------------------------------

Level0Init:
  $874D  A5 51     LDA $51 ; Level0Init: stage-0 animation state machine; ZP $D0=phase(0=entry/non-0=scroll)
  $874F  D0 06     BNE $8757
  $8751  A5 4D     LDA $4D
  $8753  C9 07     CMP #$07
  $8755  D0 03     BNE $875A
  $8757  4C DD 8A  JMP StageTransitionHelper
  $875A  A5 D0     LDA $D0
  $875C  D0 33     BNE $8791
  $875E  A9 00     LDA #$00
  $8760  A4 12     LDY $12
  $8762  F0 1C     BEQ $8780
  $8764  A9 01     LDA #$01
  $8766  C8        INY 
  $8767  C8        INY 
  $8768  84 12     STY $12
  $876A  D0 0B     BNE $8777
  $876C  A9 09     LDA #$09
  $876E  85 43     STA $43
  $8770  A9 0A     LDA #$0A
  $8772  85 A9     STA $A9
  $8774  85 AA     STA $AA
  $8776  98        TYA 
  $8777  85 68     STA $68
  $8779  A9 04     LDA #$04
  $877B  85 31     STA $31
  $877D  4C E4 B1  JMP EntityAnimLoop
  $8780  A6 86     LDX $86
  $8782  D0 F3     BNE $8777
  $8784  A5 82     LDA $82
  $8786  C9 F0     CMP #$F0
  $8788  B0 EF     BCS $8779
  $878A  A5 31     LDA $31
  $878C  D0 02     BNE $8790
  $878E  E6 D0     INC $D0
  $8790  60        RTS 
  $8791  A5 D2     LDA $D2
  $8793  C9 05     CMP #$05
  $8795  D0 0B     BNE $87A2
  $8797  A5 31     LDA $31
  $8799  D0 F5     BNE $8790
  $879B  A9 0B     LDA #$0B
  $879D  85 41     STA $41
  $879F  4C DD 8A  JMP StageTransitionHelper
  $87A2  A5 13     LDA $13
  $87A4  18        CLC 
  $87A5  69 01     ADC #$01
  $87A7  C9 F0     CMP #$F0
  $87A9  90 1C     BCC $87C7
  $87AB  E6 D2     INC $D2
  $87AD  A5 D2     LDA $D2
  $87AF  C9 01     CMP #$01
  $87B1  D0 04     BNE $87B7
  $87B3  A9 05     LDA #$05
  $87B5  85 D1     STA $D1
  $87B7  C9 04     CMP #$04
  $87B9  D0 04     BNE $87BF
  $87BB  A9 03     LDA #$03
  $87BD  85 D1     STA $D1
  $87BF  A5 68     LDA $68
  $87C1  49 02     EOR #$02
  $87C3  85 68     STA $68
  $87C5  A9 00     LDA #$00
  $87C7  85 13     STA $13
  $87C9  29 07     AND #$07
  $87CB  D0 23     BNE $87F0
  $87CD  A5 D3     LDA $D3
  $87CF  18        CLC 
  $87D0  69 20     ADC #$20
  $87D2  B0 16     BCS $87EA
  $87D4  C9 C0     CMP #$C0
  $87D6  90 16     BCC $87EE
  $87D8  85 D3     STA $D3
  $87DA  A5 D4     LDA $D4
  $87DC  29 03     AND #$03
  $87DE  C9 03     CMP #$03
  $87E0  D0 0E     BNE $87F0
  $87E2  A5 D4     LDA $D4
  $87E4  49 0B     EOR #$0B
  $87E6  85 D4     STA $D4
  $87E8  D0 02     BNE $87EC
  $87EA  E6 D4     INC $D4
  $87EC  A9 00     LDA #$00
  $87EE  85 D3     STA $D3
  $87F0  A6 D2     LDX $D2
  $87F2  E0 02     CPX #$02
  $87F4  F0 19     BEQ $880F
  $87F6  A5 D4     LDA $D4
  $87F8  8D 01 03  STA $0301
  $87FB  A5 D3     LDA $D3
  $87FD  8D 02 03  STA $0302
  $8800  A9 60     LDA #$60
  $8802  8D 03 03  STA $0303
  $8805  A9 FC     LDA #$FC
  $8807  8D 04 03  STA $0304
  $880A  A9 00     LDA #$00
  $880C  8D 05 03  STA $0305
  $880F  A6 D1     LDX $D1
  $8811  D0 13     BNE $8826
  $8813  86 E4     STX $E4
  $8815  A5 13     LDA $13
  $8817  29 7F     AND #$7F
  $8819  C9 10     CMP #$10
  $881B  D0 12     BNE $882F
  $881D  A5 5D     LDA $5D
  $881F  C9 07     CMP #$07
  $8821  B0 0C     BCS $882F
  $8823  E6 D1     INC $D1
  $8825  E8        INX 
  $8826  20 34 88  JSR Level0DispatchSub
  $8829  90 04     BCC $882F
  $882B  A9 00     LDA #$00
  $882D  85 D1     STA $D1
  $882F  A9 08     LDA #$08
  $8831  85 31     STA $31
  $8833  60        RTS 

Level0DispatchSub:
  $8834  CA        DEX 
  $8835  8A        TXA 
  $8836  0A        ASL 
  $8837  AA        TAX 
  $8838  A9 00     LDA #$00
  $883A  8D 00 03  STA $0300
  $883D  BD 53 81  LDA Level0DispatchTable,X
  $8840  85 00     STA $00
  $8842  E8        INX 
  $8843  BD 53 81  LDA Level0DispatchTable,X
  $8846  85 01     STA $01
  $8848  A4 D5     LDY $D5
  $884A  A5 5D     LDA $5D
  $884C  6C 00 00  JMP ($0000)
  $884F  20 58 88  JSR $8858
  $8852  90 02     BCC $8856
  $8854  E6 D1     INC $D1
  $8856  18        CLC 
  $8857  60        RTS 
  $8858  A5 E6     LDA $E6
  $885A  18        CLC 
  $885B  69 14     ADC #$14
  $885D  85 43     STA $43
  $885F  E6 E6     INC $E6
  $8861  C9 24     CMP #$24
  $8863  90 04     BCC $8869
  $8865  A9 00     LDA #$00
  $8867  85 E6     STA $E6
  $8869  60        RTS 

Level0Phase_SpriteCycle:
  $886A  B9 BF 81  LDA $81BF,Y ; Level0Phase_SpriteCycle: LDA $81BF/C3
  $886D  85 00     STA $00
  $886F  B9 C3 81  LDA $81C3,Y
  $8872  85 01     STA $01
  $8874  20 4F D1  JSR $D14F
  $8877  90 0B     BCC $8884
  $8879  E6 D5     INC $D5
  $887B  A5 D5     LDA $D5
  $887D  29 03     AND #$03
  $887F  85 D5     STA $D5
  $8881  E6 5D     INC $5D
  $8883  38        SEC 
  $8884  60        RTS 

Level0Phase_SubState:
  $8885  20 8E 88  JSR $888E ; Level0Phase_SubState: JSR $888E (sub-step counter $E5; X=step); carry→INC $D1; CLC RTS
  $8888  90 02     BCC $888C
  $888A  E6 D1     INC $D1
  $888C  18        CLC 
  $888D  60        RTS 
  $888E  A6 E5     LDX $E5
  $8890  E6 E5     INC $E5
  $8892  E0 05     CPX #$05
  $8894  90 28     BCC $88BE
  $8896  F0 5E     BEQ $88F6
  $8898  E0 06     CPX #$06
  $889A  F0 48     BEQ $88E4
  $889C  E0 07     CPX #$07
  $889E  D0 14     BNE $88B4
  $88A0  A9 00     LDA #$00
  $88A2  8D 0A 03  STA $030A
  $88A5  A2 05     LDX #$05
  $88A7  BD 88 81  LDA $8188,X
  $88AA  9D 04 03  STA $0304,X
  $88AD  CA        DEX 
  $88AE  10 F7     BPL $88A7
  $88B0  A2 07     LDX #$07
  $88B2  D0 15     BNE $88C9
  $88B4  A9 00     LDA #$00
  $88B6  85 E5     STA $E5
  $88B8  A2 06     LDX #$06
  $88BA  A9 24     LDA #$24
  $88BC  D0 03     BNE $88C1
  $88BE  BD 83 81  LDA $8183,X
  $88C1  8D 04 03  STA $0304
  $88C4  A9 00     LDA #$00
  $88C6  8D 05 03  STA $0305
  $88C9  BD 7B 81  LDA $817B,X
  $88CC  8D 03 03  STA $0303
  $88CF  B9 64 81  LDA $8164,Y
  $88D2  18        CLC 
  $88D3  7D 73 81  ADC $8173,X
  $88D6  8D 02 03  STA $0302
  $88D9  B9 5D 81  LDA $815D,Y
  $88DC  7D 6B 81  ADC $816B,X
  $88DF  8D 01 03  STA $0301
  $88E2  D0 2D     BNE $8911
  $88E4  A9 00     LDA #$00
  $88E6  8D 09 03  STA $0309
  $88E9  A2 05     LDX #$05
  $88EB  8A        TXA 
  $88EC  9D 03 03  STA $0303,X
  $88EF  CA        DEX 
  $88F0  D0 F9     BNE $88EB
  $88F2  A2 05     LDX #$05
  $88F4  D0 D3     BNE $88C9
  $88F6  AA        TAX 
  $88F7  BD 8E 81  LDA $818E,X
  $88FA  85 02     STA $02
  $88FC  BD 95 81  LDA $8195,X
  $88FF  85 03     STA $03
  $8901  B9 64 81  LDA $8164,Y
  $8904  38        SEC 
  $8905  E9 0F     SBC #$0F
  $8907  85 00     STA $00
  $8909  B9 5D 81  LDA $815D,Y
  $890C  85 01     STA $01
  $890E  20 2E 99  JSR BuildPPUWriteQueue
  $8911  A5 E5     LDA $E5
  $8913  D0 02     BNE $8917
  $8915  38        SEC 
  $8916  60        RTS 
  $8917  18        CLC 
  $8918  60        RTS 
  $8919  A5 E6     LDA $E6
  $891B  18        CLC 
  $891C  69 29     ADC #$29
  $891E  85 43     STA $43
  $8920  E6 E6     INC $E6
  $8922  C9 2A     CMP #$2A
  $8924  90 04     BCC $892A
  $8926  A9 00     LDA #$00
  $8928  85 E6     STA $E6
  $892A  60        RTS 

Stage0InitPhase1:
  $892B  A9 2E     LDA #$2E ; Stage0 phase1: STA $43=$2E (set EnemyCount=46 sub-field)
  $892D  85 43     STA $43
  $892F  60        RTS 

Stage0InitPhase2:
  $8930  A9 08     LDA #$08 ; Stage0 phase2: EnemyCount=$08; $D4=$2B/$D3=$A0; $68=1; X=$12=$66=2; configure entity 2 slot data
  $8932  85 43     STA $43
  $8934  A9 2B     LDA #$2B
  $8936  85 D4     STA $D4
  $8938  A9 A0     LDA #$A0
  $893A  85 D3     STA $D3
  $893C  A9 01     LDA #$01
  $893E  85 68     STA $68
  $8940  A2 02     LDX #$02
  $8942  86 12     STX $12
  $8944  86 66     STX $66
  $8946  A9 E0     LDA #$E0
  $8948  95 80     STA $80,X
  $894A  8A        TXA 
  $894B  9D C8 03  STA $03C8,X
  $894E  A9 80     LDA #$80
  $8950  95 90     STA $90,X
  $8952  A9 02     LDA #$02
  $8954  95 84     STA $84,X
  $8956  A9 40     LDA #$40
  $8958  8D BE 03  STA $03BE
  $895B  A9 06     LDA #$06
  $895D  95 A8     STA $A8,X
  $895F  A9 10     LDA #$10
  $8961  CA        DEX 
  $8962  D0 E4     BNE $8948
  $8964  A9 0F     LDA #$0F
  $8966  8D 15 40  STA $4015
  $8969  60        RTS 

Level2Init:
  $896A  A5 31     LDA $31
  $896C  D0 03     BNE $8971
  $896E  4C ED 8A  JMP $8AED
  $8971  29 01     AND #$01
  $8973  A8        TAY 
  $8974  A9 23     LDA #$23
  $8976  8D 01 03  STA $0301
  $8979  8D 05 03  STA $0305
  $897C  A9 01     LDA #$01
  $897E  8D 03 03  STA $0303
  $8981  8D 07 03  STA $0307
  $8984  A5 5D     LDA $5D
  $8986  18        CLC 
  $8987  69 E8     ADC #$E8
  $8989  8D 02 03  STA $0302
  $898C  69 08     ADC #$08
  $898E  8D 06 03  STA $0306
  $8991  A5 5E     LDA $5E
  $8993  D0 0D     BNE $89A2
  $8995  B9 F1 81  LDA $81F1,Y
  $8998  09 45     ORA #$45
  $899A  AA        TAX 
  $899B  B9 F3 81  LDA $81F3,Y
  $899E  09 A1     ORA #$A1
  $89A0  D0 08     BNE $89AA
  $89A2  B9 F5 81  LDA $81F5,Y
  $89A5  09 30     ORA #$30
  $89A7  AA        TAX 
  $89A8  A9 AE     LDA #$AE
  $89AA  8D 08 03  STA $0308
  $89AD  8E 04 03  STX $0304
  $89B0  A9 00     LDA #$00
  $89B2  8D 09 03  STA $0309
  $89B5  60        RTS 
  $89B6  A9 80     LDA #$80
  $89B8  85 FD     STA $FD
  $89BA  A5 67     LDA $67
  $89BC  F0 07     BEQ $89C5
  $89BE  A9 09     LDA #$09
  $89C0  85 41     STA $41
  $89C2  4C EF 8A  JMP StageAdvance
  $89C5  A9 26     LDA #$26
  $89C7  D0 05     BNE $89CE
  $89C9  A5 5E     LDA $5E
  $89CB  18        CLC 
  $89CC  69 27     ADC #$27
  $89CE  85 43     STA $43
  $89D0  60        RTS 
  $89D1  AD 13 06  LDA $0613
  $89D4  C9 07     CMP #$07
  $89D6  90 02     BCC $89DA
  $89D8  A9 07     LDA #$07
  $89DA  85 D2     STA $D2
  $89DC  A6 5D     LDX $5D
  $89DE  BD 8E 81  LDA $818E,X
  $89E1  85 02     STA $02
  $89E3  BD 95 81  LDA $8195,X
  $89E6  85 03     STA $03
  $89E8  A6 5E     LDX $5E
  $89EA  BD EF 81  LDA $81EF,X
  $89ED  85 00     STA $00
  $89EF  A9 20     LDA #$20
  $89F1  85 01     STA $01
  $89F3  4C 2E 99  JMP BuildPPUWriteQueue
  $89F6  A4 D0     LDY $D0
  $89F8  B9 0A 82  LDA $820A,Y
  $89FB  85 00     STA $00
  $89FD  B9 12 82  LDA $8212,Y
  $8A00  85 01     STA $01
  $8A02  A6 D2     LDX $D2
  $8A04  20 1C 8A  JSR $8A1C
  $8A07  E6 D0     INC $D0
  $8A09  A5 D2     LDA $D2
  $8A0B  C9 07     CMP #$07
  $8A0D  B0 02     BCS $8A11
  $8A0F  E6 D2     INC $D2
  $8A11  E6 D1     INC $D1
  $8A13  A5 D1     LDA $D1
  $8A15  C9 07     CMP #$07
  $8A17  B0 02     BCS $8A1B
  $8A19  C6 42     DEC $42
  $8A1B  60        RTS 
  $8A1C  BD 1A 82  LDA $821A,X
  $8A1F  85 02     STA $02
  $8A21  BD 22 82  LDA $8222,X
  $8A24  85 03     STA $03
  $8A26  4C 2E 99  JMP BuildPPUWriteQueue
  $8A29  A9 10     LDA #$10
  $8A2B  A6 5E     LDX $5E
  $8A2D  F0 12     BEQ $8A41
  $8A2F  A9 00     LDA #$00
  $8A31  85 00     STA $00
  $8A33  A9 82     LDA #$82
  $8A35  85 01     STA $01
  $8A37  20 4F D1  JSR $D14F
  $8A3A  B0 03     BCS $8A3F
  $8A3C  C6 42     DEC $42
  $8A3E  60        RTS 
  $8A3F  A9 03     LDA #$03
  $8A41  85 FB     STA $FB
  $8A43  A5 5E     LDA $5E
  $8A45  0A        ASL 
  $8A46  0A        ASL 
  $8A47  69 18     ADC #$18
  $8A49  85 31     STA $31
  $8A4B  60        RTS 
  $8A4C  A6 5D     LDX $5D
  $8A4E  F0 14     BEQ Stage0InitPhase3
  $8A50  A0 08     LDY #$08
  $8A52  B9 F7 81  LDA $81F7,Y
  $8A55  99 01 03  STA $0301,Y
  $8A58  88        DEY 
  $8A59  10 F7     BPL $8A52
  $8A5B  8A        TXA 
  $8A5C  09 40     ORA #$40
  $8A5E  8D 03 03  STA $0303
  $8A61  8D 07 03  STA $0307

Stage0InitPhase3:
  $8A64  A9 01     LDA #$01 ; Stage0 phase3: $44=$40=$01; $42=$00 (reset SubStageIdx); init complete
  $8A66  85 44     STA $44
  $8A68  85 40     STA $40
  $8A6A  4A        LSR 
  $8A6B  85 42     STA $42
  $8A6D  60        RTS 

Level1Init:
  $8A6E  A5 3F     LDA $3F
  $8A70  29 10     AND #$10
  $8A72  F0 02     BEQ $8A76
  $8A74  A9 01     LDA #$01
  $8A76  8D 02 02  STA $0202
  $8A79  8D 06 02  STA $0206
  $8A7C  8D 0A 02  STA $020A
  $8A7F  8D 0E 02  STA $020E
  $8A82  A5 15     LDA $15
  $8A84  29 3C     AND #$3C
  $8A86  D0 03     BNE $8A8B
  $8A88  85 44     STA $44
  $8A8A  60        RTS 
  $8A8B  A6 44     LDX $44
  $8A8D  D0 FB     BNE $8A8A
  $8A8F  29 30     AND #$30
  $8A91  D0 25     BNE $8AB8
  $8A93  A5 15     LDA $15
  $8A95  29 08     AND #$08
  $8A97  D0 0E     BNE $8AA7
  $8A99  E6 5C     INC $5C
  $8A9B  A5 5C     LDA $5C
  $8A9D  C9 03     CMP #$03
  $8A9F  90 0E     BCC $8AAF
  $8AA1  A9 00     LDA #$00
  $8AA3  85 5C     STA $5C
  $8AA5  F0 08     BEQ $8AAF
  $8AA7  C6 5C     DEC $5C
  $8AA9  10 04     BPL $8AAF
  $8AAB  A9 02     LDA #$02
  $8AAD  85 5C     STA $5C
  $8AAF  E6 44     INC $44
  $8AB1  A9 01     LDA #$01
  $8AB3  85 FF     STA $FF
  $8AB5  4C F6 8A  JMP $8AF6
  $8AB8  A5 4D     LDA $4D
  $8ABA  C9 07     CMP #$07
  $8ABC  F0 06     BEQ $8AC4
  $8ABE  A5 51     LDA $51
  $8AC0  F0 02     BEQ $8AC4
  $8AC2  C6 51     DEC $51
  $8AC4  A5 5C     LDA $5C
  $8AC6  85 5D     STA $5D
  $8AC8  AA        TAX 
  $8AC9  BD 6B 84  LDA $846B,X
  $8ACC  85 00     STA $00
  $8ACE  BD 6E 84  LDA $846E,X
  $8AD1  85 01     STA $01
  $8AD3  A0 01     LDY #$01
  $8AD5  B1 00     LDA ($00),Y
  $8AD7  99 27 06  STA $0627,Y
  $8ADA  88        DEY 
  $8ADB  10 F8     BPL $8AD5

StageTransitionHelper:
  $8ADD  A2 00     LDX #$00 ; StageTransitionHelper: JSR $D715; copy $03F0[0..5]->$0620[0..5]; INC $41; clear $40
  $8ADF  20 15 D7  JSR $D715
  $8AE2  A2 05     LDX #$05
  $8AE4  BD F0 03  LDA $03F0,X
  $8AE7  9D 20 06  STA $0620,X
  $8AEA  CA        DEX 
  $8AEB  10 F7     BPL $8AE4
  $8AED  E6 41     INC $41

StageAdvance:
  $8AEF  A9 00     LDA #$00
  $8AF1  85 40     STA $40
  $8AF3  85 42     STA $42
  $8AF5  60        RTS 
  $8AF6  A6 5C     LDX $5C
  $8AF8  BD 68 84  LDA $8468,X
  $8AFB  8D 10 02  STA $0210
  $8AFE  60        RTS 

Stage1FormationPhase1:
  $8AFF  A2 0F     LDX #$0F
  $8B01  BD 54 84  LDA $8454,X
  $8B04  9D 00 02  STA $0200,X
  $8B07  CA        DEX 
  $8B08  10 F7     BPL $8B01
  $8B0A  A2 03     LDX #$03
  $8B0C  BD 64 84  LDA $8464,X
  $8B0F  9D 10 02  STA $0210,X
  $8B12  CA        DEX 
  $8B13  10 F7     BPL $8B0C
  $8B15  A9 25     LDA #$25
  $8B17  85 43     STA $43
  $8B19  A9 04     LDA #$04
  $8B1B  05 FB     ORA $FB
  $8B1D  85 FB     STA $FB
  $8B1F  E6 40     INC $40
  $8B21  60        RTS 

Stage0InitPhase0:
  $8B22  A0 1F     LDY #$1F ; Stage0 wave init: clear $0610-$062F (32B); clear ZP $5C-$67 (12B); STA $44=$5F=1; STA $FD=$80; enable 4 APU channels ($4015=$0F)
  $8B24  A9 00     LDA #$00
  $8B26  99 10 06  STA $0610,Y
  $8B29  88        DEY 
  $8B2A  10 FA     BPL $8B26
  $8B2C  A0 0B     LDY #$0B
  $8B2E  99 5C 00  STA $005C,Y
  $8B31  88        DEY 
  $8B32  10 FA     BPL $8B2E
  $8B34  85 5D     STA $5D
  $8B36  85 5C     STA $5C
  $8B38  A9 01     LDA #$01
  $8B3A  85 44     STA $44
  $8B3C  85 5F     STA $5F
  $8B3E  A9 80     LDA #$80
  $8B40  85 FD     STA $FD
  $8B42  A9 0F     LDA #$0F
  $8B44  8D 15 40  STA $4015
  $8B47  60        RTS 

Level4Init:
  $8B48  A5 34     LDA $34
  $8B4A  F0 09     BEQ $8B55
  $8B4C  20 20 8D  JSR $8D20
  $8B4F  20 F2 8C  JSR $8CF2
  $8B52  20 99 8C  JSR $8C99
  $8B55  A5 35     LDA $35
  $8B57  D0 0F     BNE $8B68
  $8B59  A4 42     LDY $42
  $8B5B  B9 E2 82  LDA $82E2,Y
  $8B5E  85 00     STA $00
  $8B60  B9 E6 82  LDA $82E6,Y

JmpThruPtr0:
  $8B63  85 01     STA $01
  $8B65  6C 00 00  JMP ($0000)
  $8B68  60        RTS 
  $8B69  A9 01     LDA #$01
  $8B6B  85 FF     STA $FF
  $8B6D  A2 06     LDX #$06
  $8B6F  BD 09 04  LDA $0409,X
  $8B72  9D 04 03  STA $0304,X
  $8B75  CA        DEX 
  $8B76  10 F7     BPL $8B6F
  $8B78  A6 D1     LDX $D1
  $8B7A  A9 22     LDA #$22
  $8B7C  8D 01 03  STA $0301
  $8B7F  A9 D4     LDA #$D4
  $8B81  8D 02 03  STA $0302
  $8B84  A9 00     LDA #$00
  $8B86  9D 05 03  STA $0305,X
  $8B89  E8        INX 
  $8B8A  8E 03 03  STX $0303
  $8B8D  E0 07     CPX #$07
  $8B8F  B0 07     BCS $8B98
  $8B91  E6 D1     INC $D1
  $8B93  A9 01     LDA #$01
  $8B95  85 35     STA $35
  $8B97  60        RTS 
  $8B98  A9 04     LDA #$04
  $8B9A  85 35     STA $35
  $8B9C  E6 42     INC $42
  $8B9E  60        RTS 

EntitySlotFill3:
  $8B9F  A9 30     LDA #$30 ; EntitySlotFill3: $34=$30
  $8BA1  85 34     STA $34
  $8BA3  A9 01     LDA #$01
  $8BA5  85 FF     STA $FF
  $8BA7  A2 05     LDX #$05
  $8BA9  86 24     STX $24
  $8BAB  86 0D     STX $0D
  $8BAD  CA        DEX 
  $8BAE  BD FA 82  LDA SlotSprOffset,X
  $8BB1  85 01     STA $01
  $8BB3  BD 00 83  LDA SlotSprPtrHi,X
  $8BB6  85 02     STA $02
  $8BB8  BD 06 83  LDA SlotEntityType,X
  $8BBB  85 0B     STA $0B
  $8BBD  20 C4 8D  JSR EntitySpriteSetup
  $8BC0  E0 02     CPX #$02
  $8BC2  F0 04     BEQ $8BC8
  $8BC4  E0 04     CPX #$04
  $8BC6  D0 03     BNE $8BCB
  $8BC8  20 8C 98  JSR SpriteFillHelper
  $8BCB  CA        DEX 
  $8BCC  10 E0     BPL $8BAE
  $8BCE  A9 01     LDA #$01
  $8BD0  A6 6D     LDX $6D
  $8BD2  CA        DEX 
  $8BD3  E0 05     CPX #$05
  $8BD5  B0 04     BCS $8BDB
  $8BD7  86 0D     STX $0D
  $8BD9  A9 02     LDA #$02
  $8BDB  85 FB     STA $FB
  $8BDD  49 02     EOR #$02
  $8BDF  85 D0     STA $D0
  $8BE1  A6 0D     LDX $0D
  $8BE3  BD F4 82  LDA SlotSprPtrLo,X
  $8BE6  85 D2     STA $D2
  $8BE8  BD FA 82  LDA SlotSprOffset,X
  $8BEB  85 D3     STA $D3
  $8BED  8D 12 06  STA $0612
  $8BF0  A4 66     LDY $66
  $8BF2  88        DEY 
  $8BF3  F0 04     BEQ $8BF9
  $8BF5  A9 12     LDA #$12
  $8BF7  85 43     STA $43
  $8BF9  A9 26     LDA #$26
  $8BFB  85 25     STA $25
  $8BFD  4C 98 8B  JMP $8B98

EntitySlotFill4:
  $8C00  A6 6D     LDX $6D ; EntitySlotFill4: clamp $6D index; select ptr pair ($8348/$834E if $5E=0 else $8354/$835A); copy 6-byte slot template to $0304-$0309 (fill zeros with $FE); copy $8312[0..3] to $0300-$0303; clear $030A; JMP $8B98
  $8C02  E0 06     CPX #$06
  $8C04  90 02     BCC $8C08
  $8C06  A2 06     LDX #$06
  $8C08  CA        DEX 
  $8C09  A5 5E     LDA $5E
  $8C0B  D0 0D     BNE $8C1A
  $8C0D  BD 48 83  LDA SlotDataPtrALo,X
  $8C10  85 00     STA $00
  $8C12  BD 4E 83  LDA SlotDataPtrAHi,X
  $8C15  85 01     STA $01
  $8C17  4C 24 8C  JMP $8C24
  $8C1A  BD 54 83  LDA SlotDataPtrBLo,X
  $8C1D  85 00     STA $00
  $8C1F  BD 5A 83  LDA SlotDataPtrBHi,X
  $8C22  85 01     STA $01
  $8C24  A0 05     LDY #$05
  $8C26  B1 00     LDA ($00),Y
  $8C28  99 04 03  STA $0304,Y
  $8C2B  88        DEY 
  $8C2C  10 F8     BPL $8C26
  $8C2E  A0 00     LDY #$00
  $8C30  B9 04 03  LDA $0304,Y
  $8C33  D0 0A     BNE $8C3F
  $8C35  A9 FE     LDA #$FE
  $8C37  99 04 03  STA $0304,Y
  $8C3A  C8        INY 
  $8C3B  C0 05     CPY #$05
  $8C3D  D0 F1     BNE $8C30
  $8C3F  A2 03     LDX #$03
  $8C41  BD 12 83  LDA WaveCtrlInit,X
  $8C44  9D 00 03  STA $0300,X
  $8C47  CA        DEX 
  $8C48  10 F7     BPL $8C41
  $8C4A  A9 00     LDA #$00
  $8C4C  8D 0A 03  STA $030A
  $8C4F  4C 98 8B  JMP $8B98

StageSelectLUT:
  $8C52  A5 34     LDA $34
  $8C54  D0 42     BNE $8C98
  $8C56  A4 60     LDY $60
  $8C58  D0 0C     BNE $8C66
  $8C5A  A5 4D     LDA $4D
  $8C5C  C9 07     CMP #$07
  $8C5E  F0 04     BEQ $8C64
  $8C60  A5 51     LDA $51
  $8C62  F0 02     BEQ $8C66
  $8C64  A0 05     LDY #$05
  $8C66  B9 AD 83  LDA StageNumLUT,Y
  $8C69  85 41     STA $41
  $8C6B  C0 03     CPY #$03
  $8C6D  D0 26     BNE $8C95
  $8C6F  A5 5D     LDA $5D
  $8C71  C9 06     CMP #$06
  $8C73  D0 0A     BNE $8C7F
  $8C75  A5 5E     LDA $5E
  $8C77  F0 06     BEQ $8C7F
  $8C79  EE 13 06  INC $0613
  $8C7C  4C 95 8C  JMP $8C95
  $8C7F  A5 5E     LDA $5E
  $8C81  49 01     EOR #$01
  $8C83  85 5E     STA $5E
  $8C85  D0 0E     BNE $8C95
  $8C87  E6 5D     INC $5D
  $8C89  A5 5D     LDA $5D
  $8C8B  C9 03     CMP #$03
  $8C8D  F0 04     BEQ $8C93
  $8C8F  C9 06     CMP #$06
  $8C91  D0 02     BNE $8C95
  $8C93  85 67     STA $67
  $8C95  20 EF 8A  JSR StageAdvance
  $8C98  60        RTS 
  $8C99  A5 D4     LDA $D4
  $8C9B  D0 24     BNE $8CC1
  $8C9D  A5 34     LDA $34
  $8C9F  C9 20     CMP #$20
  $8CA1  D0 1D     BNE $8CC0
  $8CA3  A5 60     LDA $60
  $8CA5  C9 03     CMP #$03
  $8CA7  D0 02     BNE $8CAB
  $8CA9  A9 04     LDA #$04
  $8CAB  4A        LSR 
  $8CAC  C9 02     CMP #$02
  $8CAE  D0 09     BNE $8CB9
  $8CB0  A6 5D     LDX $5D
  $8CB2  E0 06     CPX #$06
  $8CB4  F0 03     BEQ $8CB9
  $8CB6  18        CLC 
  $8CB7  65 5E     ADC $5E
  $8CB9  18        CLC 
  $8CBA  69 0E     ADC #$0E
  $8CBC  85 43     STA $43
  $8CBE  85 D4     STA $D4
  $8CC0  60        RTS 
  $8CC1  A5 D4     LDA $D4
  $8CC3  C9 10     CMP #$10
  $8CC5  F0 04     BEQ $8CCB
  $8CC7  C9 11     CMP #$11
  $8CC9  D0 22     BNE $8CED
  $8CCB  A5 5D     LDA $5D
  $8CCD  C9 06     CMP #$06
  $8CCF  F0 03     BEQ $8CD4
  $8CD1  18        CLC 
  $8CD2  65 5E     ADC $5E
  $8CD4  18        CLC 
  $8CD5  69 01     ADC #$01
  $8CD7  8D 04 03  STA $0304
  $8CDA  A9 21     LDA #$21
  $8CDC  8D 01 03  STA $0301
  $8CDF  A9 1A     LDA #$1A
  $8CE1  8D 02 03  STA $0302
  $8CE4  A9 01     LDA #$01
  $8CE6  8D 03 03  STA $0303
  $8CE9  4A        LSR 
  $8CEA  8D 05 03  STA $0305
  $8CED  A9 00     LDA #$00
  $8CEF  85 D4     STA $D4
  $8CF1  60        RTS 
  $8CF2  A0 07     LDY #$07
  $8CF4  B9 EA 82  LDA MusicSlotInitTable,Y
  $8CF7  99 01 03  STA $0301,Y
  $8CFA  88        DEY 
  $8CFB  10 F7     BPL $8CF4
  $8CFD  A5 34     LDA $34
  $8CFF  29 01     AND #$01
  $8D01  F0 1C     BEQ $8D1F
  $8D03  A5 6D     LDA $6D
  $8D05  20 A8 AF  JSR DivBy10
  $8D08  8D 07 03  STA $0307
  $8D0B  8A        TXA 
  $8D0C  20 A8 AF  JSR DivBy10
  $8D0F  E0 00     CPX #$00
  $8D11  F0 05     BEQ $8D18
  $8D13  8E 05 03  STX $0305
  $8D16  D0 04     BNE $8D1C
  $8D18  C9 00     CMP #$00
  $8D1A  F0 03     BEQ $8D1F
  $8D1C  8D 06 03  STA $0306
  $8D1F  60        RTS 
  $8D20  A5 D3     LDA $D3
  $8D22  85 01     STA $01
  $8D24  A5 D0     LDA $D0
  $8D26  D0 1E     BNE $8D46
  $8D28  A5 24     LDA $24
  $8D2A  F0 4B     BEQ $8D77
  $8D2C  A9 1F     LDA #$1F
  $8D2E  8D 90 03  STA $0390
  $8D31  8D 9C 03  STA $039C
  $8D34  A9 AF     LDA #$AF
  $8D36  8D 88 03  STA $0388
  $8D39  A9 01     LDA #$01
  $8D3B  8D 8C 03  STA $038C
  $8D3E  4A        LSR 
  $8D3F  8D 94 03  STA $0394
  $8D42  A0 9C     LDY #$9C
  $8D44  D0 49     BNE $8D8F
  $8D46  20 D7 8D  JSR $8DD7
  $8D49  A5 3F     LDA $3F
  $8D4B  29 10     AND #$10
  $8D4D  D0 0C     BNE $8D5B
  $8D4F  A5 25     LDA $25
  $8D51  05 D8     ORA $D8
  $8D53  D0 02     BNE $8D57
  $8D55  E6 D8     INC $D8
  $8D57  A0 A2     LDY #$A2
  $8D59  D0 34     BNE $8D8F
  $8D5B  A5 3F     LDA $3F
  $8D5D  29 08     AND #$08
  $8D5F  D0 10     BNE $8D71
  $8D61  A9 A8     LDA #$A8
  $8D63  8D 81 02  STA $0281
  $8D66  A9 A9     LDA #$A9
  $8D68  8D 85 02  STA $0285
  $8D6B  A9 AA     LDA #$AA
  $8D6D  8D 89 02  STA $0289
  $8D70  60        RTS 
  $8D71  A9 B5     LDA #$B5
  $8D73  8D 85 02  STA $0285
  $8D76  60        RTS 
  $8D77  A2 00     LDX #$00
  $8D79  20 49 AD  JSR $AD49
  $8D7C  85 D3     STA $D3
  $8D7E  85 01     STA $01
  $8D80  AD 12 06  LDA $0612
  $8D83  C5 D3     CMP $D3
  $8D85  B0 06     BCS $8D8D
  $8D87  85 D3     STA $D3
  $8D89  A9 0A     LDA #$0A
  $8D8B  85 24     STA $24
  $8D8D  A0 96     LDY #$96
  $8D8F  84 02     STY $02
  $8D91  A6 6D     LDX $6D
  $8D93  CA        DEX 
  $8D94  E0 05     CPX #$05
  $8D96  90 06     BCC $8D9E
  $8D98  A2 05     LDX #$05
  $8D9A  A9 03     LDA #$03
  $8D9C  D0 02     BNE $8DA0
  $8D9E  A9 01     LDA #$01
  $8DA0  85 0B     STA $0B
  $8DA2  20 C4 8D  JSR EntitySpriteSetup
  $8DA5  A5 D0     LDA $D0
  $8DA7  D0 1A     BNE $8DC3
  $8DA9  BD 0C 83  LDA SlotOAMBase,X
  $8DAC  85 00     STA $00
  $8DAE  A9 02     LDA #$02
  $8DB0  85 01     STA $01
  $8DB2  A9 00     LDA #$00
  $8DB4  A0 02     LDY #$02
  $8DB6  91 00     STA ($00),Y
  $8DB8  A5 00     LDA $00
  $8DBA  18        CLC 
  $8DBB  69 0C     ADC #$0C
  $8DBD  85 00     STA $00
  $8DBF  A9 00     LDA #$00
  $8DC1  91 00     STA ($00),Y
  $8DC3  60        RTS 

EntitySpriteSetup:
  $8DC4  BD F4 82  LDA SlotSprPtrLo,X ; EntitySpriteSetup: LDA $82F4
  $8DC7  85 00     STA $00
  $8DC9  A9 32     LDA #$32
  $8DCB  85 03     STA $03
  $8DCD  BD 0C 83  LDA SlotOAMBase,X
  $8DD0  85 04     STA $04
  $8DD2  A9 00     LDA #$00
  $8DD4  4C 11 98  JMP SpriteTileDraw
  $8DD7  A9 00     LDA #$00
  $8DD9  8D C2 02  STA $02C2
  $8DDC  A0 01     LDY #$01
  $8DDE  A5 D8     LDA $D8
  $8DE0  F0 58     BEQ $8E3A
  $8DE2  A0 03     LDY #$03
  $8DE4  C9 04     CMP #$04
  $8DE6  F0 52     BEQ $8E3A
  $8DE8  AA        TAX 
  $8DE9  CA        DEX 
  $8DEA  BD A2 83  LDA SpeedDeltaTable,X
  $8DED  65 D9     ADC $D9
  $8DEF  85 D9     STA $D9
  $8DF1  90 03     BCC $8DF6
  $8DF3  CE C3 02  DEC $02C3
  $8DF6  A5 D5     LDA $D5
  $8DF8  69 30     ADC #$30
  $8DFA  85 D5     STA $D5
  $8DFC  A5 D6     LDA $D6
  $8DFE  69 00     ADC #$00
  $8E00  85 D6     STA $D6
  $8E02  6D C0 02  ADC $02C0
  $8E05  E5 DA     SBC $DA
  $8E07  8D C0 02  STA $02C0
  $8E0A  C5 D7     CMP $D7
  $8E0C  90 1F     BCC $8E2D
  $8E0E  A5 DB     LDA $DB
  $8E10  F0 1F     BEQ $8E31
  $8E12  A5 D7     LDA $D7
  $8E14  8D C0 02  STA $02C0
  $8E17  C9 88     CMP #$88
  $8E19  F0 04     BEQ $8E1F
  $8E1B  A9 40     LDA #$40
  $8E1D  85 FD     STA $FD
  $8E1F  E6 D8     INC $D8
  $8E21  46 DA     LSR $DA
  $8E23  A9 00     LDA #$00
  $8E25  85 D5     STA $D5
  $8E27  85 D6     STA $D6
  $8E29  A9 88     LDA #$88
  $8E2B  85 D7     STA $D7
  $8E2D  A9 01     LDA #$01
  $8E2F  85 DB     STA $DB
  $8E31  A5 3F     LDA $3F
  $8E33  4A        LSR 
  $8E34  4A        LSR 
  $8E35  29 03     AND #$03
  $8E37  F0 01     BEQ $8E3A
  $8E39  A8        TAY 
  $8E3A  98        TYA 
  $8E3B  18        CLC 
  $8E3C  69 AA     ADC #$AA
  $8E3E  8D C1 02  STA $02C1
  $8E41  60        RTS 
  $8E42  A9 0B     LDA #$0B
  $8E44  85 43     STA $43
  $8E46  60        RTS 
  $8E47  A5 5E     LDA $5E
  $8E49  18        CLC 
  $8E4A  69 0C     ADC #$0C
  $8E4C  85 43     STA $43
  $8E4E  60        RTS 
  $8E4F  A6 5D     LDX $5D
  $8E51  BD 8E 81  LDA $818E,X
  $8E54  85 02     STA $02
  $8E56  BD 95 81  LDA $8195,X
  $8E59  85 03     STA $03
  $8E5B  A6 5E     LDX $5E
  $8E5D  BD F2 82  LDA $82F2,X
  $8E60  85 00     STA $00
  $8E62  A9 20     LDA #$20
  $8E64  85 01     STA $01
  $8E66  4C 2E 99  JMP BuildPPUWriteQueue
  $8E69  A9 01     LDA #$01
  $8E6B  85 6D     STA $6D
  $8E6D  20 16 90  JSR $9016
  $8E70  20 93 90  JSR $9093
  $8E73  B0 29     BCS $8E9E
  $8E75  A2 02     LDX #$02
  $8E77  20 44 90  JSR $9044
  $8E7A  20 93 90  JSR $9093
  $8E7D  EA        NOP 
  $8E7E  EA        NOP 
  $8E7F  B0 1B     BCS $8E9C
  $8E81  E8        INX 
  $8E82  E0 06     CPX #$06
  $8E84  90 F1     BCC $8E77
  $8E86  A9 02     LDA #$02
  $8E88  85 00     STA $00
  $8E8A  A9 00     LDA #$00
  $8E8C  85 01     STA $01
  $8E8E  20 71 90  JSR $9071
  $8E91  20 93 90  JSR $9093
  $8E94  F0 02     BEQ $8E98
  $8E96  B0 04     BCS $8E9C
  $8E98  E8        INX 
  $8E99  4C 86 8E  JMP $8E86
  $8E9C  86 6D     STX $6D
  $8E9E  60        RTS 
  $8E9F  A2 05     LDX #$05
  $8EA1  BD 27 06  LDA $0627,X
  $8EA4  9D 04 03  STA $0304,X
  $8EA7  CA        DEX 
  $8EA8  10 F7     BPL $8EA1
  $8EAA  A2 03     LDX #$03
  $8EAC  BD 16 83  LDA $8316,X
  $8EAF  9D 00 03  STA $0300,X
  $8EB2  CA        DEX 
  $8EB3  10 F7     BPL $8EAC
  $8EB5  A9 00     LDA #$00
  $8EB7  8D 0A 03  STA $030A
  $8EBA  20 BE 8E  JSR $8EBE
  $8EBD  60        RTS 
  $8EBE  AD 1A 06  LDA $061A
  $8EC1  F0 11     BEQ $8ED4
  $8EC3  A2 0B     LDX #$0B
  $8EC5  BD 3C 83  LDA $833C,X
  $8EC8  9D 94 02  STA $0294,X
  $8ECB  CA        DEX 
  $8ECC  10 F7     BPL $8EC5
  $8ECE  AD 1A 06  LDA $061A
  $8ED1  8D 95 02  STA $0295
  $8ED4  60        RTS 
  $8ED5  A6 6D     LDX $6D
  $8ED7  E0 06     CPX #$06
  $8ED9  90 02     BCC $8EDD
  $8EDB  A2 06     LDX #$06
  $8EDD  CA        DEX 
  $8EDE  A5 5E     LDA $5E
  $8EE0  D0 0D     BNE $8EEF
  $8EE2  BD 48 83  LDA SlotDataPtrALo,X
  $8EE5  85 00     STA $00
  $8EE7  BD 4E 83  LDA SlotDataPtrAHi,X
  $8EEA  85 01     STA $01
  $8EEC  4C F9 8E  JMP $8EF9
  $8EEF  BD 54 83  LDA SlotDataPtrBLo,X
  $8EF2  85 00     STA $00
  $8EF4  BD 5A 83  LDA SlotDataPtrBHi,X
  $8EF7  85 01     STA $01
  $8EF9  A0 05     LDY #$05
  $8EFB  B1 00     LDA ($00),Y
  $8EFD  99 F6 03  STA $03F6,Y
  $8F00  88        DEY 
  $8F01  10 F8     BPL $8EFB
  $8F03  20 2F D6  JSR $D62F
  $8F06  60        RTS 
  $8F07  A6 4B     LDX $4B
  $8F09  E0 03     CPX #$03
  $8F0B  F0 4F     BEQ $8F5C
  $8F0D  E0 02     CPX #$02
  $8F0F  D0 05     BNE $8F16
  $8F11  AD 1B 06  LDA $061B
  $8F14  D0 46     BNE $8F5C
  $8F16  AD 27 06  LDA $0627
  $8F19  0A        ASL 
  $8F1A  0A        ASL 
  $8F1B  0A        ASL 
  $8F1C  0A        ASL 
  $8F1D  0D 28 06  ORA $0628
  $8F20  85 00     STA $00
  $8F22  BD 1A 83  LDA $831A,X
  $8F25  85 01     STA $01
  $8F27  BD 1D 83  LDA $831D,X
  $8F2A  85 02     STA $02
  $8F2C  AC 1B 06  LDY $061B
  $8F2F  A5 00     LDA $00
  $8F31  D1 01     CMP ($01),Y
  $8F33  30 27     BMI $8F5C
  $8F35  A9 10     LDA #$10
  $8F37  05 FD     ORA $FD
  $8F39  85 FD     STA $FD
  $8F3B  EE 1A 06  INC $061A
  $8F3E  EE 1B 06  INC $061B
  $8F41  A5 4B     LDA $4B
  $8F43  C9 01     CMP #$01
  $8F45  F0 09     BEQ $8F50
  $8F47  AD 1B 06  LDA $061B
  $8F4A  C9 18     CMP #$18
  $8F4C  90 0E     BCC $8F5C
  $8F4E  B0 07     BCS $8F57
  $8F50  AD 1B 06  LDA $061B
  $8F53  C9 09     CMP #$09
  $8F55  90 05     BCC $8F5C
  $8F57  A9 00     LDA #$00
  $8F59  8D 1B 06  STA $061B
  $8F5C  60        RTS 
  $8F5D  A5 5E     LDA $5E
  $8F5F  F0 1D     BEQ $8F7E
  $8F61  A9 00     LDA #$00
  $8F63  85 E4     STA $E4
  $8F65  20 71 D1  JSR $D171
  $8F68  AA        TAX 
  $8F69  20 F9 D2  JSR $D2F9
  $8F6C  A0 00     LDY #$00
  $8F6E  B9 4D 81  LDA $814D,Y
  $8F71  85 00     STA $00
  $8F73  B9 50 81  LDA $8150,Y
  $8F76  85 01     STA $01
  $8F78  20 89 AF  JSR $AF89
  $8F7B  20 32 97  JSR $9732
  $8F7E  60        RTS 
  $8F7F  A9 02     LDA #$02
  $8F81  85 60     STA $60
  $8F83  A5 6D     LDA $6D
  $8F85  C9 06     CMP #$06
  $8F87  B0 0E     BCS $8F97
  $8F89  E6 60     INC $60
  $8F8B  A5 5E     LDA $5E
  $8F8D  F0 07     BEQ $8F96
  $8F8F  20 BB 8F  JSR $8FBB
  $8F92  90 02     BCC $8F96
  $8F94  E6 60     INC $60
  $8F96  60        RTS 
  $8F97  A9 88     LDA #$88
  $8F99  8D C0 02  STA $02C0
  $8F9C  A9 CC     LDA #$CC
  $8F9E  8D C3 02  STA $02C3
  $8FA1  A9 73     LDA #$73
  $8FA3  85 D7     STA $D7
  $8FA5  A9 04     LDA #$04
  $8FA7  85 DA     STA $DA
  $8FA9  20 D7 8D  JSR $8DD7
  $8FAC  CE 1A 06  DEC $061A
  $8FAF  10 09     BPL $8FBA
  $8FB1  C6 60     DEC $60
  $8FB3  20 D2 8F  JSR $8FD2
  $8FB6  B0 02     BCS $8FBA
  $8FB8  C6 60     DEC $60
  $8FBA  60        RTS 
  $8FBB  A0 00     LDY #$00
  $8FBD  84 E4     STY $E4
  $8FBF  20 71 D1  JSR $D171
  $8FC2  AA        TAX 
  $8FC3  20 F9 D2  JSR $D2F9
  $8FC6  C8        INY 
  $8FC7  20 93 90  JSR $9093
  $8FCA  B0 45     BCS $9011
  $8FCC  C0 05     CPY #$05
  $8FCE  90 ED     BCC $8FBD
  $8FD0  B0 3A     BCS $900C
  $8FD2  A2 02     LDX #$02
  $8FD4  A0 04     LDY #$04
  $8FD6  B9 27 06  LDA $0627,Y
  $8FD9  0A        ASL 
  $8FDA  0A        ASL 
  $8FDB  0A        ASL 
  $8FDC  0A        ASL 
  $8FDD  19 28 06  ORA $0628,Y
  $8FE0  9D 2D 06  STA $062D,X
  $8FE3  95 62     STA $62,X
  $8FE5  88        DEY 
  $8FE6  88        DEY 
  $8FE7  CA        DEX 
  $8FE8  10 EC     BPL $8FD6
  $8FEA  A0 00     LDY #$00
  $8FEC  A2 00     LDX #$00
  $8FEE  BD 5E 06  LDA $065E,X
  $8FF1  85 05     STA $05
  $8FF3  E8        INX 
  $8FF4  BD 5E 06  LDA $065E,X
  $8FF7  85 06     STA $06
  $8FF9  E8        INX 
  $8FFA  BD 5E 06  LDA $065E,X
  $8FFD  85 07     STA $07
  $8FFF  E8        INX 
  $9000  C8        INY 
  $9001  20 93 90  JSR $9093
  $9004  F0 0B     BEQ $9011
  $9006  90 09     BCC $9011
  $9008  C0 0A     CPY #$0A
  $900A  90 E2     BCC $8FEE
  $900C  A0 00     LDY #$00
  $900E  18        CLC 
  $900F  90 01     BCC $9012
  $9011  38        SEC 
  $9012  8C 19 06  STY $0619
  $9015  60        RTS 
  $9016  A9 00     LDA #$00
  $9018  A4 5D     LDY $5D
  $901A  88        DEY 
  $901B  30 05     BMI $9022
  $901D  18        CLC 
  $901E  69 03     ADC #$03
  $9020  D0 F8     BNE $901A
  $9022  A4 5E     LDY $5E
  $9024  F0 03     BEQ $9029
  $9026  18        CLC 
  $9027  69 15     ADC #$15
  $9029  A8        TAY 
  $902A  A2 00     LDX #$00
  $902C  B9 30 06  LDA $0630,Y
  $902F  95 05     STA $05,X
  $9031  C8        INY 
  $9032  E8        INX 
  $9033  E0 03     CPX #$03
  $9035  90 F5     BCC $902C
  $9037  60        RTS 
  $9038  20 16 90  JSR $9016
  $903B  A2 04     LDX #$04
  $903D  20 44 90  JSR $9044
  $9040  CA        DEX 
  $9041  D0 FA     BNE $903D
  $9043  60        RTS 
  $9044  AC 5C 06  LDY $065C
  $9047  A5 5D     LDA $5D
  $9049  C9 04     CMP #$04
  $904B  90 03     BCC $9050
  $904D  AC 5D 06  LDY $065D
  $9050  B9 ED 80  LDA $80ED,Y
  $9053  85 02     STA $02
  $9055  B9 EF 80  LDA $80EF,Y
  $9058  85 03     STA $03
  $905A  A5 5D     LDA $5D
  $905C  18        CLC 
  $905D  6D 13 06  ADC $0613
  $9060  C9 0A     CMP #$0A
  $9062  90 02     BCC $9066
  $9064  A9 0A     LDA #$0A
  $9066  0A        ASL 
  $9067  A8        TAY 
  $9068  B1 02     LDA ($02),Y
  $906A  85 00     STA $00
  $906C  C8        INY 
  $906D  B1 02     LDA ($02),Y
  $906F  85 01     STA $01
  $9071  A5 07     LDA $07
  $9073  18        CLC 
  $9074  65 01     ADC $01
  $9076  85 07     STA $07
  $9078  38        SEC 
  $9079  E9 64     SBC #$64
  $907B  90 02     BCC $907F
  $907D  85 07     STA $07
  $907F  A5 06     LDA $06
  $9081  65 00     ADC $00
  $9083  85 06     STA $06
  $9085  38        SEC 
  $9086  E9 3C     SBC #$3C
  $9088  90 02     BCC $908C
  $908A  85 06     STA $06
  $908C  A5 05     LDA $05
  $908E  69 00     ADC #$00
  $9090  85 05     STA $05
  $9092  60        RTS 
  $9093  A5 05     LDA $05
  $9095  C5 62     CMP $62
  $9097  D0 0A     BNE $90A3
  $9099  A5 06     LDA $06
  $909B  C5 63     CMP $63
  $909D  D0 04     BNE $90A3
  $909F  A5 07     LDA $07
  $90A1  C5 64     CMP $64
  $90A3  60        RTS 

Stage11FormationPhase0:
  $90A4  A9 10     LDA #$10
  $90A6  85 34     STA $34
  $90A8  A9 30     LDA #$30
  $90AA  85 43     STA $43
  $90AC  A2 07     LDX #$07
  $90AE  BD A5 83  LDA $83A5,X
  $90B1  9D 04 02  STA $0204,X
  $90B4  CA        DEX 
  $90B5  10 F7     BPL $90AE
  $90B7  A9 10     LDA #$10
  $90B9  85 FD     STA $FD
  $90BB  60        RTS 

Level11Init:
  $90BC  A5 34     LDA $34
  $90BE  D0 07     BNE $90C7
  $90C0  A9 02     LDA #$02
  $90C2  85 41     STA $41
  $90C4  4C EF 8A  JMP StageAdvance
  $90C7  60        RTS 

SoundReset:
  $90C8  A9 00     LDA #$00 ; SoundReset: entry point; LDA #$00 then falls into SoundOff sequence

SoundOff:
  $90CA  8D 15 40  STA $4015 ; SoundOff: STA $4015=$00 (disable all APU channels); STA $5D=$5E=$5F=0; STA $0614=$0F
  $90CD  85 5D     STA $5D
  $90CF  85 5E     STA $5E
  $90D1  85 5F     STA $5F
  $90D3  A9 0F     LDA #$0F
  $90D5  8D 14 06  STA $0614
  $90D8  60        RTS 
  $90D9  A6 5D     LDX $5D
  $90DB  E8        INX 
  $90DC  86 43     STX $43
  $90DE  60        RTS 
  $90DF  A9 03     LDA #$03
  $90E1  85 01     STA $01
  $90E3  A9 00     LDA #$00
  $90E5  85 00     STA $00
  $90E7  A8        TAY 
  $90E8  91 00     STA ($00),Y
  $90EA  88        DEY 
  $90EB  D0 FB     BNE $90E8
  $90ED  E6 01     INC $01
  $90EF  A0 60     LDY #$60
  $90F1  91 00     STA ($00),Y
  $90F3  88        DEY 
  $90F4  10 FB     BPL $90F1
  $90F6  A2 03     LDX #$03
  $90F8  95 62     STA $62,X
  $90FA  CA        DEX 
  $90FB  10 FB     BPL $90F8
  $90FD  85 66     STA $66
  $90FF  60        RTS 
  $9100  A9 0A     LDA #$0A
  $9102  85 43     STA $43
  $9104  A2 7F     LDX #$7F
  $9106  A9 3B     LDA #$3B
  $9108  9D 90 04  STA $0490,X
  $910B  9D 10 05  STA $0510,X
  $910E  9D 90 05  STA $0590,X
  $9111  CA        DEX 
  $9112  10 F4     BPL $9108
  $9114  A9 BF     LDA #$BF
  $9116  8D 00 02  STA $0200
  $9119  A9 F7     LDA #$F7
  $911B  8D 03 02  STA $0203
  $911E  A9 FF     LDA #$FF
  $9120  8D 01 02  STA $0201
  $9123  A9 34     LDA #$34
  $9125  85 E8     STA $E8
  $9127  A9 14     LDA #$14
  $9129  85 E9     STA $E9
  $912B  A9 0A     LDA #$0A
  $912D  85 EB     STA $EB
  $912F  A9 25     LDA #$25
  $9131  85 EA     STA $EA
  $9133  60        RTS 
  $9134  A9 2C     LDA #$2C
  $9136  85 43     STA $43
  $9138  60        RTS 
  $9139  A5 5E     LDA $5E
  $913B  18        CLC 
  $913C  69 33     ADC #$33
  $913E  85 43     STA $43
  $9140  60        RTS 
  $9141  A5 5E     LDA $5E
  $9143  F0 10     BEQ $9155
  $9145  A9 00     LDA #$00
  $9147  85 E4     STA $E4
  $9149  20 71 D1  JSR $D171
  $914C  AA        TAX 
  $914D  20 F9 D2  JSR $D2F9
  $9150  A0 02     LDY #$02
  $9152  20 6E 8F  JSR $8F6E
  $9155  20 38 90  JSR $9038
  $9158  A0 01     LDY #$01
  $915A  4C 6E 8F  JMP $8F6E
  $915D  E6 40     INC $40
  $915F  A5 34     LDA $34
  $9161  D0 02     BNE $9165
  $9163  A9 05     LDA #$05
  $9165  85 34     STA $34
  $9167  A9 A0     LDA #$A0
  $9169  8D 12 06  STA $0612
  $916C  A9 80     LDA #$80
  $916E  8D E1 03  STA $03E1
  $9171  A9 FF     LDA #$FF
  $9173  8D DE 03  STA $03DE
  $9176  A2 01     LDX #$01
  $9178  86 6E     STX $6E
  $917A  8E 80 03  STX $0380
  $917D  E8        INX 
  $917E  8E DF 03  STX $03DF
  $9181  A6 5E     LDX $5E
  $9183  F0 02     BEQ $9187
  $9185  A2 03     LDX #$03
  $9187  BD 21 81  LDA $8121,X
  $918A  95 B0     STA $B0,X
  $918C  A9 08     LDA #$08
  $918E  95 7C     STA $7C,X
  $9190  BD 1D 81  LDA $811D,X
  $9193  95 E0     STA $E0,X
  $9195  BD 25 81  LDA $8125,X
  $9198  95 80     STA $80,X
  $919A  A9 06     LDA #$06
  $919C  95 A8     STA $A8,X
  $919E  95 CC     STA $CC,X
  $91A0  A9 01     LDA #$01
  $91A2  95 84     STA $84,X
  $91A4  95 A4     STA $A4,X
  $91A6  B5 19     LDA $19,X
  $91A8  4A        LSR 
  $91A9  95 C8     STA $C8,X
  $91AB  CA        DEX 
  $91AC  10 D9     BPL $9187
  $91AE  A9 00     LDA #$00
  $91B0  8D 1C 06  STA $061C
  $91B3  AD 1D 06  LDA $061D
  $91B6  F0 05     BEQ $91BD
  $91B8  A9 20     LDA #$20
  $91BA  8D E3 03  STA $03E3
  $91BD  B5 19     LDA $19,X
  $91BF  29 03     AND #$03
  $91C1  D0 02     BNE $91C5
  $91C3  A9 02     LDA #$02
  $91C5  AA        TAX 
  $91C6  56 CC     LSR $CC,X
  $91C8  A2 05     LDX #$05
  $91CA  BD 29 81  LDA Level3SoundInitTable,X
  $91CD  9D 01 03  STA $0301,X
  $91D0  CA        DEX 
  $91D1  10 F7     BPL $91CA
  $91D3  A5 5D     LDA $5D
  $91D5  18        CLC 
  $91D6  6D 13 06  ADC $0613
  $91D9  69 01     ADC #$01
  $91DB  20 A8 AF  JSR DivBy10
  $91DE  8D 05 03  STA $0305
  $91E1  8A        TXA 
  $91E2  F0 03     BEQ $91E7
  $91E4  8E 04 03  STX $0304
  $91E7  60        RTS 

Level3Init:
  $91E8  A2 03     LDX #$03
  $91EA  20 6F AC  JSR $AC6F
  $91ED  20 B8 AF  JSR $AFB8
  $91F0  CA        DEX 
  $91F1  10 F7     BPL $91EA
  $91F3  AD 14 06  LDA $0614
  $91F6  D0 04     BNE $91FC
  $91F8  A5 14     LDA $14
  $91FA  85 74     STA $74
  $91FC  20 B4 A8  JSR $A8B4
  $91FF  20 15 CB  JSR $CB15
  $9202  20 22 CD  JSR $CD22
  $9205  A5 66     LDA $66
  $9207  F0 06     BEQ $920F
  $9209  20 6F 92  JSR $926F
  $920C  4C 28 92  JMP $9228
  $920F  20 71 AD  JSR $AD71
  $9212  A5 5E     LDA $5E
  $9214  F0 06     BEQ $921C
  $9216  20 8F AA  JSR $AA8F
  $9219  20 7A AB  JSR $AB7A
  $921C  20 33 AF  JSR $AF33
  $921F  20 CA CE  JSR $CECA
  $9222  20 DC AF  JSR $AFDC
  $9225  20 DE D6  JSR $D6DE
  $9228  20 B5 AD  JSR $ADB5
  $922B  20 3A 93  JSR $933A
  $922E  20 70 CD  JSR $CD70
  $9231  20 18 CC  JSR $CC18
  $9234  20 4A CE  JSR $CE4A
  $9237  20 F6 E1  JSR $E1F6
  $923A  20 58 92  JSR $9258
  $923D  20 B6 B1  JSR $B1B6
  $9240  20 D7 B4  JSR $B4D7
  $9243  20 D8 A9  JSR $A9D8
  $9246  20 A3 97  JSR $97A3
  $9249  20 2A AE  JSR $AE2A
  $924C  20 CC B3  JSR $B3CC
  $924F  20 ED CA  JSR $CAED
  $9252  20 F0 94  JSR $94F0
  $9255  4C AB B4  JMP $B4AB
  $9258  A5 3F     LDA $3F
  $925A  4A        LSR 
  $925B  B0 06     BCS $9263
  $925D  20 D0 B0  JSR $B0D0
  $9260  4C 53 B5  JMP $B553
  $9263  4A        LSR 
  $9264  B0 06     BCS $926C
  $9266  20 DF AE  JSR $AEDF
  $9269  4C E5 AE  JMP $AEE5
  $926C  4C 07 8F  JMP $8F07
  $926F  A5 32     LDA $32
  $9271  D0 08     BNE $927B
  $9273  A9 02     LDA #$02
  $9275  85 FD     STA $FD
  $9277  A9 10     LDA #$10
  $9279  85 32     STA $32
  $927B  C9 01     CMP #$01
  $927D  D0 09     BNE $9288
  $927F  20 ED 8A  JSR $8AED
  $9282  AD 14 06  LDA $0614
  $9285  D0 5D     BNE $92E4
  $9287  60        RTS 
  $9288  A9 00     LDA #$00
  $928A  85 FC     STA $FC
  $928C  8D B9 03  STA $03B9
  $928F  8D C0 03  STA $03C0
  $9292  85 3C     STA $3C
  $9294  A6 66     LDX $66
  $9296  CA        DEX 
  $9297  D0 EE     BNE $9287
  $9299  A5 3F     LDA $3F
  $929B  4A        LSR 
  $929C  B0 33     BCS $92D1
  $929E  4A        LSR 
  $929F  B0 30     BCS $92D1
  $92A1  29 03     AND #$03
  $92A3  A8        TAY 
  $92A4  A9 3F     LDA #$3F
  $92A6  8D 13 03  STA $0313
  $92A9  A9 00     LDA #$00
  $92AB  8D 14 03  STA $0314
  $92AE  8D 1A 03  STA $031A
  $92B1  A9 04     LDA #$04
  $92B3  8D 15 03  STA $0315
  $92B6  B9 3D 84  LDA $843D,Y
  $92B9  8D 17 03  STA $0317
  $92BC  B9 48 84  LDA $8448,Y
  $92BF  8D 19 03  STA $0319
  $92C2  A4 5D     LDY $5D
  $92C4  B9 36 84  LDA $8436,Y
  $92C7  8D 16 03  STA $0316
  $92CA  B9 41 84  LDA $8441,Y
  $92CD  8D 18 03  STA $0318
  $92D0  60        RTS 
  $92D1  A2 12     LDX #$12
  $92D3  A5 32     LDA $32
  $92D5  4A        LSR 
  $92D6  B0 0B     BCS $92E3
  $92D8  A0 06     LDY #$06
  $92DA  A9 FE     LDA #$FE
  $92DC  9D 04 03  STA $0304,X
  $92DF  E8        INX 
  $92E0  88        DEY 
  $92E1  10 F9     BPL $92DC
  $92E3  60        RTS 
  $92E4  A0 1F     LDY #$1F
  $92E6  A9 00     LDA #$00
  $92E8  95 20     STA $20,X
  $92EA  88        DEY 
  $92EB  10 FB     BPL $92E8
  $92ED  85 41     STA $41
  $92EF  85 FC     STA $FC
  $92F1  E6 44     INC $44
  $92F3  4C EF 8A  JMP StageAdvance
  $92F6  A5 3C     LDA $3C
  $92F8  4A        LSR 
  $92F9  90 32     BCC $932D
  $92FB  A9 20     LDA #$20
  $92FD  05 FD     ORA $FD
  $92FF  85 FD     STA $FD
  $9301  A9 58     LDA #$58
  $9303  85 00     STA $00
  $9305  A2 08     LDX #$08
  $9307  8A        TXA 
  $9308  0A        ASL 
  $9309  0A        ASL 
  $930A  A8        TAY 
  $930B  A9 44     LDA #$44
  $930D  99 C0 02  STA $02C0,Y
  $9310  BD 1D 84  LDA $841D,X
  $9313  99 C1 02  STA $02C1,Y
  $9316  A9 00     LDA #$00
  $9318  99 C2 02  STA $02C2,Y
  $931B  A5 00     LDA $00
  $931D  99 C3 02  STA $02C3,Y
  $9320  18        CLC 
  $9321  69 0A     ADC #$0A
  $9323  85 00     STA $00
  $9325  CA        DEX 
  $9326  10 DF     BPL $9307
  $9328  A9 F8     LDA #$F8
  $932A  8D D0 02  STA $02D0
  $932D  60        RTS 
  $932E  A2 07     LDX #$07
  $9330  BD 26 84  LDA $8426,X
  $9333  9D C0 02  STA $02C0,X
  $9336  CA        DEX 
  $9337  10 F7     BPL $9330
  $9339  60        RTS 
  $933A  A5 6A     LDA $6A
  $933C  F0 1D     BEQ $935B
  $933E  A2 03     LDX #$03
  $9340  B5 A4     LDA $A4,X
  $9342  F0 14     BEQ $9358
  $9344  B5 A0     LDA $A0,X
  $9346  C9 05     CMP #$05
  $9348  F0 0B     BEQ $9355
  $934A  15 9C     ORA $9C,X
  $934C  1D C0 03  ORA $03C0,X
  $934F  F0 04     BEQ $9355
  $9351  A9 00     LDA #$00
  $9353  95 74     STA $74,X
  $9355  20 74 93  JSR $9374
  $9358  CA        DEX 
  $9359  10 E5     BPL $9340
  $935B  A5 34     LDA $34
  $935D  D0 14     BNE $9373
  $935F  A5 74     LDA $74
  $9361  29 C0     AND #$C0
  $9363  F0 0E     BEQ $9373
  $9365  AD B9 03  LDA $03B9
  $9368  05 66     ORA $66
  $936A  D0 07     BNE $9373
  $936C  A9 01     LDA #$01
  $936E  8D B9 03  STA $03B9
  $9371  85 FE     STA $FE
  $9373  60        RTS 
  $9374  B5 74     LDA $74,X
  $9376  29 03     AND #$03
  $9378  85 0A     STA $0A
  $937A  A0 00     LDY #$00
  $937C  BD 84 03  LDA $0384,X
  $937F  15 9C     ORA $9C,X
  $9381  D0 52     BNE $93D5
  $9383  B5 A0     LDA $A0,X
  $9385  F0 04     BEQ $938B
  $9387  C9 05     CMP #$05
  $9389  D0 4A     BNE $93D5
  $938B  8A        TXA 
  $938C  D0 08     BNE $9396
  $938E  A0 02     LDY #$02
  $9390  A5 66     LDA $66
  $9392  D0 21     BNE $93B5
  $9394  A0 00     LDY #$00
  $9396  B5 AC     LDA $AC,X
  $9398  D0 33     BNE $93CD
  $939A  B5 74     LDA $74,X
  $939C  29 C0     AND #$C0
  $939E  F0 35     BEQ $93D5
  $93A0  86 00     STX $00
  $93A2  0A        ASL 
  $93A3  B0 02     BCS $93A7
  $93A5  E6 00     INC $00
  $93A7  20 09 94  JSR $9409
  $93AA  F0 04     BEQ $93B0
  $93AC  B5 98     LDA $98,X
  $93AE  D0 25     BNE $93D5
  $93B0  A4 00     LDY $00
  $93B2  8A        TXA 
  $93B3  D0 12     BNE $93C7
  $93B5  B5 98     LDA $98,X
  $93B7  D9 44 81  CMP $8144,Y
  $93BA  90 0B     BCC $93C7
  $93BC  D0 16     BNE $93D4
  $93BE  B5 94     LDA $94,X
  $93C0  D9 41 81  CMP $8141,Y
  $93C3  F0 13     BEQ $93D8
  $93C5  B0 0D     BCS $93D4
  $93C7  20 48 94  JSR $9448
  $93CA  4C D8 93  JMP $93D8
  $93CD  A0 04     LDY #$04
  $93CF  A5 0A     LDA $0A
  $93D1  F0 02     BEQ $93D5
  $93D3  A8        TAY 
  $93D4  C8        INY 
  $93D5  20 77 94  JSR $9477
  $93D8  B5 9C     LDA $9C,X
  $93DA  D0 5F     BNE $943B
  $93DC  B5 AC     LDA $AC,X
  $93DE  D0 10     BNE $93F0
  $93E0  B5 70     LDA $70,X
  $93E2  05 66     ORA $66
  $93E4  D0 13     BNE $93F9
  $93E6  B5 98     LDA $98,X
  $93E8  D0 06     BNE $93F0
  $93EA  B5 94     LDA $94,X
  $93EC  C9 A0     CMP #$A0
  $93EE  90 09     BCC $93F9
  $93F0  A5 0A     LDA $0A
  $93F2  F0 05     BEQ $93F9
  $93F4  85 00     STA $00
  $93F6  4C A2 94  JMP $94A2
  $93F9  B5 AC     LDA $AC,X
  $93FB  D0 3E     BNE $943B
  $93FD  BD 78 03  LDA $0378,X
  $9400  D5 A8     CMP $A8,X
  $9402  F0 37     BEQ $943B
  $9404  A0 05     LDY #$05
  $9406  4C 96 AC  JMP $AC96
  $9409  B5 C0     LDA $C0,X
  $940B  C9 E4     CMP #$E4
  $940D  F0 12     BEQ $9421
  $940F  A9 03     LDA #$03
  $9411  D5 BC     CMP $BC,X
  $9413  D0 07     BNE $941C
  $9415  BD CC 03  LDA $03CC,X
  $9418  C9 03     CMP #$03
  $941A  B0 05     BCS $9421
  $941C  BD CC 03  LDA $03CC,X
  $941F  D0 1B     BNE $943C
  $9421  A9 01     LDA #$01
  $9423  DD 7C 03  CMP $037C,X
  $9426  F0 04     BEQ $942C
  $9428  0A        ASL 
  $9429  9D 7C 03  STA $037C,X
  $942C  8A        TXA 
  $942D  D0 18     BNE $9447
  $942F  A5 94     LDA $94
  $9431  05 98     ORA $98
  $9433  F0 06     BEQ $943B
  $9435  A9 04     LDA #$04
  $9437  05 FD     ORA $FD
  $9439  85 FD     STA $FD
  $943B  60        RTS 
  $943C  A9 01     LDA #$01
  $943E  DD 7C 03  CMP $037C,X
  $9441  F0 04     BEQ $9447
  $9443  4A        LSR 
  $9444  9D 7C 03  STA $037C,X
  $9447  60        RTS 
  $9448  E4 61     CPX $61
  $944A  D0 18     BNE $9464
  $944C  B9 2F 81  LDA $812F,Y
  $944F  18        CLC 
  $9450  75 94     ADC $94,X
  $9452  95 94     STA $94,X
  $9454  90 02     BCC $9458
  $9456  F6 98     INC $98,X
  $9458  8A        TXA 
  $9459  D0 09     BNE $9464
  $945B  B5 98     LDA $98,X
  $945D  D9 44 81  CMP $8144,Y
  $9460  F0 03     BEQ $9465
  $9462  B0 08     BCS $946C
  $9464  60        RTS 
  $9465  B5 94     LDA $94,X
  $9467  D9 41 81  CMP $8141,Y
  $946A  90 F8     BCC $9464
  $946C  B9 41 81  LDA $8141,Y
  $946F  95 94     STA $94,X
  $9471  B9 44 81  LDA $8144,Y
  $9474  95 98     STA $98,X
  $9476  60        RTS 
  $9477  E4 61     CPX $61
  $9479  D0 26     BNE $94A1
  $947B  84 00     STY $00
  $947D  B5 98     LDA $98,X
  $947F  D0 0B     BNE $948C
  $9481  B5 AC     LDA $AC,X
  $9483  4A        LSR 
  $9484  A8        TAY 
  $9485  B5 94     LDA $94,X
  $9487  D9 3F 81  CMP $813F,Y
  $948A  90 15     BCC $94A1
  $948C  A4 00     LDY $00
  $948E  B5 94     LDA $94,X
  $9490  38        SEC 
  $9491  F9 34 81  SBC $8134,Y
  $9494  95 94     STA $94,X
  $9496  B0 09     BCS $94A1
  $9498  B5 98     LDA $98,X
  $949A  F0 03     BEQ $949F
  $949C  D6 98     DEC $98,X
  $949E  60        RTS 
  $949F  95 94     STA $94,X
  $94A1  60        RTS 
  $94A2  B5 29     LDA $29,X
  $94A4  D0 18     BNE $94BE
  $94A6  B5 AC     LDA $AC,X
  $94A8  4A        LSR 
  $94A9  A8        TAY 
  $94AA  B9 47 81  LDA $8147,Y
  $94AD  95 29     STA $29,X
  $94AF  46 00     LSR $00
  $94B1  90 0C     BCC $94BF
  $94B3  B5 A8     LDA $A8,X
  $94B5  D9 3B 81  CMP $813B,Y
  $94B8  F0 04     BEQ $94BE
  $94BA  90 12     BCC $94CE
  $94BC  D6 A8     DEC $A8,X
  $94BE  60        RTS 
  $94BF  BD 98 03  LDA $0398,X
  $94C2  29 02     AND #$02
  $94C4  9D 98 03  STA $0398,X
  $94C7  B5 A8     LDA $A8,X
  $94C9  D9 3D 81  CMP $813D,Y
  $94CC  B0 03     BCS $94D1
  $94CE  F6 A8     INC $A8,X
  $94D0  60        RTS 
  $94D1  B5 74     LDA $74,X
  $94D3  29 C0     AND #$C0
  $94D5  F0 18     BEQ $94EF
  $94D7  B5 AC     LDA $AC,X
  $94D9  D0 14     BNE $94EF
  $94DB  F6 A8     INC $A8,X
  $94DD  A9 0D     LDA #$0D
  $94DF  95 29     STA $29,X
  $94E1  B5 A8     LDA $A8,X
  $94E3  C9 0D     CMP #$0D
  $94E5  90 08     BCC $94EF
  $94E7  A9 01     LDA #$01
  $94E9  95 9C     STA $9C,X
  $94EB  A9 0A     LDA #$0A
  $94ED  95 25     STA $25,X
  $94EF  60        RTS 
  $94F0  A6 5F     LDX $5F
  $94F2  86 0F     STX $0F
  $94F4  B5 A4     LDA $A4,X
  $94F6  F0 2D     BEQ $9525
  $94F8  B5 9C     LDA $9C,X
  $94FA  15 A0     ORA $A0,X
  $94FC  D0 27     BNE $9525
  $94FE  20 12 96  JSR $9612
  $9501  B5 AC     LDA $AC,X
  $9503  D0 1A     BNE $951F
  $9505  20 F3 95  JSR $95F3
  $9508  20 42 96  JSR $9642
  $950B  D0 18     BNE $9525
  $950D  AD B6 03  LDA $03B6
  $9510  F0 13     BEQ $9525
  $9512  20 29 96  JSR $9629
  $9515  A5 66     LDA $66
  $9517  D0 0C     BNE $9525
  $9519  20 2D 95  JSR $952D
  $951C  4C 25 95  JMP $9525
  $951F  BD 78 03  LDA $0378,X
  $9522  9D D0 03  STA $03D0,X
  $9525  A6 0F     LDX $0F
  $9527  E8        INX 
  $9528  E0 04     CPX #$04
  $952A  90 C6     BCC $94F2
  $952C  60        RTS 
  $952D  B5 84     LDA $84,X
  $952F  4A        LSR 
  $9530  90 FA     BCC $952C
  $9532  BD CC 03  LDA $03CC,X
  $9535  85 02     STA $02
  $9537  A0 02     LDY #$02
  $9539  20 BE 95  JSR $95BE
  $953C  90 13     BCC $9551
  $953E  20 03 96  JSR $9603
  $9541  B5 80     LDA $80,X
  $9543  0A        ASL 
  $9544  90 E6     BCC $952C
  $9546  B5 18     LDA $18,X
  $9548  4A        LSR 
  $9549  B0 03     BCS $954E
  $954B  4C 6D 95  JMP $956D
  $954E  4C 8B 95  JMP $958B
  $9551  B5 8C     LDA $8C,X
  $9553  D0 5A     BNE $95AF
  $9555  B5 84     LDA $84,X
  $9557  4A        LSR 
  $9558  90 55     BCC $95AF
  $955A  B5 80     LDA $80,X
  $955C  C9 F0     CMP #$F0
  $955E  B0 4F     BCS $95AF
  $9560  0A        ASL 
  $9561  90 4C     BCC $95AF
  $9563  B5 19     LDA $19,X
  $9565  C9 E0     CMP #$E0
  $9567  90 46     BCC $95AF
  $9569  C9 F8     CMP #$F8
  $956B  90 1E     BCC $958B
  $956D  BC 70 03  LDY $0370,X
  $9570  88        DEY 
  $9571  C0 01     CPY #$01
  $9573  30 1C     BMI $9591
  $9575  20 B0 95  JSR $95B0
  $9578  B0 35     BCS $95AF
  $957A  BC CC 03  LDY $03CC,X
  $957D  C8        INY 
  $957E  84 02     STY $02
  $9580  A0 00     LDY #$00
  $9582  20 BE 95  JSR $95BE
  $9585  B0 28     BCS $95AF
  $9587  A9 01     LDA #$01
  $9589  D0 22     BNE $95AD
  $958B  B5 C0     LDA $C0,X
  $958D  C9 E6     CMP #$E6
  $958F  F0 DC     BEQ $956D
  $9591  BC 70 03  LDY $0370,X
  $9594  C8        INY 
  $9595  C0 05     CPY #$05
  $9597  10 D4     BPL $956D
  $9599  20 B0 95  JSR $95B0
  $959C  B0 11     BCS $95AF
  $959E  BC CC 03  LDY $03CC,X
  $95A1  88        DEY 
  $95A2  84 02     STY $02
  $95A4  A0 00     LDY #$00
  $95A6  20 BE 95  JSR $95BE
  $95A9  B0 04     BCS $95AF
  $95AB  A9 FF     LDA #$FF
  $95AD  95 8C     STA $8C,X
  $95AF  60        RTS 
  $95B0  20 E1 CB  JSR $CBE1
  $95B3  C9 3B     CMP #$3B
  $95B5  90 05     BCC $95BC
  $95B7  C9 3E     CMP #$3E
  $95B9  B0 01     BCS $95BC
  $95BB  60        RTS 
  $95BC  38        SEC 
  $95BD  60        RTS 
  $95BE  B5 80     LDA $80,X
  $95C0  18        CLC 
  $95C1  79 49 81  ADC $8149,Y
  $95C4  85 00     STA $00
  $95C6  38        SEC 
  $95C7  F9 4A 81  SBC $814A,Y
  $95CA  85 01     STA $01
  $95CC  A4 5F     LDY $5F
  $95CE  C4 0F     CPY $0F
  $95D0  F0 1A     BEQ $95EC
  $95D2  B9 84 00  LDA $0084,Y
  $95D5  4A        LSR 
  $95D6  90 14     BCC $95EC
  $95D8  B9 CC 03  LDA $03CC,Y
  $95DB  F0 0F     BEQ $95EC
  $95DD  C5 02     CMP $02
  $95DF  D0 0B     BNE $95EC
  $95E1  B9 80 00  LDA $0080,Y
  $95E4  C5 00     CMP $00
  $95E6  B0 04     BCS $95EC
  $95E8  C5 01     CMP $01
  $95EA  B0 06     BCS $95F2
  $95EC  C8        INY 
  $95ED  C0 04     CPY #$04
  $95EF  90 DD     BCC $95CE
  $95F1  18        CLC 
  $95F2  60        RTS 
  $95F3  A0 80     LDY #$80
  $95F5  B5 98     LDA $98,X
  $95F7  D5 CC     CMP $CC,X
  $95F9  90 28     BCC $9623
  $95FB  D0 06     BNE $9603
  $95FD  B5 94     LDA $94,X
  $95FF  D5 C8     CMP $C8,X
  $9601  90 20     BCC $9623
  $9603  B5 98     LDA $98,X
  $9605  F0 0A     BEQ $9611
  $9607  A9 0F     LDA #$0F
  $9609  D0 02     BNE $960D
  $960B  A9 F0     LDA #$F0
  $960D  35 74     AND $74,X
  $960F  95 74     STA $74,X
  $9611  60        RTS 
  $9612  20 0B 96  JSR $960B
  $9615  A0 01     LDY #$01
  $9617  BD D0 03  LDA $03D0,X
  $961A  F0 0C     BEQ $9628
  $961C  D5 A8     CMP $A8,X
  $961E  F0 08     BEQ $9628
  $9620  90 01     BCC $9623
  $9622  C8        INY 
  $9623  98        TYA 
  $9624  15 74     ORA $74,X
  $9626  95 74     STA $74,X
  $9628  60        RTS 
  $9629  A0 00     LDY #$00
  $962B  E0 03     CPX #$03
  $962D  F0 0F     BEQ $963E
  $962F  B5 80     LDA $80,X
  $9631  29 10     AND #$10
  $9633  F0 0C     BEQ $9641
  $9635  B5 1A     LDA $1A,X
  $9637  C9 C0     CMP #$C0
  $9639  90 06     BCC $9641
  $963B  D0 01     BNE $963E
  $963D  C8        INY 
  $963E  20 03 AB  JSR $AB03
  $9641  60        RTS 
  $9642  A9 00     LDA #$00
  $9644  85 09     STA $09
  $9646  85 0D     STA $0D
  $9648  8A        TXA 
  $9649  0A        ASL 
  $964A  0A        ASL 
  $964B  85 0A     STA $0A
  $964D  A0 03     LDY #$03
  $964F  84 0B     STY $0B
  $9651  A4 0A     LDY $0A
  $9653  B9 60 03  LDA $0360,Y
  $9656  C9 C0     CMP #$C0
  $9658  F0 28     BEQ $9682
  $965A  C9 C1     CMP #$C1
  $965C  F0 24     BEQ $9682
  $965E  C9 70     CMP #$70
  $9660  90 04     BCC $9666
  $9662  C9 74     CMP #$74
  $9664  90 1C     BCC $9682
  $9666  C9 48     CMP #$48
  $9668  90 04     BCC $966E
  $966A  C9 4B     CMP #$4B
  $966C  90 60     BCC $96CE
  $966E  E6 0A     INC $0A
  $9670  A4 0B     LDY $0B
  $9672  88        DEY 
  $9673  10 DA     BPL $964F
  $9675  A0 00     LDY #$00
  $9677  B5 70     LDA $70,X
  $9679  D0 03     BNE $967E
  $967B  BC 78 03  LDY $0378,X
  $967E  98        TYA 
  $967F  4C D0 96  JMP $96D0
  $9682  E6 0D     INC $0D
  $9684  A5 0A     LDA $0A
  $9686  29 03     AND #$03
  $9688  A8        TAY 
  $9689  C8        INY 
  $968A  98        TYA 
  $968B  18        CLC 
  $968C  75 E0     ADC $E0,X
  $968E  29 3F     AND #$3F
  $9690  85 08     STA $08
  $9692  A9 40     LDA #$40
  $9694  85 09     STA $09
  $9696  BC 70 03  LDY $0370,X
  $9699  88        DEY 
  $969A  C0 01     CPY #$01
  $969C  30 14     BMI $96B2
  $969E  20 E5 CB  JSR $CBE5
  $96A1  A4 07     LDY $07
  $96A3  C9 FA     CMP #$FA
  $96A5  F0 0B     BEQ $96B2
  $96A7  20 B3 95  JSR $95B3
  $96AA  B0 ED     BCS $9699
  $96AC  20 6D 95  JSR $956D
  $96AF  4C 75 96  JMP $9675
  $96B2  BC 70 03  LDY $0370,X
  $96B5  C8        INY 
  $96B6  C0 06     CPY #$06
  $96B8  10 BB     BPL $9675
  $96BA  20 E5 CB  JSR $CBE5
  $96BD  A4 07     LDY $07
  $96BF  C9 E4     CMP #$E4
  $96C1  F0 B2     BEQ $9675
  $96C3  20 B3 95  JSR $95B3
  $96C6  B0 ED     BCS $96B5
  $96C8  20 91 95  JSR $9591
  $96CB  4C 75 96  JMP $9675
  $96CE  A9 09     LDA #$09
  $96D0  9D D0 03  STA $03D0,X
  $96D3  A5 0D     LDA $0D
  $96D5  60        RTS 

CalcSpeedTiers:
  $96D6  A2 03     LDX #$03 ; CalcSpeedTiers: X=3..0; compute speed tier 5..0 for each entity from $B0
  $96D8  A0 05     LDY #$05
  $96DA  B5 B0     LDA $B0,X
  $96DC  38        SEC 
  $96DD  E9 10     SBC #$10
  $96DF  30 08     BMI $96E9
  $96E1  88        DEY 
  $96E2  F0 05     BEQ $96E9
  $96E4  38        SEC 
  $96E5  E9 08     SBC #$08
  $96E7  10 F8     BPL $96E1
  $96E9  98        TYA 
  $96EA  9D 70 03  STA $0370,X
  $96ED  CA        DEX 
  $96EE  10 E8     BPL $96D8
  $96F0  60        RTS 

FormationDataLoad:
  $96F1  A2 03     LDX #$03 ; FormationDataLoad: X=3..0; for each entity slot read 4 bytes from current stage source via ptr $03/$C0
  $96F3  8A        TXA 
  $96F4  0A        ASL 
  $96F5  0A        ASL 
  $96F6  85 0C     STA $0C
  $96F8  A9 04     LDA #$04
  $96FA  85 0B     STA $0B
  $96FC  20 DE CB  JSR $CBDE
  $96FF  95 C0     STA $C0,X
  $9701  4C 08 97  JMP $9708
  $9704  A4 08     LDY $08
  $9706  B1 03     LDA ($03),Y
  $9708  48        PHA 
  $9709  C8        INY 
  $970A  98        TYA 
  $970B  29 3F     AND #$3F
  $970D  85 08     STA $08
  $970F  A4 0C     LDY $0C
  $9711  68        PLA 
  $9712  99 60 03  STA $0360,Y
  $9715  E6 0C     INC $0C
  $9717  C6 0B     DEC $0B
  $9719  D0 E9     BNE $9704
  $971B  CA        DEX 
  $971C  10 D5     BPL $96F3
  $971E  60        RTS 

HQSpriteInit:
  $971F  A9 56     LDA #$56 ; HQSpriteInit: set $00/$01=$2356(PPU nametable dst); $02/$03=$0400(RAM src); $0400=$17 $0402=$0405=$FB; copy $0409-$040F→$0401-$0407; JMP BuildPPUWriteQueue($992E)
  $9721  85 00     STA $00
  $9723  A9 23     LDA #$23
  $9725  85 01     STA $01
  $9727  A2 06     LDX #$06
  $9729  BD 09 04  LDA $0409,X
  $972C  9D 01 04  STA $0401,X
  $972F  CA        DEX 
  $9730  10 F7     BPL $9729
  $9732  A9 17     LDA #$17
  $9734  8D 00 04  STA $0400
  $9737  A9 00     LDA #$00
  $9739  85 02     STA $02
  $973B  A9 04     LDA #$04
  $973D  85 03     STA $03
  $973F  A9 FB     LDA #$FB
  $9741  8D 02 04  STA $0402
  $9744  8D 05 04  STA $0405
  $9747  4C 2E 99  JMP BuildPPUWriteQueue

PPUQueueHeadInit:
  $974A  A9 12     LDA #$12
  $974C  8D 00 03  STA $0300
  $974F  A2 00     LDX #$00
  $9751  8E 13 03  STX $0313
  $9754  60        RTS 
  $9755  A2 00     LDX #$00
  $9757  20 26 CF  JSR $CF26
  $975A  A2 04     LDX #$04
  $975C  20 26 CF  JSR $CF26
  $975F  A2 08     LDX #$08
  $9761  4C 26 CF  JMP $CF26

LevelScreenInit:
  $9764  AD 02 20  LDA $2002 ; LevelScreenInit: wait VBlank
  $9767  29 40     AND #$40
  $9769  D0 F9     BNE LevelScreenInit
  $976B  20 D1 97  JSR WritePPUCtrlScroll6B
  $976E  A5 3F     LDA $3F
  $9770  29 03     AND #$03
  $9772  85 61     STA $61
  $9774  20 5A D6  JSR $D65A
  $9777  20 2F D6  JSR $D62F
  $977A  20 C7 D6  JSR $D6C7
  $977D  20 FE D6  JSR $D6FE
  $9780  20 4A 97  JSR PPUQueueHeadInit
  $9783  A9 F8     LDA #$F8
  $9785  A0 EC     LDY #$EC
  $9787  99 00 02  STA $0200,Y
  $978A  88        DEY 
  $978B  88        DEY 
  $978C  88        DEY 
  $978D  88        DEY 
  $978E  D0 F7     BNE $9787
  $9790  20 F1 96  JSR FormationDataLoad
  $9793  20 1F 97  JSR HQSpriteInit
  $9796  A2 22     LDX #$22
  $9798  A0 12     LDY #$12
  $979A  88        DEY 
  $979B  D0 FD     BNE $979A
  $979D  CA        DEX 
  $979E  D0 F8     BNE $9798
  $97A0  4C BC 97  JMP WritePPUCtrlScroll12
  $97A3  AD 02 20  LDA $2002
  $97A6  29 40     AND #$40
  $97A8  F0 F9     BEQ $97A3
  $97AA  A5 10     LDA $10
  $97AC  29 F0     AND #$F0
  $97AE  20 47 87  JSR WritePPUCtrl

ResetScrollToZero:
  $97B1  AD 02 20  LDA $2002 ; ResetScrollToZero: LDA $2002 (reset latch); write #$00 twice to $2005 → scroll(0
  $97B4  A9 00     LDA #$00
  $97B6  8D 05 20  STA $2005
  $97B9  4C CD 97  JMP WriteScrollY

WritePPUCtrlScroll12:
  $97BC  A5 10     LDA $10 ; WritePPUCtrlScroll12: STA $2000 from $10 OR $68; LDA $2002; write $12 then $13 to $2005 (X/Y scroll from ZP)
  $97BE  05 68     ORA $68
  $97C0  8D 00 20  STA $2000

WriteScroll12:
  $97C3  AD 02 20  LDA $2002
  $97C6  A5 12     LDA $12
  $97C8  8D 05 20  STA $2005
  $97CB  A5 13     LDA $13

WriteScrollY:
  $97CD  8D 05 20  STA $2005
  $97D0  60        RTS 

WritePPUCtrlScroll6B:
  $97D1  A5 10     LDA $10 ; WritePPUCtrlScroll6B: STA $2000 from $10 OR $69; LDA $2002; write $6B then $6C to $2005 (X/Y scroll from ZP)
  $97D3  05 69     ORA $69
  $97D5  8D 00 20  STA $2000
  $97D8  AD 02 20  LDA $2002
  $97DB  A5 6B     LDA $6B
  $97DD  8D 05 20  STA $2005
  $97E0  A5 6C     LDA $6C
  $97E2  4C CD 97  JMP WriteScrollY

VBlankScrollApply6B:
  $97E5  AD 02 20  LDA $2002 ; VBlankScrollApply6B: wait $2002 bit7 (VBlank); LDA$10 AND#$FE; JSR$97D3 (PPUCtrl+scroll$6B/$6C); extract $3F bits1-0→$61; delay loop; reconstruct $10→$2000; JMP WriteScroll12
  $97E8  29 80     AND #$80
  $97EA  D0 F9     BNE VBlankScrollApply6B
  $97EC  A5 10     LDA $10
  $97EE  29 FE     AND #$FE
  $97F0  20 D3 97  JSR $97D3
  $97F3  A5 3F     LDA $3F
  $97F5  29 03     AND #$03
  $97F7  85 61     STA $61
  $97F9  A2 70     LDX #$70
  $97FB  A0 12     LDY #$12
  $97FD  88        DEY 
  $97FE  D0 FD     BNE $97FD
  $9800  CA        DEX 
  $9801  D0 F8     BNE $97FB

PPUCtrlRefreshScroll12:
  $9803  A5 10     LDA $10 ; PPUCtrlRefreshScroll12: LDA$10 AND#$7C OR$68→$10→$2000; JMP WriteScroll12($97C3) — per-frame PPU ctrl + scroll refresh
  $9805  29 7C     AND #$7C
  $9807  05 68     ORA $68
  $9809  85 10     STA $10
  $980B  8D 00 20  STA $2000
  $980E  4C C3 97  JMP WriteScroll12

SpriteTileDraw:
  $9811  85 0A     STA $0A
  $9813  8A        TXA 
  $9814  48        PHA 
  $9815  98        TYA 
  $9816  48        PHA 
  $9817  A9 02     LDA #$02
  $9819  85 05     STA $05
  $981B  A9 0F     LDA #$0F
  $981D  25 03     AND $03
  $981F  85 07     STA $07
  $9821  A5 03     LDA $03
  $9823  4A        LSR 
  $9824  4A        LSR 
  $9825  4A        LSR 
  $9826  4A        LSR 
  $9827  85 06     STA $06
  $9829  AA        TAX 
  $982A  A9 00     LDA #$00
  $982C  18        CLC 
  $982D  65 07     ADC $07
  $982F  CA        DEX 
  $9830  D0 FB     BNE $982D
  $9832  85 08     STA $08
  $9834  A5 02     LDA $02
  $9836  A0 01     LDY #$01
  $9838  8A        TXA 
  $9839  4A        LSR 
  $983A  B0 0A     BCS $9846
  $983C  46 0A     LSR $0A
  $983E  90 06     BCC $9846
  $9840  A9 FC     LDA #$FC
  $9842  91 04     STA ($04),Y
  $9844  D0 06     BNE $984C
  $9846  A5 02     LDA $02
  $9848  91 04     STA ($04),Y
  $984A  E6 02     INC $02
  $984C  C8        INY 
  $984D  A5 0B     LDA $0B
  $984F  91 04     STA ($04),Y
  $9851  C8        INY 
  $9852  C8        INY 
  $9853  C8        INY 
  $9854  E8        INX 
  $9855  E4 08     CPX $08
  $9857  D0 DF     BNE $9838
  $9859  A5 07     LDA $07
  $985B  85 0A     STA $0A
  $985D  A0 00     LDY #$00
  $985F  A6 06     LDX $06
  $9861  A5 01     LDA $01
  $9863  85 09     STA $09
  $9865  A5 09     LDA $09
  $9867  91 04     STA ($04),Y
  $9869  18        CLC 
  $986A  69 08     ADC #$08
  $986C  85 09     STA $09
  $986E  C8        INY 
  $986F  C8        INY 
  $9870  C8        INY 
  $9871  A5 00     LDA $00
  $9873  91 04     STA ($04),Y
  $9875  C8        INY 
  $9876  CA        DEX 
  $9877  D0 EC     BNE $9865
  $9879  C6 0A     DEC $0A
  $987B  F0 0A     BEQ $9887
  $987D  A5 00     LDA $00
  $987F  18        CLC 
  $9880  69 08     ADC #$08
  $9882  85 00     STA $00
  $9884  4C 5F 98  JMP $985F
  $9887  68        PLA 
  $9888  A8        TAY 
  $9889  68        PLA 
  $988A  AA        TAX 
  $988B  60        RTS 

SpriteFillHelper:
  $988C  8A        TXA 
  $988D  48        PHA 
  $988E  A0 00     LDY #$00
  $9890  A6 06     LDX $06
  $9892  A5 01     LDA $01
  $9894  85 09     STA $09
  $9896  A5 09     LDA $09
  $9898  91 04     STA ($04),Y
  $989A  18        CLC 
  $989B  69 08     ADC #$08
  $989D  85 09     STA $09
  $989F  C8        INY 
  $98A0  C8        INY 
  $98A1  B1 04     LDA ($04),Y
  $98A3  09 40     ORA #$40
  $98A5  91 04     STA ($04),Y
  $98A7  C8        INY 
  $98A8  A5 00     LDA $00
  $98AA  91 04     STA ($04),Y
  $98AC  C8        INY 
  $98AD  CA        DEX 
  $98AE  D0 E6     BNE $9896
  $98B0  A5 00     LDA $00
  $98B2  38        SEC 
  $98B3  E9 08     SBC #$08
  $98B5  85 00     STA $00
  $98B7  C6 07     DEC $07
  $98B9  D0 D5     BNE $9890
  $98BB  68        PLA 
  $98BC  AA        TAX 
  $98BD  60        RTS 

ClearNametablesInit:
  $98BE  A9 00     LDA #$00 ; ClearNametablesInit: clear $0300+$0301; loop X=1→3: JSR DisableRendering($98DA) + JSR ClearNametableSlot($98EB) for nametables $20/$24/$28
  $98C0  8D 00 03  STA $0300
  $98C3  8D 01 03  STA $0301
  $98C6  A2 01     LDX #$01
  $98C8  8A        TXA 
  $98C9  48        PHA 
  $98CA  85 01     STA $01
  $98CC  20 DA 98  JSR DisableRendering
  $98CF  20 EB 98  JSR ClearNametableSlot
  $98D2  68        PLA 
  $98D3  AA        TAX 
  $98D4  E8        INX 
  $98D5  E0 04     CPX #$04
  $98D7  90 EF     BCC $98C8
  $98D9  60        RTS 

DisableRendering:
  $98DA  A9 00     LDA #$00 ; DisableRendering: LDA #$00 / STA $2001 / RTS — turns off both BG and sprite rendering
  $98DC  8D 01 20  STA $2001
  $98DF  60        RTS 

HideAllSprites:
  $98E0  A9 F8     LDA #$F8 ; HideAllSprites: LDA #$F8 / LDY #$00 / STA $0200
  $98E2  A0 00     LDY #$00
  $98E4  99 00 02  STA $0200,Y
  $98E7  88        DEY 
  $98E8  D0 FA     BNE $98E4
  $98EA  60        RTS 

ClearNametableSlot:
  $98EB  AD 02 20  LDA $2002 ; ClearNametableSlot: reset PPU latch; clear $10 bit2 → WritePPUCtrl; compute nametable base $1C+(4*$01)→$02; write 1024 bytes of $FC (patterned in bank 1
  $98EE  A5 10     LDA $10
  $98F0  29 FB     AND #$FB
  $98F2  20 47 87  JSR WritePPUCtrl
  $98F5  A9 1C     LDA #$1C
  $98F7  18        CLC 
  $98F8  69 04     ADC #$04
  $98FA  C6 01     DEC $01
  $98FC  D0 FA     BNE $98F8
  $98FE  85 02     STA $02
  $9900  8D 06 20  STA $2006
  $9903  A9 00     LDA #$00
  $9905  8D 06 20  STA $2006
  $9908  A2 04     LDX #$04
  $990A  A0 00     LDY #$00
  $990C  A9 FC     LDA #$FC
  $990E  8D 07 20  STA $2007
  $9911  88        DEY 
  $9912  D0 FA     BNE $990E
  $9914  CA        DEX 
  $9915  D0 F7     BNE $990E
  $9917  A5 02     LDA $02
  $9919  69 03     ADC #$03
  $991B  8D 06 20  STA $2006
  $991E  A9 C0     LDA #$C0
  $9920  8D 06 20  STA $2006
  $9923  A0 40     LDY #$40
  $9925  A9 00     LDA #$00
  $9927  8D 07 20  STA $2007
  $992A  88        DEY 
  $992B  D0 FA     BNE $9927
  $992D  60        RTS 

BuildPPUWriteQueue:
  $992E  8A        TXA  ; BuildPPUWriteQueue: read byte from ($02)[Y]; lo-nibble=row_count; hi-nibble=col_count; write PPU-addr-hi/lo + tile data to $0301+ cmd buffer; advance src by $20 per column group; terminates with $00 sentinel
  $992F  48        PHA 
  $9930  98        TYA 
  $9931  48        PHA 
  $9932  A0 00     LDY #$00
  $9934  B1 02     LDA ($02),Y
  $9936  29 0F     AND #$0F
  $9938  85 05     STA $05
  $993A  B1 02     LDA ($02),Y
  $993C  4A        LSR 
  $993D  4A        LSR 
  $993E  4A        LSR 
  $993F  4A        LSR 
  $9940  85 04     STA $04
  $9942  AE 00 03  LDX $0300
  $9945  A5 01     LDA $01
  $9947  9D 01 03  STA $0301,X
  $994A  20 8A 99  JSR BuildPPUWriteQueueAdvance
  $994D  A5 00     LDA $00
  $994F  9D 01 03  STA $0301,X
  $9952  20 8A 99  JSR BuildPPUWriteQueueAdvance
  $9955  A5 05     LDA $05
  $9957  85 06     STA $06
  $9959  9D 01 03  STA $0301,X
  $995C  20 8A 99  JSR BuildPPUWriteQueueAdvance
  $995F  C8        INY 
  $9960  B1 02     LDA ($02),Y
  $9962  9D 01 03  STA $0301,X
  $9965  C6 06     DEC $06
  $9967  D0 F3     BNE $995C
  $9969  20 8A 99  JSR BuildPPUWriteQueueAdvance
  $996C  8E 00 03  STX $0300
  $996F  18        CLC 
  $9970  A9 20     LDA #$20
  $9972  65 00     ADC $00
  $9974  85 00     STA $00
  $9976  A9 00     LDA #$00
  $9978  65 01     ADC $01
  $997A  85 01     STA $01
  $997C  C6 04     DEC $04
  $997E  D0 C5     BNE $9945
  $9980  A9 00     LDA #$00
  $9982  9D 01 03  STA $0301,X
  $9985  68        PLA 
  $9986  A8        TAY 
  $9987  68        PLA 
  $9988  AA        TAX 
  $9989  60        RTS 

BuildPPUWriteQueueAdvance:
  $998A  E8        INX 
  $998B  8A        TXA 
  $998C  C9 3F     CMP #$3F
  $998E  90 0A     BCC $999A
  $9990  AE 00 03  LDX $0300
  $9993  A9 00     LDA #$00
  $9995  9D 01 03  STA $0301,X
  $9998  68        PLA 
  $9999  68        PLA 
  $999A  60        RTS 
  $999B  A2 0E     LDX #$0E
  $999D  C6 20     DEC $20
  $999F  10 06     BPL $99A7
  $99A1  A9 0A     LDA #$0A
  $99A3  85 20     STA $20
  $99A5  A2 1C     LDX #$1C
  $99A7  B5 21     LDA $21,X
  $99A9  F0 02     BEQ $99AD
  $99AB  D6 21     DEC $21,X
  $99AD  CA        DEX 
  $99AE  10 F7     BPL $99A7
  $99B0  60        RTS 
  $99B1  A5 18     LDA $18
  $99B3  29 02     AND #$02
  $99B5  85 00     STA $00
  $99B7  A5 19     LDA $19
  $99B9  29 02     AND #$02
  $99BB  45 00     EOR $00
  $99BD  18        CLC 
  $99BE  F0 01     BEQ $99C1
  $99C0  38        SEC 
  $99C1  66 18     ROR $18
  $99C3  66 19     ROR $19
  $99C5  66 1A     ROR $1A
  $99C7  66 1B     ROR $1B
  $99C9  66 1C     ROR $1C
  $99CB  66 1D     ROR $1D
  $99CD  66 1E     ROR $1E
  $99CF  66 1F     ROR $1F
  $99D1  60        RTS 

ControllerDoubleRead:
  $99D2  A5 14     LDA $14 ; ControllerDoubleRead: latch $4016 high then low (NES strobe); double-reads $4016/$4017 for glitch filter; packs 8 bits into $06 (P1Dir) / $07 (P2Dir); called from $85C0 (title screen) and $8650 (per-frame gameplay)
  $99D4  85 05     STA $05
  $99D6  A5 16     LDA $16
  $99D8  85 06     STA $06
  $99DA  20 23 9A  JSR StrobeControllers
  $99DD  A5 14     LDA $14
  $99DF  85 03     STA $03
  $99E1  A5 16     LDA $16
  $99E3  85 04     STA $04
  $99E5  20 23 9A  JSR StrobeControllers
  $99E8  A5 16     LDA $16
  $99EA  85 17     STA $17
  $99EC  C5 04     CMP $04
  $99EE  D0 ED     BNE $99DD
  $99F0  A5 14     LDA $14
  $99F2  85 15     STA $15
  $99F4  C5 03     CMP $03
  $99F6  D0 E5     BNE $99DD
  $99F8  29 C0     AND #$C0
  $99FA  F0 0A     BEQ $9A06
  $99FC  24 05     BIT $05
  $99FE  F0 06     BEQ $9A06
  $9A00  A5 14     LDA $14
  $9A02  29 3F     AND #$3F
  $9A04  85 15     STA $15
  $9A06  A5 16     LDA $16
  $9A08  29 C0     AND #$C0
  $9A0A  F0 0A     BEQ $9A16
  $9A0C  24 06     BIT $06
  $9A0E  F0 06     BEQ $9A16
  $9A10  A5 16     LDA $16
  $9A12  29 3F     AND #$3F
  $9A14  85 17     STA $17
  $9A16  A5 14     LDA $14
  $9A18  05 16     ORA $16
  $9A1A  85 14     STA $14
  $9A1C  A5 15     LDA $15
  $9A1E  05 17     ORA $17
  $9A20  85 15     STA $15
  $9A22  60        RTS 

StrobeControllers:
  $9A23  A5 59     LDA $59
  $9A25  09 01     ORA #$01
  $9A27  8D 16 40  STA $4016
  $9A2A  85 59     STA $59
  $9A2C  A2 00     LDX #$00
  $9A2E  A5 59     LDA $59
  $9A30  29 FE     AND #$FE
  $9A32  8D 16 40  STA $4016
  $9A35  85 59     STA $59
  $9A37  20 3F 9A  JSR ReadControllerBits
  $9A3A  E8        INX 
  $9A3B  20 3F 9A  JSR ReadControllerBits
  $9A3E  60        RTS 

ReadControllerBits:
  $9A3F  A0 08     LDY #$08
  $9A41  48        PHA 
  $9A42  BD 16 40  LDA $4016,X
  $9A45  85 00     STA $00
  $9A47  4A        LSR 
  $9A48  05 00     ORA $00
  $9A4A  4A        LSR 
  $9A4B  68        PLA 
  $9A4C  2A        ROL 
  $9A4D  88        DEY 
  $9A4E  D0 F1     BNE $9A41
  $9A50  86 00     STX $00
  $9A52  06 00     ASL $00
  $9A54  A6 00     LDX $00
  $9A56  B4 14     LDY $14,X
  $9A58  84 00     STY $00
  $9A5A  95 14     STA $14,X
  $9A5C  95 15     STA $15,X
  $9A5E  29 C0     AND #$C0
  $9A60  F0 0A     BEQ $9A6C
  $9A62  24 00     BIT $00
  $9A64  F0 06     BEQ $9A6C
  $9A66  B5 14     LDA $14,X
  $9A68  29 3F     AND #$3F
  $9A6A  95 15     STA $15,X
  $9A6C  60        RTS 
  $9A6D  8D 06 20  STA $2006
  $9A70  C8        INY 
  $9A71  B1 00     LDA ($00),Y
  $9A73  8D 06 20  STA $2006
  $9A76  C8        INY 
  $9A77  B1 00     LDA ($00),Y
  $9A79  0A        ASL 
  $9A7A  48        PHA 
  $9A7B  A5 10     LDA $10
  $9A7D  09 04     ORA #$04
  $9A7F  B0 02     BCS $9A83
  $9A81  29 FB     AND #$FB
  $9A83  20 47 87  JSR WritePPUCtrl
  $9A86  68        PLA 
  $9A87  0A        ASL 
  $9A88  90 03     BCC $9A8D
  $9A8A  09 02     ORA #$02
  $9A8C  C8        INY 
  $9A8D  4A        LSR 
  $9A8E  4A        LSR 
  $9A8F  AA        TAX 
  $9A90  B0 01     BCS $9A93
  $9A92  C8        INY 
  $9A93  B1 00     LDA ($00),Y
  $9A95  8D 07 20  STA $2007
  $9A98  CA        DEX 
  $9A99  D0 F5     BNE $9A90
  $9A9B  38        SEC 
  $9A9C  98        TYA 
  $9A9D  65 00     ADC $00
  $9A9F  85 00     STA $00
  $9AA1  A9 00     LDA #$00
  $9AA3  65 01     ADC $01
  $9AA5  85 01     STA $01
  $9AA7  AE 02 20  LDX $2002
  $9AAA  A0 00     LDY #$00
  $9AAC  B1 00     LDA ($00),Y
  $9AAE  D0 BD     BNE $9A6D
  $9AB0  60        RTS 
  $9AB1  3F 00 08  RLA $0800,X
  $9AB4  39 33 02  AND $0233,Y
  $9AB7  36 39     ROL $39,X
  $9AB9  07 22     SLO $22
  $9ABB  17 3F     SLO $3F,X
  $9ABD  10 04     BPL $9AC3
  $9ABF  39 36 33  AND $3336,Y
  $9AC2  14 00     NOP $00,X
  $9AC4  3F 00 08  RLA $0800,X
  $9AC7  23 17     RLA ($17,X)
  $9AC9  1A        NOP 
  $9ACA  36 23     ROL $23,X
  $9ACC  2A        ROL 
  $9ACD  0B        ??? 
  $9ACE  1F 3F 10  SLO $103F,X
  $9AD1  04 23     NOP $23
  $9AD3  36 33     ROL $33,X
  $9AD5  14 00     NOP $00,X
  $9AD7  3F 00 08  RLA $0800,X
  $9ADA  03 17     SLO ($17,X)
  $9ADC  02        ??? 
  $9ADD  36 03     ROL $03,X
  $9ADF  0E 3F 0A  ASL $0A3F
  $9AE2  3F 10 04  RLA $0410,X
  $9AE5  03 36     SLO ($36,X)
  $9AE7  33 14     RLA ($14),Y
  $9AE9  00        BRK 
  $9AEA  3F 00 08  RLA $0800,X
  $9AED  26 17     ROL $17
  $9AEF  32        ??? 
  $9AF0  36 26     ROL $26,X
  $9AF2  17 00     SLO $00,X
  $9AF4  0D 3F 10  ORA $103F
  $9AF7  04 26     NOP $26
  $9AF9  36 33     ROL $33,X
  $9AFB  14 00     NOP $00,X
  $9AFD  3F 00 08  RLA $0800,X
  $9B00  00        BRK 
  $9B01  33 3F     RLA ($3F),Y
  $9B03  0C 00 22  NOP $2200
  $9B06  11 07     ORA ($07),Y
  $9B08  3F 10 04  RLA $0410,X
  $9B0B  00        BRK 
  $9B0C  36 33     ROL $33,X
  $9B0E  14 00     NOP $00,X
  $9B10  3F 00 08  RLA $0800,X
  $9B13  1B 10 17  SLO $1710,Y
  $9B16  36 1B     ROL $1B,X
  $9B18  00        BRK 
  $9B19  09 39     ORA #$39
  $9B1B  3F 10 04  RLA $0410,X
  $9B1E  1B 36 33  SLO $3336,Y
  $9B21  14 00     NOP $00,X
  $9B23  3F 00 08  RLA $0800,X
  $9B26  06 1B     ASL $1B
  $9B28  1A        NOP 
  $9B29  36 06     ROL $06,X
  $9B2B  26 2C     ROL $2C
  $9B2D  08        PHP 
  $9B2E  3F 10 04  RLA $0410,X
  $9B31  06 36     ASL $36
  $9B33  33 14     RLA ($14),Y
  $9B35  00        BRK 
  $9B36  3F 08 08  RLA $0808,X
  $9B39  3C 1A 14  NOP $141A,X
  $9B3C  36 3C     ROL $3C,X
  $9B3E  1A        NOP 
  $9B3F  14 33     NOP $33,X
  $9B41  3F 14 0C  RLA $0C14,X
  $9B44  3C 24 36  NOP $3624,X
  $9B47  14 3C     NOP $3C,X
  $9B49  3B 02 14  RLA $1402,Y
  $9B4C  3C 14 0D  NOP $0D14,X
  $9B4F  33 00     RLA ($00),Y
  $9B51  23 D0     RLA ($D0,X)
  $9B53  60        RTS 
  $9B54  55 23     EOR $23,X
  $9B56  F0 50     BEQ $9BA8
  $9B58  AA        TAX 
  $9B59  23 F1     RLA ($F1,X)
  $9B5B  06 AF     ASL $AF
  $9B5D  AA        TAX 
  $9B5E  AE AB AA  LDX $AAAB
  $9B61  AF 23 F9  LAX $F923
  $9B64  02        ??? 
  $9B65  FE FF 27  INC $27FF,X
  $9B68  D0 60     BNE $9BCA
  $9B6A  55 27     EOR $27,X
  $9B6C  F0 50     BEQ $9BBE
  $9B6E  AA        TAX 
  $9B6F  20 00 60  JSR $6000
  $9B72  3F 20 20  RLA $2020,X
  $9B75  60        RTS 
  $9B76  3E 20 40  ROL $4020,X
  $9B79  60        RTS 
  $9B7A  3F 20 60  RLA $6020,X
  $9B7D  60        RTS 
  $9B7E  3E 20 80  ROL $8020,X
  $9B81  60        RTS 
  $9B82  3F 24 00  RLA $0024,X
  $9B85  60        RTS 
  $9B86  3F 24 20  RLA $2024,X
  $9B89  60        RTS 
  $9B8A  3E 24 40  ROL $4024,X
  $9B8D  60        RTS 
  $9B8E  3F 24 60  RLA $6024,X
  $9B91  60        RTS 
  $9B92  3E 24 80  ROL $8024,X
  $9B95  60        RTS 
  $9B96  3F 20 A0  RLA $A020,X
  $9B99  60        RTS 
  $9B9A  30 20     BMI $9BBC
  $9B9C  C0 60     CPY #$60
  $9B9E  FE 20 E0  INC $E020,X
  $9BA1  60        RTS 
  $9BA2  FE 24 A0  INC $A024,X
  $9BA5  60        RTS 
  $9BA6  30 24     BMI $9BCC
  $9BA8  C0 60     CPY #$60
  $9BAA  FE 24 E0  INC $E024,X
  $9BAD  60        RTS 
  $9BAE  FE 22 00  INC $0022,X
  $9BB1  60        RTS 
  $9BB2  3B 22 20  RLA $2022,Y
  $9BB5  60        RTS 
  $9BB6  3C 22 40  NOP $4022,X
  $9BB9  60        RTS 
  $9BBA  3D 22 60  AND $6022,X
  $9BBD  60        RTS 
  $9BBE  3B 22 80  RLA $8022,Y
  $9BC1  60        RTS 
  $9BC2  3C 22 A0  NOP $A022,X
  $9BC5  60        RTS 
  $9BC6  3D 26 00  AND $0026,X
  $9BC9  60        RTS 
  $9BCA  3B 26 20  RLA $2026,Y
  $9BCD  60        RTS 
  $9BCE  3C 26 40  NOP $4026,X
  $9BD1  60        RTS 
  $9BD2  3D 26 60  AND $6026,X
  $9BD5  60        RTS 
  $9BD6  3B 26 80  RLA $8026,Y
  $9BD9  60        RTS 
  $9BDA  3C 26 A0  NOP $A026,X
  $9BDD  60        RTS 
  $9BDE  3D 23 00  AND $0023,X
  $9BE1  7F FE 23  RRA $23FE,X
  $9BE4  3F 7F FE  RLA $FE7F,X
  $9BE7  23 7E     RLA ($7E,X)
  $9BE9  7F FE 23  RRA $23FE,X
  $9BEC  9D 63 FE  STA $FE63,X
  $9BEF  27 00     RLA $00
  $9BF1  7F FE 23  RRA $23FE,X
  $9BF4  23 07     RLA ($07,X)
  $9BF6  B7 B7     LAX $B7,Y
  $9BF8  05 1D     ORA $1D
  $9BFA  11 B7     ORA ($B7),Y
  $9BFC  B7 23     LAX $23,Y
  $9BFE  22        ??? 
  $9BFF  83 B5     SAX ($B5,X)
  $9C01  B0 B2     BCS $9BB5
  $9C03  23 2A     RLA ($2A,X)
  $9C05  83 B6     SAX ($B6,X)
  $9C07  B1 B4     LDA ($B4),Y
  $9C09  23 63     RLA ($63,X)
  $9C0B  47 B3     SRE $B3
  $9C0D  23 36     RLA ($36,X)
  $9C0F  07 B7     SLO $B7
  $9C11  B7 1D     LAX $1D,Y
  $9C13  12        ??? 
  $9C14  16 0E     ASL $0E,X
  $9C16  B7 23     LAX $23,Y
  $9C18  35 83     AND $83,X
  $9C1A  B5 B0     LDA $B0,X
  $9C1C  B2        ??? 
  $9C1D  23 3D     RLA ($3D,X)
  $9C1F  83 B6     SAX ($B6,X)
  $9C21  B1 B4     LDA ($B4),Y
  $9C23  23 76     RLA ($76,X)
  $9C25  47 B3     SRE $B3
  $9C27  23 2C     RLA ($2C,X)
  $9C29  08        PHP 
  $9C2A  4C 5A 1D  JMP $1D5A
  $9C2D  0E 16 19  ASL $1916
  $9C30  79 8B 23  ADC $238B,Y
  $9C33  4B        ??? 
  $9C34  0A        ASL 
  $9C35  4B        ??? 
  $9C36  4D 5B FC  EOR $FC5B
  $9C39  FC FC FC  NOP $FCFC,X
  $9C3C  7A        NOP 
  $9C3D  4D 8C 23  EOR $238C
  $9C40  6D 06 5C  ADC $5C06
  $9C43  6A        ROR 
  $9C44  6A        ROR 
  $9C45  6A        ROR 
  $9C46  6A        ROR 
  $9C47  7B 23 8D  RRA $8D23,Y
  $9C4A  06 5D     ASL $5D
  $9C4C  6B        ??? 
  $9C4D  6C 6B 6C  JMP ($6C6B)
  $9C50  8A        TXA 
  $9C51  23 82     RLA ($82,X)
  $9C53  04 1D     NOP $1D
  $9C55  18        CLC 
  $9C56  19 3A 23  ORA $233A,Y
  $9C59  94 04     STY $04,X
  $9C5B  22        ??? 
  $9C5C  18        CLC 
  $9C5D  1E 3A 00  ASL $003A,X
  $9C60  24 AB     BIT $AB
  $9C62  83 31     SAX ($31,X)
  $9C64  34 37     NOP $37,X
  $9C66  24 B4     BIT $B4
  $9C68  83 33     SAX ($33,X)
  $9C6A  36 39     ROL $39,X
  $9C6C  24 AC     BIT $AC
  $9C6E  48        PHA 
  $9C6F  32        ??? 
  $9C70  24 EC     BIT $EC
  $9C72  48        PHA 
  $9C73  38        SEC 
  $9C74  24 CC     BIT $CC
  $9C76  08        PHP 
  $9C77  17 12     SLO $12,X
  $9C79  17 1D     SLO $1D,X
  $9C7B  0E 17 0D  ASL $0D17
  $9C7E  18        CLC 
  $9C7F  20 AA 4B  JSR $4BAA
  $9C82  B8        CLV 
  $9C83  20 A9 01  JSR $01A9
  $9C86  96 20     STX $20,Y
  $9C88  B5 01     LDA $01,X
  $9C8A  97 20     SAX $20,Y
  $9C8C  CA        DEX 
  $9C8D  09 0C     ORA #$0C
  $9C8F  11 0A     ORA ($0A),Y
  $9C91  15 15     ORA $15,X
  $9C93  0E 17 10  ASL $1017
  $9C96  0E 00 20  ASL $2000
  $9C99  A9 4C     LDA #$4C
  $9C9B  B8        CLV 
  $9C9C  20 A8 01  JSR $01A8
  $9C9F  96 20     STX $20,Y
  $9CA1  B5 01     LDA $01,X
  $9CA3  97 20     SAX $20,Y
  $9CA5  C9 0A     CMP #$0A
  $9CA7  0E 21 0C  ASL $0C21
  $9CAA  12        ??? 
  $9CAB  1D 0E 0B  ORA $0B0E,X
  $9CAE  12        ??? 
  $9CAF  14 0E     NOP $0E,X
  $9CB1  24 AB     BIT $AB
  $9CB3  4B        ??? 
  $9CB4  B8        CLV 
  $9CB5  24 AA     BIT $AA
  $9CB7  01 96     ORA ($96,X)
  $9CB9  24 B6     BIT $B6
  $9CBB  01 97     ORA ($97,X)
  $9CBD  24 CB     BIT $CB
  $9CBF  03 93     SLO ($93,X)
  $9CC1  94 95     STY $95,X
  $9CC3  00        BRK 
  $9CC4  20 E4 17  JSR $17E4
  $9CC7  22        ??? 
  $9CC8  18        CLC 
  $9CC9  1E 1B FC  ASL $FC1B,X
  $9CCC  1D 12 16  ORA $1612,X
  $9CCF  0E FC 1A  ASL $1AFC
  $9CD2  1E 0A 15  ASL $150A,X
  $9CD5  12        ??? 
  $9CD6  0F 12 0E  SLO $0E12
  $9CD9  1C FC 22  NOP $22FC,X
  $9CDC  18        CLC 
  $9CDD  1E 21 04  ASL $0421,X
  $9CE0  16 0F     ASL $0F,X
  $9CE2  18        CLC 
  $9CE3  1B FC 0E  SLO $0EFC,Y
  $9CE6  21 0C     AND ($0C,X)
  $9CE8  12        ??? 
  $9CE9  1D 0E 0B  ORA $0B0E,X
  $9CEC  12        ??? 
  $9CED  14 0E     NOP $0E,X
  $9CEF  FC 1D 1B  NOP $1B1D,X
  $9CF2  0A        ASL 
  $9CF3  0C 14 FC  NOP $FC14
  $9CF6  2C 00 20  BIT $2000
  $9CF9  E4 17     CPX $17
  $9CFB  22        ??? 
  $9CFC  18        CLC 
  $9CFD  1E 1B FC  ASL $FC1B,X
  $9D00  1D 12 16  ORA $1612,X
  $9D03  0E FC 1A  ASL $1AFC
  $9D06  1E 0A 15  ASL $150A,X
  $9D09  12        ??? 
  $9D0A  0F 12 0E  SLO $0E12
  $9D0D  1C FC 22  NOP $22FC,X
  $9D10  18        CLC 
  $9D11  1E 21 05  ASL $0521,X
  $9D14  15 0F     ORA $0F,X
  $9D16  18        CLC 
  $9D17  1B FC 17  SLO $17FC,Y
  $9D1A  0E 21 1D  ASL $1D21
  $9D1D  FC 1B 0A  NOP $0A1B,X
  $9D20  0C 0E FC  NOP $FC0E
  $9D23  1D 1B 0A  ORA $0A1B,X
  $9D26  0C 14 FC  NOP $FC14
  $9D29  2C 00 00  BIT $0000
  $9D2C  20 EC 07  JSR $07EC
  $9D2F  1D 12 16  ORA $1612,X
  $9D32  0E FC 1E  ASL $1EFC
  $9D35  19 00 20  ORA $2000,Y
  $9D38  EB        ??? 
  $9D39  09 10     ORA #$10
  $9D3B  0A        ASL 
  $9D3C  16 0E     ASL $0E,X
  $9D3E  FC 18 1F  NOP $1F18,X
  $9D41  0E 1B 00  ASL $001B
  $9D44  3F 00 04  RLA $0400,X
  $9D47  14 14     NOP $14,X
  $9D49  14 36     NOP $36,X
  $9D4B  3F 10 04  RLA $0410,X
  $9D4E  14 12     NOP $12,X
  $9D50  33 39     RLA ($39),Y
  $9D52  22        ??? 
  $9D53  0B        ??? 
  $9D54  0A        ASL 
  $9D55  0E 21 1D  ASL $1D21
  $9D58  1B 0A FC  SLO $FC0A,Y
  $9D5B  19 15 0A  ORA $0A15,Y
  $9D5E  22        ??? 
  $9D5F  00        BRK 
  $9D60  22        ??? 
  $9D61  EA        NOP 
  $9D62  0B        ??? 
  $9D63  12        ??? 
  $9D64  17 1C     SLO $1C,X
  $9D66  0E 1B 1D  ASL $1D1B
  $9D69  FC 0C 18  NOP $180C,X
  $9D6C  12        ??? 
  $9D6D  17 00     SLO $00,X
  $9D6F  23 C0     RLA ($C0,X)
  $9D71  48        PHA 
  $9D72  55 23     EOR $23,X
  $9D74  C8        INY 
  $9D75  48        PHA 
  $9D76  F5 23     SBC $23,X
  $9D78  D0 48     BNE $9DC2
  $9D7A  FF 23 D8  ISC $D823,X
  $9D7D  48        PHA 
  $9D7E  5A        NOP 
  $9D7F  23 E0     RLA ($E0,X)
  $9D81  50 55     BVC $9DD8
  $9D83  20 81 5E  JSR $5E81
  $9D86  56 20     LSR $20,X
  $9D88  A1 5E     LDA ($5E,X)
  $9D8A  56 21     LSR $21,X
  $9D8C  C1 5E     CMP ($5E,X)
  $9D8E  56 21     LSR $21,X
  $9D90  E1 5E     SBC ($5E,X)
  $9D92  56 21     LSR $21,X
  $9D94  02        ??? 
  $9D95  1C 80 84  NOP $8480,X
  $9D98  87 8B     SAX $8B
  $9D9A  FC 91 95  NOP $9591,X
  $9D9D  84 98     STY $98
  $9D9F  99 9C 9F  STA $9F9C,Y
  $9DA2  A2 A5     LDX #$A5
  $9DA4  80 84     NOP #$84
  $9DA6  87 80     SAX $80
  $9DA8  84 A8     STY $A8
  $9DAA  99 9C 8B  STA $8B9C,Y
  $9DAD  FC 91 80  NOP $8091,X
  $9DB0  84 87     STY $87
  $9DB2  21 22     AND ($22,X)
  $9DB4  1C 81 85  NOP $8581,X
  $9DB7  88        DEY 
  $9DB8  8C 8F 92  STY $928F
  $9DBB  96 FC     STX $FC,Y
  $9DBD  FC 9A 9D  NOP $9D9A,X
  $9DC0  A0 A3     LDY #$A3
  $9DC2  A6 81     LDX $81
  $9DC4  85 88     STA $88
  $9DC6  81 85     STA ($85,X)
  $9DC8  A9 9A     LDA #$9A
  $9DCA  9D AC AE  STA $AEAC,X
  $9DCD  92        ??? 
  $9DCE  81 85     STA ($85,X)
  $9DD0  88        DEY 
  $9DD1  21 42     AND ($42,X)
  $9DD3  1C 82 86  NOP $8682,X
  $9DD6  89 8D     NOP #$8D
  $9DD8  90 93     BCC $9D6D
  $9DDA  96 FC     STX $FC,Y
  $9DDC  FC 9A 9D  NOP $9D9A,X
  $9DDF  FC A3 FC  NOP $FCA3,X
  $9DE2  82 86     NOP #$86
  $9DE4  89 82     NOP #$82
  $9DE6  86 AA     STX $AA
  $9DE8  9A        TXS 
  $9DE9  9D AD AF  STA $AFAD,X
  $9DEC  93        ??? 
  $9DED  82 86     NOP #$86
  $9DEF  89 21     NOP #$21
  $9DF1  62        ??? 
  $9DF2  1C 83 84  NOP $8483,X
  $9DF5  8A        TXA 
  $9DF6  8E FC 94  STX $94FC
  $9DF9  97 84     SAX $84,Y
  $9DFB  98        TYA 
  $9DFC  9B        ??? 
  $9DFD  9E        ??? 
  $9DFE  A1 A4     LDA ($A4,X)
  $9E00  A7 83     LAX $83
  $9E02  84 8A     STY $8A
  $9E04  83 84     SAX ($84,X)
  $9E06  AB        ??? 
  $9E07  9B        ??? 
  $9E08  9E        ??? 
  $9E09  8E FC 94  STX $94FC
  $9E0C  83 84     SAX ($84,X)
  $9E0E  8A        TXA 
  $9E0F  20 FD 02  JSR $02FD
  $9E12  B0 B1     BCS $9DC5
  $9E14  21 B0     AND ($B0,X)
  $9E16  0E 27 01  ASL $0127
  $9E19  09 08     ORA #$08
  $9E1B  04 FC     NOP $FC
  $9E1D  17 12     SLO $12,X
  $9E1F  17 1D     SLO $1D,X
  $9E21  0E 17 0D  ASL $0D17
  $9E24  18        CLC 
  $9E25  29 42     AND #$42
  $9E27  5D 56 29  EOR $2956,X
  $9E2A  62        ??? 
  $9E2B  C2 56     NOP #$56
  $9E2D  29 7E     AND #$7E
  $9E2F  C2 56     NOP #$56
  $9E31  29 A2     AND #$A2
  $9E33  5D 56 29  EOR $2956,X
  $9E36  8A        TXA 
  $9E37  02        ??? 
  $9E38  6C 6E 29  JMP ($296E)
  $9E3B  A5 17     LDA $17
  $9E3D  FC 0B 0E  NOP $0E0B,X
  $9E40  1C 1D 6D  NOP $6D1D,X
  $9E43  6F FC 1D  RRA $1DFC
  $9E46  12        ??? 
  $9E47  16 0E     ASL $0E,X
  $9E49  1C FC 1B  NOP $1BFC,X
  $9E4C  0E 0C 18  ASL $180C
  $9E4F  1B 0D 0E  SLO $0E0D,Y
  $9E52  0D FC 00  ORA $00FC
  $9E55  3F 00 18  RLA $1800,X
  $9E58  06 33     ASL $33
  $9E5A  36 14     ROL $14,X
  $9E5C  06 36     ASL $36
  $9E5E  06 17     ASL $17
  $9E60  06 17     ASL $17
  $9E62  06 36     ASL $36
  $9E64  06 36     ASL $36
  $9E66  1F 12 06  SLO $0612,X
  $9E69  36 33     ROL $33,X
  $9E6B  06 06     ASL $06
  $9E6D  36 33     ROL $33,X
  $9E6F  14 2B     NOP $2B,X
  $9E71  C0 60     CPY #$60
  $9E73  AA        TAX 
  $9E74  2B        ??? 
  $9E75  E0 60     CPX #$60
  $9E77  AA        TAX 
  $9E78  00        BRK 
  $9E79  23 C0     RLA ($C0,X)
  $9E7B  60        RTS 
  $9E7C  AA        TAX 
  $9E7D  00        BRK 
  $9E7E  23 E0     RLA ($E0,X)
  $9E80  60        RTS 
  $9E81  AA        TAX 
  $9E82  00        BRK 
  $9E83  23 C0     RLA ($C0,X)
  $9E85  50 55     BVC $9EDC
  $9E87  23 D8     RLA ($D8,X)
  $9E89  50 AA     BVC $9E35
  $9E8B  23 E8     RLA ($E8,X)
  $9E8D  48        PHA 
  $9E8E  55 23     EOR $23,X
  $9E90  F0 48     BEQ $9EDA
  $9E92  A5 23     LDA $23
  $9E94  F8        SED 
  $9E95  48        PHA 
  $9E96  AA        TAX 
  $9E97  22        ??? 
  $9E98  4A        LSR 
  $9E99  0A        ASL 
  $9E9A  0E 21 0C  ASL $0C21
  $9E9D  12        ??? 
  $9E9E  1D 0E 0B  ORA $0B0E,X
  $9EA1  12        ??? 
  $9EA2  14 0E     NOP $0E,X
  $9EA4  23 69     RLA ($69,X)
  $9EA6  0E 0C 11  ASL $110C
  $9EA9  0A        ASL 
  $9EAA  15 15     ORA $15,X
  $9EAC  0E 17 10  ASL $1017
  $9EAF  0E FC 1B  ASL $1BFC
  $9EB2  0A        ASL 
  $9EB3  0C 0E 00  NOP $000E
  $9EB6  3F 00 14  RLA $1400,X
  $9EB9  14 33     NOP $33,X
  $9EBB  14 39     NOP $39,X
  $9EBD  14 12     NOP $12,X
  $9EBF  14 36     NOP $36,X
  $9EC1  14 12     NOP $12,X
  $9EC3  14 1F     NOP $1F,X
  $9EC5  14 36     NOP $36,X
  $9EC7  14 33     NOP $33,X
  $9EC9  14 36     NOP $36,X
  $9ECB  33 14     RLA ($14),Y
  $9ECD  23 CA     RLA ($CA,X)
  $9ECF  04 50     NOP $50
  $9ED1  50 00     BVC $9ED3
  $9ED3  50 23     BVC $9EF8
  $9ED5  D0 48     BNE $9F1F
  $9ED7  A5 23     LDA $23
  $9ED9  D4 01     NOP $01,X
  $9EDB  A0 20     LDY #$20
  $9EDD  80 60     NOP #$60
  $9EDF  56 20     LSR $20,X
  $9EE1  A0 60     LDY #$60
  $9EE3  56 20     LSR $20,X
  $9EE5  88        DEY 
  $9EE6  10 FC     BPL $9EE4
  $9EE8  42        ??? 
  $9EE9  51 40     EOR ($40),Y
  $9EEB  44 44     NOP $44
  $9EED  54 46     NOP $46,X
  $9EEF  42        ??? 
  $9EF0  54 FC     NOP $FC,X
  $9EF2  48        PHA 
  $9EF3  40        RTI 
  $9EF4  42        ??? 
  $9EF5  54 FC     NOP $FC,X
  $9EF7  20 A8 10  JSR $10A8
  $9EFA  FC 43 47  NOP $4743,X
  $9EFD  41 45     EOR ($45,X)
  $9EFF  45 45     EOR $45
  $9F01  47 55     SRE $55
  $9F03  45 FC     EOR $FC
  $9F05  49 41     EOR #$41
  $9F07  43 45     SRE ($45,X)
  $9F09  FC 21 0B  NOP $0B21,X
  $9F0C  07 1D     SLO $1D
  $9F0E  1B 0A 0C  SLO $0C0A,Y
  $9F11  14 FC     NOP $FC,X
  $9F13  2C 00 3F  BIT $3F00
  $9F16  00        BRK 
  $9F17  14 12     NOP $12,X
  $9F19  33 12     RLA ($12),Y
  $9F1B  10 12     BPL $9F2F
  $9F1D  33 12     RLA ($12),Y
  $9F1F  36 12     ROL $12,X
  $9F21  1F 12 39  SLO $3912,X
  $9F24  12        ??? 
  $9F25  36 12     ROL $12,X
  $9F27  33 12     RLA ($12),Y
  $9F29  36 33     ROL $33,X
  $9F2B  14 23     NOP $23,X
  $9F2D  D0 48     BNE $9F77
  $9F2F  AA        TAX 
  $9F30  20 40 60  JSR $6040
  $9F33  56 20     LSR $20,X
  $9F35  60        RTS 
  $9F36  60        RTS 
  $9F37  56 20     LSR $20,X
  $9F39  48        PHA 
  $9F3A  10 FC     BPL $9F38
  $9F3C  FC FC 54  NOP $54FC,X
  $9F3F  52        ??? 
  $9F40  42        ??? 
  $9F41  4C 4A 54  JMP $544A
  $9F44  4F 4C 4D  SRE $4D4C
  $9F47  54 FC     NOP $FC,X
  $9F49  FC FC 20  NOP $20FC,X
  $9F4C  68        PLA 
  $9F4D  10 57     BPL $9FA6
  $9F4F  57 FC     SRE $FC,X
  $9F51  45 53     EOR $53
  $9F53  43 4B     SRE ($4B,X)
  $9F55  4B        ??? 
  $9F56  45 50     EOR $50
  $9F58  4B        ??? 
  $9F59  4E 45 FC  LSR $FC45
  $9F5C  57 57     SRE $57,X
  $9F5E  20 CB 07  JSR $07CB
  $9F61  1D 1B 0A  ORA $0A1B,X
  $9F64  0C 14 FC  NOP $FC14
  $9F67  2C 21 27  BIT $2721
  $9F6A  52        ??? 
  $9F6B  3C 22 07  NOP $0722,X
  $9F6E  52        ??? 
  $9F6F  3C 21 46  NOP $4621,X
  $9F72  C6 3E     DEC $3E
  $9F74  21 59     AND ($59,X)
  $9F76  C6 3F     DEC $3F
  $9F78  21 26     AND ($26,X)
  $9F7A  01 38     ORA ($38,X)
  $9F7C  21 39     AND ($39,X)
  $9F7E  01 3A     ORA ($3A,X)
  $9F80  22        ??? 
  $9F81  06 01     ASL $01
  $9F83  39 22 19  AND $1922,Y
  $9F86  01 3B     ORA ($3B,X)
  $9F88  21 68     AND ($68,X)
  $9F8A  85 01     STA $01
  $9F8C  02        ??? 
  $9F8D  03 04     SLO ($04,X)
  $9F8F  05 21     ORA $21
  $9F91  69 C5     ADC #$C5
  $9F93  24 21     BIT $21
  $9F95  28        PLP 
  $9F96  06 0B     ASL $0B
  $9F98  0E 1C 1D  ASL $1D1C
  $9F9B  26 05     ROL $05
  $9F9D  00        BRK 
  $9F9E  3F 00 20  RLA $2000,X
  $9FA1  1F 33 36  SLO $3633,X
  $9FA4  23 1F     RLA ($1F,X)
  $9FA6  36 1F     ROL $1F,X
  $9FA8  12        ??? 
  $9FA9  1F 33 14  SLO $1433,X
  $9FAC  36 1F     ROL $1F,X
  $9FAE  0D 14 17  ORA $1714
  $9FB1  1F 33 36  SLO $3633,X
  $9FB4  39 1F 33  AND $331F,Y
  $9FB7  36 39     ROL $39,X
  $9FB9  1F 23 36  SLO $3623,X
  $9FBC  39 1F 36  AND $361F,Y
  $9FBF  33 14     RLA ($14),Y
  $9FC1  23 C8     RLA ($C8,X)
  $9FC3  48        PHA 
  $9FC4  50 23     BVC $9FE9
  $9FC6  D0 50     BNE $A018
  $9FC8  55 23     EOR $23,X
  $9FCA  E0 48     CPX #$48
  $9FCC  F5 23     SBC $23,X
  $9FCE  E8        INX 
  $9FCF  58        CLI 
  $9FD0  AA        TAX 
  $9FD1  23 DA     RLA ($DA,X)
  $9FD3  04 DD     NOP $DD
  $9FD5  FF FF 77  ISC $77FF,X
  $9FD8  23 E2     RLA ($E2,X)
  $9FDA  04 FD     NOP $FD
  $9FDC  FF FF F7  ISC $F7FF,X
  $9FDF  23 EA     RLA ($EA,X)
  $9FE1  03 EA     SLO ($EA,X)
  $9FE3  FA        NOP 
  $9FE4  BA        TSX 
  $9FE5  23 F2     RLA ($F2,X)
  $9FE7  03 EE     SLO ($EE,X)
  $9FE9  FF BB 20  ISC $20BB,X
  $9FEC  27 52     RLA $52
  $9FEE  7D 20 47  ADC $4720,X
  $9FF1  52        ??? 
  $9FF2  FE 20 87  INC $8720,X
  $9FF5  52        ??? 
  $9FF6  7E 20 26  ROR $2620,X
  $9FF9  85 7A     STA $7A
  $9FFB  FE FE 7B  INC $7BFE,X
  $9FFE  7C 20 65  NOP $6520,X
  $A001  83 FA     SAX ($FA,X)
  $A003  FE 2D 20  INC $202D,X
  $A006  64 83     NOP $83
  $A008  77 78     RRA $78,X
  $A00A  79 20 39  ADC $3920,Y
  $A00D  85 7F     STA $7F
  $A00F  FE FE F8  INC $F8FE,X
  $A012  F9 20 7A  SBC $7A20,Y
  $A015  83 FA     SAX ($FA,X)
  $A017  FE 2D 20  INC $202D,X
  $A01A  7B 83 2E  RRA $2E83,Y
  $A01D  2F 30 21  RLA $2130
  $A020  8E 03 CD  STX $CD03
  $A023  CF D0 21  DCP $21D0
  $A026  AC 05 CD  LDY $CD05
  $A029  CF CE 01  DCP $01CE
  $A02C  D1 21     CMP ($21),Y
  $A02E  CC 07 D4  CPY $D407
  $A031  02        ??? 
  $A032  FD FD D2  SBC $D2FD,X
  $A035  CF D0 21  DCP $21D0
  $A038  EA        NOP 
  $A039  09 CD     ORA #$CD
  $A03B  CF D5 FD  DCP $FDD5
  $A03E  E3 E6     ISC ($E6,X)
  $A040  E9 03     SBC #$03
  $A042  D1 22     CMP ($22),Y
  $A044  0A        ASL 
  $A045  0B        ??? 
  $A046  D4 04     NOP $04,X
  $A048  FD FD E4  SBC $E4FD,X
  $A04B  E7 EA     ISC $EA
  $A04D  FD D2 CF  SBC $CFD2,X
  $A050  D0 22     BNE $A074
  $A052  2A        ROL 
  $A053  0B        ??? 
  $A054  EC FD FD  CPX $FDFD
  $A057  FD E5 E8  SBC $E8E5,X
  $A05A  EB        ??? 
  $A05B  FD D3 05  SBC $05D3,X
  $A05E  D1 22     CMP ($22),Y
  $A060  40        RTI 
  $A061  7F FE 22  RRA $22FE,X
  $A064  80 7F     NOP #$7F
  $A066  FE 22 C0  INC $C022,X
  $A069  7F FE 23  RRA $23FE,X
  $A06C  00        BRK 
  $A06D  7F FE 23  RRA $23FE,X
  $A070  40        RTI 
  $A071  7F FE 23  RRA $23FE,X
  $A074  80 7F     NOP #$7F
  $A076  FE 22 5F  INC $5F22,X
  $A079  CC FE 22  CPY $22FE
  $A07C  83 01     SAX ($01,X)
  $A07E  38        SEC 
  $A07F  22        ??? 
  $A080  9C        ??? 
  $A081  01 3A     ORA ($3A,X)
  $A083  23 83     RLA ($83,X)
  $A085  01 39     ORA ($39,X)
  $A087  23 9C     RLA ($9C,X)
  $A089  01 3B     ORA ($3B,X)
  $A08B  22        ??? 
  $A08C  84 58     STY $58
  $A08E  3C 23 84  NOP $8423,X
  $A091  58        CLI 
  $A092  3D 22 A3  AND $A322,X
  $A095  C7 3E     DCP $3E
  $A097  22        ??? 
  $A098  BC C7 3F  LDY $3FC7,X
  $A09B  22        ??? 
  $A09C  CA        DEX 
  $A09D  C5 3F     CMP $3F
  $A09F  21 42     AND ($42,X)
  $A0A1  04 35     NOP $35
  $A0A3  37 DB     RLA $DB,X
  $A0A5  31 21     AND ($21),Y
  $A0A7  62        ??? 
  $A0A8  04 36     NOP $36
  $A0AA  DD DD 33  CMP $33DD,X
  $A0AD  21 59     AND ($59,X)
  $A0AF  04 D8     NOP $D8
  $A0B1  DB 31 31  DCP $3131,Y
  $A0B4  21 78     AND ($78,X)
  $A0B6  06 D6     ASL $D6
  $A0B8  D9 DC FD  CMP $FDDC,Y
  $A0BB  FD 34 21  SBC $2134,X
  $A0BE  98        TYA 
  $A0BF  05 D7     ORA $D7
  $A0C1  DA        NOP 
  $A0C2  DD 32 33  CMP $3332,X
  $A0C5  22        ??? 
  $A0C6  CE 04 1D  DEC $1D04
  $A0C9  12        ??? 
  $A0CA  16 0E     ASL $0E,X
  $A0CC  23 0B     RLA ($0B,X)
  $A0CE  07 1B     SLO $1B
  $A0D0  0A        ASL 
  $A0D1  17 14     SLO $14,X
  $A0D3  12        ??? 
  $A0D4  17 10     SLO $10,X
  $A0D6  23 4C     RLA ($4C,X)
  $A0D8  06 19     ASL $19
  $A0DA  18        CLC 
  $A0DB  12        ??? 
  $A0DC  17 1D     SLO $1D,X
  $A0DE  1C 22 E4  NOP $E422,X
  $A0E1  04 22     NOP $22
  $A0E3  18        CLC 
  $A0E4  1E 1B 23  ASL $231B,X
  $A0E7  04 05     NOP $05
  $A0E9  1C 0C 18  NOP $180C,X
  $A0EC  1B 0E 00  SLO $000E,Y
  $A0EF  20 47 0E  JSR $0E47
  $A0F2  42        ??? 
  $A0F3  51 40     EOR ($40),Y
  $A0F5  44 44     NOP $44
  $A0F7  54 46     NOP $46,X
  $A0F9  42        ??? 
  $A0FA  54 FE     NOP $FE,X
  $A0FC  48        PHA 
  $A0FD  40        RTI 
  $A0FE  42        ??? 
  $A0FF  54 20     NOP $20,X
  $A101  67 10     RRA $10
  $A103  43 47     SRE ($47,X)
  $A105  41 45     EOR ($45,X)
  $A107  45 45     EOR $45
  $A109  47 55     SRE $55
  $A10B  45 FE     EOR $FE
  $A10D  49 41     EOR #$41
  $A10F  43 45     SRE ($45,X)
  $A111  FE 2C 00  INC $002C,X
  $A114  20 49 0A  JSR $0A49
  $A117  54 52     NOP $52,X
  $A119  42        ??? 
  $A11A  4C 4A 54  JMP $544A
  $A11D  4F 4C 4D  SRE $4D4C
  $A120  54 20     NOP $20,X
  $A122  67 12     RRA $12
  $A124  57 57     SRE $57,X
  $A126  45 53     EOR $53
  $A128  43 4B     SRE ($4B,X)
  $A12A  4B        ??? 
  $A12B  45 50     EOR $50
  $A12D  4B        ??? 
  $A12E  4E 45 FE  LSR $FE45
  $A131  2C FE FE  BIT $FEFE
  $A134  57 57     SRE $57,X
  $A136  22        ??? 
  $A137  66 0B     ROR $0B
  $A139  0B        ??? 
  $A13A  0E 1C 1D  ASL $1D1C
  $A13D  FE 1B 0E  INC $0E1B,X
  $A140  0C 18 1B  NOP $1B18
  $A143  0D 00 3F  ORA $3F00
  $A146  00        BRK 
  $A147  14 14     NOP $14,X
  $A149  14 14     NOP $14,X
  $A14B  3E 14 17  ROL $1714,X
  $A14E  14 36     NOP $36,X
  $A150  14 26     NOP $26,X
  $A152  14 33     NOP $33,X
  $A154  14 26     NOP $26,X
  $A156  14 36     NOP $36,X
  $A158  14 14     NOP $14,X
  $A15A  14 14     NOP $14,X
  $A15C  23 C8     RLA ($C8,X)
  $A15E  48        PHA 
  $A15F  AA        TAX 
  $A160  23 D0     RLA ($D0,X)
  $A162  50 55     BVC $A1B9
  $A164  23 E0     RLA ($E0,X)
  $A166  48        PHA 
  $A167  55 23     EOR $23,X
  $A169  E8        INX 
  $A16A  58        CLI 
  $A16B  55 20     EOR $20,X
  $A16D  E5 18     SBC $18
  $A16F  22        ??? 
  $A170  18        CLC 
  $A171  1E 1B FC  ASL $FC1B,X
  $A174  17 0A     SLO $0A,X
  $A176  16 0E     ASL $0E,X
  $A178  FC 20 0A  NOP $0A20,X
  $A17B  1C FC 1B  NOP $1BFC,X
  $A17E  0E 10 12  ASL $1210
  $A181  1C 1D 0E  NOP $0E1D,X
  $A184  1B 0E 0D  SLO $0D0E,Y
  $A187  00        BRK 
  $A188  3F 00 14  RLA $1400,X
  $A18B  14 14     NOP $14,X
  $A18D  14 3E     NOP $3E,X
  $A18F  14 17     NOP $17,X
  $A191  14 36     NOP $36,X
  $A193  14 26     NOP $26,X
  $A195  14 33     NOP $33,X
  $A197  14 26     NOP $26,X
  $A199  14 36     NOP $36,X
  $A19B  14 36     NOP $36,X
  $A19D  36 14     ROL $14,X
  $A19F  23 C8     RLA ($C8,X)
  $A1A1  48        PHA 
  $A1A2  FA        NOP 
  $A1A3  23 D8     RLA ($D8,X)
  $A1A5  48        PHA 
  $A1A6  A0 23     LDY #$23
  $A1A8  E0 48     CPX #$48
  $A1AA  5A        NOP 
  $A1AB  23 E8     RLA ($E8,X)
  $A1AD  58        CLI 
  $A1AE  55 20     EOR $20,X
  $A1B0  88        DEY 
  $A1B1  11 17     ORA ($17),Y
  $A1B3  0A        ASL 
  $A1B4  16 0E     ASL $0E,X
  $A1B6  FC 1B 0E  NOP $0E1B,X
  $A1B9  10 12     BPL $A1CD
  $A1BB  1C 1D 1B  NOP $1B1D,X
  $A1BE  0A        ASL 
  $A1BF  1D 12 18  ORA $1812,X
  $A1C2  17 20     SLO $20,X
  $A1C4  CB        ??? 
  $A1C5  08        PHP 
  $A1C6  17 0A     SLO $0A,X
  $A1C8  16 0E     ASL $0E,X
  $A1CA  FC 25 25  NOP $2525,X
  $A1CD  25 21     AND $21
  $A1CF  27 13     RLA $13
  $A1D1  0A        ASL 
  $A1D2  FC 0B FC  NOP $FC0B,X
  $A1D5  0C FC 0D  NOP $0DFC
  $A1D8  FC 0E FC  NOP $FC0E,X
  $A1DB  0F FC 10  SLO $10FC
  $A1DE  FC 11 FC  NOP $FC11,X
  $A1E1  12        ??? 
  $A1E2  FC 13 21  NOP $2113,X
  $A1E5  67 13     RRA $13
  $A1E7  14 FC     NOP $FC,X
  $A1E9  15 FC     ORA $FC,X
  $A1EB  16 FC     ASL $FC,X
  $A1ED  17 FC     SLO $FC,X
  $A1EF  18        CLC 
  $A1F0  FC 19 FC  NOP $FC19,X
  $A1F3  1A        NOP 
  $A1F4  FC 1B FC  NOP $FC1B,X
  $A1F7  1C FC 1D  NOP $1DFC,X
  $A1FA  21 A7     AND ($A7,X)
  $A1FC  13 1E     SLO ($1E),Y
  $A1FE  FC 1F FC  NOP $FC1F,X
  $A201  20 FC 21  JSR $21FC
  $A204  FC 22 FC  NOP $FC22,X
  $A207  23 FC     RLA ($FC,X)
  $A209  24 FC     BIT $FC
  $A20B  26 28     ROL $28
  $A20D  29 2A     AND #$2A
  $A20F  2B        ??? 
  $A210  21 E8     AND ($E8,X)
  $A212  0B        ??? 
  $A213  1B 0E 10  SLO $100E,Y
  $A216  12        ??? 
  $A217  FC 1D 12  NOP $121D,X
  $A21A  16 0E     ASL $0E,X
  $A21C  26 26     ROL $26
  $A21E  00        BRK 
  $A21F  2B        ??? 
  $A220  C0 50     CPY #$50
  $A222  00        BRK 
  $A223  2B        ??? 
  $A224  C9 46     CMP #$46
  $A226  50 2B     BVC $A253
  $A228  D1 01     CMP ($01),Y
  $A22A  66 2B     ROR $2B
  $A22C  D6 01     DEC $01,X
  $A22E  99 2B D9  STA $D92B,Y
  $A231  01 66     ORA ($66,X)
  $A233  2B        ??? 
  $A234  DE 01 99  DEC $9901,X
  $A237  00        BRK 
  $A238  2B        ??? 
  $A239  E1 01     SBC ($01,X)
  $A23B  66 2B     ROR $2B
  $A23D  E6 01     INC $01
  $A23F  99 2B E9  STA $E92B,Y
  $A242  01 66     ORA ($66,X)
  $A244  2B        ??? 
  $A245  EE 01 99  INC $9901
  $A248  2B        ??? 
  $A249  F1 01     SBC ($01),Y
  $A24B  66 2B     ROR $2B
  $A24D  F6 01     INC $01,X
  $A24F  99 2B F9  STA $F92B,Y
  $A252  46 55     LSR $55
  $A254  00        BRK 
  $A255  28        PLP 
  $A256  25 56     AND $56
  $A258  7D 00 28  ADC $2800,X
  $A25B  45 56     EOR $56
  $A25D  FE 00 28  INC $2800,X
  $A260  45 05     EOR $05
  $A262  57 5C     SRE $5C,X
  $A264  5E 58 5A  LSR $5A58,X
  $A267  28        PLP 
  $A268  5A        NOP 
  $A269  01 57     ORA ($57,X)
  $A26B  00        BRK 
  $A26C  28        PLP 
  $A26D  65 16     ADC $16
  $A26F  57 5D     SRE $5D,X
  $A271  5F 59 5B  SRE $5B59,X
  $A274  FE 11 12  INC $1211,X
  $A277  10 11     BPL $A28A
  $A279  0E 1C 1D  ASL $1D1C
  $A27C  FE 1C 0C  INC $0C1C,X
  $A27F  18        CLC 
  $A280  1B 0E 1C  SLO $1C0E,Y
  $A283  FE 57 00  INC $0057,X
  $A286  28        PLP 
  $A287  24 85     BIT $85
  $A289  7A        NOP 
  $A28A  FE FE 7B  INC $7BFE,X
  $A28D  7C 28 3B  NOP $3B28,X
  $A290  85 7F     STA $7F
  $A292  FE FE F8  INC $F8FE,X
  $A295  F9 00 28  SBC $2800,Y
  $A298  62        ??? 
  $A299  83 77     SAX ($77,X)
  $A29B  78        SEI 
  $A29C  79 28 63  ADC $6328,Y
  $A29F  83 FA     SAX ($FA,X)
  $A2A1  FE 2D 00  INC $002D,X
  $A2A4  28        PLP 
  $A2A5  7D 83 2E  ADC $2E83,X
  $A2A8  2F 30 28  RLA $2830
  $A2AB  7C 83 FA  NOP $FA83,X
  $A2AE  FE 2D 00  INC $002D,X
  $A2B1  28        PLP 
  $A2B2  85 56     STA $56
  $A2B4  7E 00 28  ROR $2800,X
  $A2B7  C6 14     DEC $14
  $A2B9  56 56     LSR $56,X
  $A2BB  FC 17 18  NOP $1817,X
  $A2BE  24 FC     BIT $FC
  $A2C0  1C 0C 18  NOP $180C,X
  $A2C3  1B 0E FC  SLO $FC0E,Y
  $A2C6  17 0A     SLO $0A,X
  $A2C8  16 0E     ASL $0E,X
  $A2CA  FC 56 56  NOP $5656,X
  $A2CD  00        BRK 
  $A2CE  28        PLP 
  $A2CF  E6 D5     INC $D5
  $A2D1  56 00     LSR $00,X
  $A2D3  28        PLP 
  $A2D4  F9 D5 56  SBC $56D5,Y
  $A2D7  00        BRK 
  $A2D8  29 09     AND #$09
  $A2DA  93        ??? 
  $A2DB  01 FC     ORA ($FC,X)
  $A2DD  02        ??? 
  $A2DE  FC 03 FC  NOP $FC03,X
  $A2E1  04 FC     NOP $FC
  $A2E3  05 FC     ORA $FC
  $A2E5  06 FC     ASL $FC
  $A2E7  07 FC     SLO $FC
  $A2E9  08        PHP 
  $A2EA  FC 09 FC  NOP $FC09,X
  $A2ED  00        BRK 
  $A2EE  00        BRK 
  $A2EF  29 0A     AND #$0A
  $A2F1  93        ??? 
  $A2F2  24 FC     BIT $FC
  $A2F4  24 FC     BIT $FC
  $A2F6  24 FC     BIT $FC
  $A2F8  24 FC     BIT $FC
  $A2FA  24 FC     BIT $FC
  $A2FC  24 FC     BIT $FC
  $A2FE  24 FC     BIT $FC
  $A300  24 FC     BIT $FC
  $A302  24 FC     BIT $FC
  $A304  24 00     BIT $00
  $A306  2B        ??? 
  $A307  86 54     STX $54
  $A309  56 00     LSR $00,X
  $A30B  2B        ??? 
  $A30C  48        PHA 
  $A30D  01 01     ORA ($01,X)
  $A30F  00        BRK 
  $A310  3F 00 1C  RLA $1C00,X
  $A313  14 26     NOP $26,X
  $A315  14 0D     NOP $0D,X
  $A317  14 26     NOP $26,X
  $A319  14 36     NOP $36,X
  $A31B  14 36     NOP $36,X
  $A31D  14 33     NOP $33,X
  $A31F  14 14     NOP $14,X
  $A321  14 3C     NOP $3C,X
  $A323  14 12     NOP $12,X
  $A325  14 14     NOP $14,X
  $A327  14 14     NOP $14,X
  $A329  14 14     NOP $14,X
  $A32B  14 36     NOP $36,X
  $A32D  14 14     NOP $14,X
  $A32F  23 D0     RLA ($D0,X)
  $A331  62        ??? 
  $A332  55 23     EOR $23,X
  $A334  F0 48     BEQ $A37E
  $A336  05 23     ORA $23
  $A338  F8        SED 
  $A339  48        PHA 
  $A33A  FF 23 D9  ISC $D923,X
  $A33D  02        ??? 
  $A33E  99 66 23  STA $2366,Y
  $A341  E1 02     SBC ($02,X)
  $A343  99 66 23  STA $2366,Y
  $A346  E9 02     SBC #$02
  $A348  59 56 20  EOR $2056,Y
  $A34B  A8        TAY 
  $A34C  0D 16 18  ORA $1816
  $A34F  1F 0E FC  SLO $FC0E,X
  $A352  13 18     SLO ($18),Y
  $A354  22        ??? 
  $A355  1C 1D 12  NOP $121D,X
  $A358  0C 14 20  NOP $2014
  $A35B  E8        INX 
  $A35C  10 1D     BPL $A37B
  $A35E  18        CLC 
  $A35F  FC 1C 0E  NOP $0E1C,X
  $A362  15 0E     ORA $0E,X
  $A364  0C 1D FC  NOP $FC1D
  $A367  1D 1B 0A  ORA $0A1B,X
  $A36A  0C 14 2C  NOP $2C14
  $A36D  21 88     AND ($88,X)
  $A36F  02        ??? 
  $A370  B2        ??? 
  $A371  B4 21     LDY $21,X
  $A373  A8        TAY 
  $A374  0C B3 B5  NOP $B5B3
  $A377  FC 26 0B  NOP $0B26,X
  $A37A  0E 10 12  ASL $1210
  $A37D  17 17     SLO $17,X
  $A37F  0E 1B 22  ASL $221B
  $A382  08        PHP 
  $A383  02        ??? 
  $A384  B6 B8     LDX $B8,Y
  $A386  22        ??? 
  $A387  28        PLP 
  $A388  10 B7     BPL $A341
  $A38A  B9 FC 26  LDA $26FC,Y
  $A38D  12        ??? 
  $A38E  17 1D     SLO $1D,X
  $A390  0E 1B 16  ASL $161B
  $A393  0E 0D 12  ASL $120D
  $A396  0A        ASL 
  $A397  1D 0E 22  ORA $220E,X
  $A39A  88        DEY 
  $A39B  02        ??? 
  $A39C  BA        TSX 
  $A39D  BC 22 A8  LDY $A822,X
  $A3A0  0C BB BD  NOP $BDBB
  $A3A3  FC 26 0A  NOP $0A26,X
  $A3A6  0D 1F 0A  ORA $0A1F
  $A3A9  17 0C     SLO $0C,X
  $A3AB  0E 0D 23  ASL $230D
  $A3AE  45 16     EOR $16
  $A3B0  19 1E 1C  ORA $1C1E,Y
  $A3B3  11 FC     ORA ($FC),Y
  $A3B5  0B        ??? 
  $A3B6  1E 1D 1D  ASL $1D1D,X
  $A3B9  18        CLC 
  $A3BA  17 FC     SLO $FC,X
  $A3BC  FC FC 1D  NOP $1DFC,X
  $A3BF  18        CLC 
  $A3C0  FC 1C 1D  NOP $1D1C,X
  $A3C3  0A        ASL 
  $A3C4  1B 1D 00  SLO $001D,Y
  $A3C7  3F 00 14  RLA $1400,X
  $A3CA  1F 36 1F  SLO $1F36,X
  $A3CD  12        ??? 
  $A3CE  1F 36 1F  SLO $1F36,X
  $A3D1  36 1F     ROL $1F,X
  $A3D3  39 00 14  AND $1400,Y
  $A3D6  1F 3C 3F  SLO $3F3C,X
  $A3D9  0E 1F 36  ASL $361F
  $A3DC  33 14     RLA ($14),Y
  $A3DE  23 D8     RLA ($D8,X)
  $A3E0  58        CLI 
  $A3E1  AA        TAX 
  $A3E2  23 F0     RLA ($F0,X)
  $A3E4  48        PHA 
  $A3E5  FA        NOP 
  $A3E6  23 F8     RLA ($F8,X)
  $A3E8  48        PHA 
  $A3E9  FF 27 D8  ISC $D827,X
  $A3EC  58        CLI 
  $A3ED  AA        TAX 
  $A3EE  27 F0     RLA $F0
  $A3F0  48        PHA 
  $A3F1  FA        NOP 
  $A3F2  27 F8     RLA $F8
  $A3F4  48        PHA 
  $A3F5  FF 20 8A  ISC $8A20,X
  $A3F8  04 EF     NOP $EF
  $A3FA  F2        ??? 
  $A3FB  F5 F5     SBC $F5,X
  $A3FD  20 A9 06  JSR $06A9
  $A400  ED F0 F3  SBC $F3F0
  $A403  FD FD F8  SBC $F8FD,X
  $A406  20 C9 05  JSR $05C9
  $A409  EE F1 F4  INC $F4F1
  $A40C  F6 F7     INC $F7,X
  $A40E  20 D6 04  JSR $04D6
  $A411  42        ??? 
  $A412  44 F2     NOP $F2
  $A414  F5 20     SBC $20,X
  $A416  F6 04     INC $04,X
  $A418  43 F4     SRE ($F4,X)
  $A41A  F4 F7     NOP $F7,X
  $A41C  24 AF     BIT $AF
  $A41E  04 EF     NOP $EF
  $A420  F2        ??? 
  $A421  F5 F5     SBC $F5,X
  $A423  24 CE     BIT $CE
  $A425  06 ED     ASL $ED
  $A427  F0 F3     BEQ $A41C
  $A429  FD FD F8  SBC $F8FD,X
  $A42C  24 EE     BIT $EE
  $A42E  05 EE     ORA $EE
  $A430  F1 F4     SBC ($F4),Y
  $A432  F6 F7     INC $F7,X
  $A434  23 40     RLA ($40,X)
  $A436  60        RTS 
  $A437  FF 23 60  ISC $6023,X
  $A43A  60        RTS 
  $A43B  FF 23 80  ISC $8023,X
  $A43E  60        RTS 
  $A43F  FF 23 A0  ISC $A023,X
  $A442  60        RTS 
  $A443  FF 27 40  ISC $4027,X
  $A446  60        RTS 
  $A447  FF 27 60  ISC $6027,X
  $A44A  60        RTS 
  $A44B  FF 27 80  ISC $8027,X
  $A44E  60        RTS 
  $A44F  FF 27 A0  ISC $A027,X
  $A452  60        RTS 
  $A453  FF 23 40  ISC $4023,X
  $A456  20 9E 9F  JSR $9F9E
  $A459  9E        ??? 
  $A45A  9F        ??? 
  $A45B  9E        ??? 
  $A45C  9F        ??? 
  $A45D  9E        ??? 
  $A45E  9F        ??? 
  $A45F  9E        ??? 
  $A460  9F        ??? 
  $A461  9E        ??? 
  $A462  9F        ??? 
  $A463  9E        ??? 
  $A464  9F        ??? 
  $A465  9E        ??? 
  $A466  9F        ??? 
  $A467  9E        ??? 
  $A468  9F        ??? 
  $A469  9E        ??? 
  $A46A  9F        ??? 
  $A46B  9E        ??? 
  $A46C  9F        ??? 
  $A46D  9E        ??? 
  $A46E  9F        ??? 
  $A46F  9E        ??? 
  $A470  9F        ??? 
  $A471  9E        ??? 
  $A472  9F        ??? 
  $A473  9E        ??? 
  $A474  9F        ??? 
  $A475  9E        ??? 
  $A476  9F        ??? 
  $A477  27 40     RLA $40
  $A479  20 9E 9F  JSR $9F9E
  $A47C  9E        ??? 
  $A47D  9F        ??? 
  $A47E  9E        ??? 
  $A47F  9F        ??? 
  $A480  9E        ??? 
  $A481  9F        ??? 
  $A482  9E        ??? 
  $A483  9F        ??? 
  $A484  9E        ??? 
  $A485  9F        ??? 
  $A486  9E        ??? 
  $A487  9F        ??? 
  $A488  9E        ??? 
  $A489  9F        ??? 
  $A48A  9E        ??? 
  $A48B  9F        ??? 
  $A48C  9E        ??? 
  $A48D  9F        ??? 
  $A48E  9E        ??? 
  $A48F  9F        ??? 
  $A490  9E        ??? 
  $A491  9F        ??? 
  $A492  9E        ??? 
  $A493  9F        ??? 
  $A494  9E        ??? 
  $A495  9F        ??? 
  $A496  9E        ??? 
  $A497  9F        ??? 
  $A498  9E        ??? 
  $A499  9F        ??? 
  $A49A  00        BRK 
  $A49B  23 D2     RLA ($D2,X)
  $A49D  02        ??? 
  $A49E  AA        TAX 
  $A49F  2A        ROL 
  $A4A0  23 DB     RLA ($DB,X)
  $A4A2  44 55     NOP $55
  $A4A4  21 0A     AND ($0A,X)
  $A4A6  04 A0     NOP $A0
  $A4A8  A4 A8     LDY $A8
  $A4AA  AC 21 2A  LDY $2A21
  $A4AD  04 A1     NOP $A1
  $A4AF  A5 A9     LDA $A9
  $A4B1  AD 21 4A  LDA $4A21
  $A4B4  0A        ASL 
  $A4B5  A2 A6     LDX #$A6
  $A4B7  AA        TAX 
  $A4B8  AE FC 01  LDX $01FC
  $A4BB  00        BRK 
  $A4BC  00        BRK 
  $A4BD  FC FA 21  NOP $21FA,X
  $A4C0  6A        ROR 
  $A4C1  04 A3     NOP $A3
  $A4C3  A7 AB     LAX $AB
  $A4C5  AF 00 3F  LAX $3F00
  $A4C8  04 04     NOP $04
  $A4CA  1F 36 1F  SLO $1F36,X
  $A4CD  33 21     RLA ($21),Y
  $A4CF  AD 08 19  LDA $1908
  $A4D2  0A        ASL 
  $A4D3  1B 0F 0E  SLO $0E0F,Y
  $A4D6  0C 1D 9C  NOP $9C1D
  $A4D9  00        BRK 
  $A4DA  FF FF FF  ISC $FFFF,X
  $A4DD  FF FF FF  ISC $FFFF,X
  $A4E0  FF FF FF  ISC $FFFF,X
  $A4E3  FF FF FF  ISC $FFFF,X
  $A4E6  FF FF FF  ISC $FFFF,X
  $A4E9  FF FF FF  ISC $FFFF,X
  $A4EC  FF FF FF  ISC $FFFF,X
  $A4EF  FF FF FF  ISC $FFFF,X
  $A4F2  FF FF FF  ISC $FFFF,X
  $A4F5  FF FF FF  ISC $FFFF,X
  $A4F8  FF FF FF  ISC $FFFF,X
  $A4FB  FF FF FF  ISC $FFFF,X
  $A4FE  FF FF FF  ISC $FFFF,X
  $A501  FF FF FF  ISC $FFFF,X
  $A504  FF FF FF  ISC $FFFF,X
  $A507  FF FF FF  ISC $FFFF,X
  $A50A  FF FF FF  ISC $FFFF,X
  $A50D  FF FF FF  ISC $FFFF,X
  $A510  FF FF FF  ISC $FFFF,X
  $A513  FF FF FF  ISC $FFFF,X
  $A516  FF FF FF  ISC $FFFF,X
  $A519  FF FF FF  ISC $FFFF,X
  $A51C  FF FF FF  ISC $FFFF,X
  $A51F  FF FF FF  ISC $FFFF,X
  $A522  FF FF FF  ISC $FFFF,X
  $A525  FF FF FF  ISC $FFFF,X
  $A528  FF FF FF  ISC $FFFF,X
  $A52B  FF FF FF  ISC $FFFF,X
  $A52E  FF FF FF  ISC $FFFF,X
  $A531  FF FF FF  ISC $FFFF,X
  $A534  FF FF FF  ISC $FFFF,X
  $A537  FF FF FF  ISC $FFFF,X
  $A53A  FF FF FF  ISC $FFFF,X
  $A53D  FF FF FF  ISC $FFFF,X
  $A540  FF FF FF  ISC $FFFF,X
  $A543  FF FF FF  ISC $FFFF,X
  $A546  FF FF FF  ISC $FFFF,X
  $A549  FF FF FF  ISC $FFFF,X
  $A54C  FF FF FF  ISC $FFFF,X
  $A54F  FF FF FF  ISC $FFFF,X
  $A552  FF FF FF  ISC $FFFF,X
  $A555  FF FF FF  ISC $FFFF,X
  $A558  FF FF FF  ISC $FFFF,X
  $A55B  FF FF FF  ISC $FFFF,X
  $A55E  FF FF FF  ISC $FFFF,X
  $A561  FF FF FF  ISC $FFFF,X
  $A564  FF FF FF  ISC $FFFF,X
  $A567  FF FF FF  ISC $FFFF,X
  $A56A  FF FF FF  ISC $FFFF,X
  $A56D  FF FF FF  ISC $FFFF,X
  $A570  FF FF FF  ISC $FFFF,X
  $A573  FF FF FF  ISC $FFFF,X
  $A576  FF FF FF  ISC $FFFF,X
  $A579  FF FF FF  ISC $FFFF,X
  $A57C  FF FF FF  ISC $FFFF,X
  $A57F  FF FF FF  ISC $FFFF,X
  $A582  FF FF FF  ISC $FFFF,X
  $A585  FF FF FF  ISC $FFFF,X
  $A588  FF FF FF  ISC $FFFF,X
  $A58B  FF FF FF  ISC $FFFF,X
  $A58E  FF FF FF  ISC $FFFF,X
  $A591  FF FF FF  ISC $FFFF,X
  $A594  FF FF FF  ISC $FFFF,X
  $A597  FF FF FF  ISC $FFFF,X
  $A59A  FF FF FF  ISC $FFFF,X
  $A59D  FF FF FF  ISC $FFFF,X
  $A5A0  FF FF FF  ISC $FFFF,X
  $A5A3  FF FF FF  ISC $FFFF,X
  $A5A6  FF FF FF  ISC $FFFF,X
  $A5A9  FF FF FF  ISC $FFFF,X
  $A5AC  FF FF FF  ISC $FFFF,X
  $A5AF  FF FF FF  ISC $FFFF,X
  $A5B2  FF FF FF  ISC $FFFF,X
  $A5B5  FF FF FF  ISC $FFFF,X
  $A5B8  FF FF FF  ISC $FFFF,X
  $A5BB  FF FF FF  ISC $FFFF,X
  $A5BE  FF FF FF  ISC $FFFF,X
  $A5C1  FF FF FF  ISC $FFFF,X
  $A5C4  FF FF FF  ISC $FFFF,X
  $A5C7  FF FF FF  ISC $FFFF,X
  $A5CA  FF FF FF  ISC $FFFF,X
  $A5CD  FF FF FF  ISC $FFFF,X
  $A5D0  FF FF FF  ISC $FFFF,X
  $A5D3  FF FF FF  ISC $FFFF,X
  $A5D6  FF FF FF  ISC $FFFF,X
  $A5D9  FF FF FF  ISC $FFFF,X
  $A5DC  FF FF FF  ISC $FFFF,X
  $A5DF  FF FF FF  ISC $FFFF,X
  $A5E2  FF FF FF  ISC $FFFF,X
  $A5E5  FF FF FF  ISC $FFFF,X
  $A5E8  FF FF FF  ISC $FFFF,X
  $A5EB  FF FF FF  ISC $FFFF,X
  $A5EE  FF FF FF  ISC $FFFF,X
  $A5F1  FF FF FF  ISC $FFFF,X
  $A5F4  FF FF FF  ISC $FFFF,X
  $A5F7  FF FF FF  ISC $FFFF,X
  $A5FA  FF FF FF  ISC $FFFF,X
  $A5FD  FF FF FF  ISC $FFFF,X
  $A600  FF FF FF  ISC $FFFF,X
  $A603  FF FF FF  ISC $FFFF,X
  $A606  FF FF FF  ISC $FFFF,X
  $A609  FF FF FF  ISC $FFFF,X
  $A60C  FF FF FF  ISC $FFFF,X
  $A60F  FF FF FF  ISC $FFFF,X
  $A612  FF FF FF  ISC $FFFF,X
  $A615  FF FF FF  ISC $FFFF,X
  $A618  FF FF FF  ISC $FFFF,X
  $A61B  FF FF FF  ISC $FFFF,X
  $A61E  FF FF FF  ISC $FFFF,X
  $A621  FF FF FF  ISC $FFFF,X
  $A624  FF FF FF  ISC $FFFF,X
  $A627  FF FF FF  ISC $FFFF,X
  $A62A  FF FF FF  ISC $FFFF,X
  $A62D  FF FF FF  ISC $FFFF,X
  $A630  FF FF FF  ISC $FFFF,X
  $A633  FF FF FF  ISC $FFFF,X
  $A636  FF FF FF  ISC $FFFF,X
  $A639  FF FF FF  ISC $FFFF,X
  $A63C  FF FF FF  ISC $FFFF,X
  $A63F  FF FF FF  ISC $FFFF,X
  $A642  FF FF FF  ISC $FFFF,X
  $A645  FF FF FF  ISC $FFFF,X
  $A648  FF FF FF  ISC $FFFF,X
  $A64B  FF FF FF  ISC $FFFF,X
  $A64E  FF FF FF  ISC $FFFF,X
  $A651  FF FF FF  ISC $FFFF,X
  $A654  FF FF FF  ISC $FFFF,X
  $A657  FF FF FF  ISC $FFFF,X
  $A65A  FF FF FF  ISC $FFFF,X
  $A65D  FF FF FF  ISC $FFFF,X
  $A660  FF FF FF  ISC $FFFF,X
  $A663  FF FF FF  ISC $FFFF,X
  $A666  FF FF FF  ISC $FFFF,X
  $A669  FF FF FF  ISC $FFFF,X
  $A66C  FF FF FF  ISC $FFFF,X
  $A66F  FF FF FF  ISC $FFFF,X
  $A672  FF FF FF  ISC $FFFF,X
  $A675  FF FF FF  ISC $FFFF,X
  $A678  FF FF FF  ISC $FFFF,X
  $A67B  FF FF FF  ISC $FFFF,X
  $A67E  FF FF FF  ISC $FFFF,X
  $A681  FF FF FF  ISC $FFFF,X
  $A684  FF FF FF  ISC $FFFF,X
  $A687  FF FF FF  ISC $FFFF,X
  $A68A  FF FF FF  ISC $FFFF,X
  $A68D  FF FF FF  ISC $FFFF,X
  $A690  FF FF FF  ISC $FFFF,X
  $A693  FF FF FF  ISC $FFFF,X
  $A696  FF FF FF  ISC $FFFF,X
  $A699  FF FF FF  ISC $FFFF,X
  $A69C  FF FF FF  ISC $FFFF,X
  $A69F  FF FF FF  ISC $FFFF,X
  $A6A2  FF FF FF  ISC $FFFF,X
  $A6A5  FF FF FF  ISC $FFFF,X
  $A6A8  FF FF FF  ISC $FFFF,X
  $A6AB  FF FF FF  ISC $FFFF,X
  $A6AE  FF FF FF  ISC $FFFF,X
  $A6B1  FF FF FF  ISC $FFFF,X
  $A6B4  FF FF FF  ISC $FFFF,X
  $A6B7  FF FF FF  ISC $FFFF,X
  $A6BA  FF FF FF  ISC $FFFF,X
  $A6BD  FF FF FF  ISC $FFFF,X
  $A6C0  FF FF FF  ISC $FFFF,X
  $A6C3  FF FF FF  ISC $FFFF,X
  $A6C6  FF FF FF  ISC $FFFF,X
  $A6C9  FF FF FF  ISC $FFFF,X
  $A6CC  FF FF FF  ISC $FFFF,X
  $A6CF  FF FF FF  ISC $FFFF,X
  $A6D2  FF FF FF  ISC $FFFF,X
  $A6D5  FF FF FF  ISC $FFFF,X
  $A6D8  FF FF FF  ISC $FFFF,X
  $A6DB  FF FF FF  ISC $FFFF,X
  $A6DE  FF FF FF  ISC $FFFF,X
  $A6E1  FF FF FF  ISC $FFFF,X
  $A6E4  FF FF FF  ISC $FFFF,X
  $A6E7  FF FF FF  ISC $FFFF,X
  $A6EA  FF FF FF  ISC $FFFF,X
  $A6ED  FF FF FF  ISC $FFFF,X
  $A6F0  FF FF FF  ISC $FFFF,X
  $A6F3  FF FF FF  ISC $FFFF,X
  $A6F6  FF FF FF  ISC $FFFF,X
  $A6F9  FF FF FF  ISC $FFFF,X
  $A6FC  FF FF FF  ISC $FFFF,X
  $A6FF  FF FF FF  ISC $FFFF,X
  $A702  FF FF FF  ISC $FFFF,X
  $A705  FF FF FF  ISC $FFFF,X
  $A708  FF FF FF  ISC $FFFF,X
  $A70B  FF FF FF  ISC $FFFF,X
  $A70E  FF FF FF  ISC $FFFF,X
  $A711  FF FF FF  ISC $FFFF,X
  $A714  FF FF FF  ISC $FFFF,X
  $A717  FF FF FF  ISC $FFFF,X
  $A71A  FF FF FF  ISC $FFFF,X
  $A71D  FF FF FF  ISC $FFFF,X
  $A720  FF FF FF  ISC $FFFF,X
  $A723  FF FF FF  ISC $FFFF,X
  $A726  FF FF FF  ISC $FFFF,X
  $A729  FF FF FF  ISC $FFFF,X
  $A72C  FF FF FF  ISC $FFFF,X
  $A72F  FF FF FF  ISC $FFFF,X
  $A732  FF FF FF  ISC $FFFF,X
  $A735  FF FF FF  ISC $FFFF,X
  $A738  FF FF FF  ISC $FFFF,X
  $A73B  FF FF FF  ISC $FFFF,X
  $A73E  FF FF FF  ISC $FFFF,X
  $A741  FF FF FF  ISC $FFFF,X
  $A744  FF FF FF  ISC $FFFF,X
  $A747  FF FF FF  ISC $FFFF,X
  $A74A  FF FF FF  ISC $FFFF,X
  $A74D  FF FF FF  ISC $FFFF,X
  $A750  FF FF FF  ISC $FFFF,X
  $A753  FF FF FF  ISC $FFFF,X
  $A756  FF FF FF  ISC $FFFF,X
  $A759  FF FF FF  ISC $FFFF,X
  $A75C  FF FF FF  ISC $FFFF,X
  $A75F  FF FF FF  ISC $FFFF,X
  $A762  FF FF FF  ISC $FFFF,X
  $A765  FF FF FF  ISC $FFFF,X
  $A768  FF FF FF  ISC $FFFF,X
  $A76B  FF FF FF  ISC $FFFF,X
  $A76E  FF FF FF  ISC $FFFF,X
  $A771  FF FF FF  ISC $FFFF,X
  $A774  FF FF FF  ISC $FFFF,X
  $A777  FF FF FF  ISC $FFFF,X
  $A77A  FF FF FF  ISC $FFFF,X
  $A77D  FF FF FF  ISC $FFFF,X
  $A780  FF FF FF  ISC $FFFF,X
  $A783  FF FF FF  ISC $FFFF,X
  $A786  FF FF FF  ISC $FFFF,X
  $A789  FF FF FF  ISC $FFFF,X
  $A78C  FF FF FF  ISC $FFFF,X
  $A78F  FF FF FF  ISC $FFFF,X
  $A792  FF FF FF  ISC $FFFF,X
  $A795  FF FF FF  ISC $FFFF,X
  $A798  FF FF FF  ISC $FFFF,X
  $A79B  FF FF FF  ISC $FFFF,X
  $A79E  FF FF FF  ISC $FFFF,X
  $A7A1  FF FF FF  ISC $FFFF,X
  $A7A4  FF FF FF  ISC $FFFF,X
  $A7A7  FF FF FF  ISC $FFFF,X
  $A7AA  FF FF FF  ISC $FFFF,X
  $A7AD  FF FF FF  ISC $FFFF,X
  $A7B0  FF FF FF  ISC $FFFF,X
  $A7B3  FF FF FF  ISC $FFFF,X
  $A7B6  FF FF FF  ISC $FFFF,X
  $A7B9  FF FF FF  ISC $FFFF,X
  $A7BC  FF FF FF  ISC $FFFF,X
  $A7BF  FF FF FF  ISC $FFFF,X
  $A7C2  FF FF FF  ISC $FFFF,X
  $A7C5  FF FF FF  ISC $FFFF,X
  $A7C8  FF FF FF  ISC $FFFF,X
  $A7CB  FF FF FF  ISC $FFFF,X
  $A7CE  FF FF FF  ISC $FFFF,X
  $A7D1  FF FF FF  ISC $FFFF,X
  $A7D4  FF FF FF  ISC $FFFF,X
  $A7D7  FF FF FF  ISC $FFFF,X
  $A7DA  FF FF FF  ISC $FFFF,X
  $A7DD  FF FF FF  ISC $FFFF,X
  $A7E0  FF FF FF  ISC $FFFF,X
  $A7E3  FF FF FF  ISC $FFFF,X
  $A7E6  FF FF FF  ISC $FFFF,X
  $A7E9  FF FF FF  ISC $FFFF,X
  $A7EC  FF FF FF  ISC $FFFF,X
  $A7EF  FF FF FF  ISC $FFFF,X
  $A7F2  FF FF FF  ISC $FFFF,X
  $A7F5  FF FF FF  ISC $FFFF,X
  $A7F8  FF FF FF  ISC $FFFF,X
  $A7FB  FF FF FF  ISC $FFFF,X
  $A7FE  FF FF 34  ISC $34FF,X
  $A801  34 18     NOP $18,X
  $A803  34 03     NOP $03,X
  $A805  02        ??? 
  $A806  03 02     SLO ($02,X)
  $A808  09 06     ORA #$06
  $A80A  08        PHP 
  $A80B  0F 03 02  SLO $0203
  $A80E  02        ??? 
  $A80F  02        ??? 
  $A810  08        PHP 
  $A811  05 07     ORA $07
  $A813  0F 0C 09  SLO $090C
  $A816  0A        ASL 
  $A817  07 0C     SLO $0C
  $A819  0C 0C 00  NOP $000C
  $A81C  0C 0C 0C  NOP $0C0C
  $A81F  0B        ??? 
  $A820  0C 0C 0C  NOP $0C0C
  $A823  06 03     ASL $03
  $A825  04 02     NOP $02
  $A827  0B        ??? 
  $A828  08        PHP 
  $A829  09 58     ORA #$58
  $A82B  60        RTS 
  $A82C  69 71     ADC #$71
  $A82E  79 80 0A  ADC $0A80,Y
  $A831  18        CLC 
  $A832  20 28 30  JSR $3028
  $A835  38        SEC 
  $A836  40        RTI 
  $A837  48        PHA 
  $A838  50 50     BVC $A88A
  $A83A  97 90     SAX $90,Y
  $A83C  89 11     NOP #$11
  $A83E  A6 9F     LDX $9F
  $A840  B3 01     LAX ($01),Y
  $A842  00        BRK 
  $A843  02        ??? 
  $A844  02        ??? 
  $A845  03 00     SLO ($00,X)
  $A847  09 08     ORA #$08
  $A849  08        PHP 
  $A84A  10 10     BPL $A85C
  $A84C  10 02     BPL $A850
  $A84E  10 10     BPL $A860
  $A850  10 01     BPL $A853
  $A852  09 09     ORA #$09
  $A854  09 01     ORA #$01
  $A856  09 03     ORA #$03
  $A858  04 28     NOP $28
  $A85A  4C 70 39  JMP $3970
  $A85D  01 01     ORA ($01,X)
  $A85F  01 07     ORA ($07,X)
  $A861  00        BRK 
  $A862  01 01     ORA ($01,X)
  $A864  02        ??? 
  $A865  03 01     SLO ($01,X)
  $A867  01 02     ORA ($02,X)
  $A869  00        BRK 
  $A86A  11 22     ORA ($22),Y
  $A86C  33 44     RLA ($44),Y
  $A86E  66 88     ROR $88
  $A870  AA        TAX 
  $A871  02        ??? 
  $A872  01 01     ORA ($01,X)
  $A874  0E 1A 26  ASL $261A
  $A877  32        ??? 
  $A878  00        BRK 
  $A879  0C 18 A0  NOP $A018
  $A87C  40        RTI 
  $A87D  40        RTI 
  $A87E  ED 21 21  SBC $2121
  $A881  E2 E8     NOP #$E8
  $A883  9E        ??? 
  $A884  A6 92     LDX $92
  $A886  9A        TXS 
  $A887  86 8E     STX $8E
  $A889  7A        NOP 
  $A88A  82 1D     NOP #$1D
  $A88C  22        ??? 
  $A88D  B1 B3     LDA ($B3),Y
  $A88F  CF D3 D7  DCP $D7D3
  $A892  CF 3F 0F  DCP $0F3F
  $A895  07 07     SLO $07
  $A897  08        PHP 
  $A898  20 11 11  JSR $1111
  $A89B  BF CF EF  LAX $EFCF,Y
  $A89E  2D 7D 9C  AND $9C7D
  $A8A1  A8        TAY 
  $A8A2  A8        TAY 
  $A8A3  A8        TAY 
  $A8A4  A9 A9     LDA #$A9
  $A8A6  A9 BF     LDA #$BF
  $A8A8  C3 C6     DCP ($C6,X)
  $A8AA  08        PHP 
  $A8AB  0A        ASL 
  $A8AC  0F 14 18  SLO $1814
  $A8AF  08        PHP 
  $A8B0  14 20     NOP $20,X
  $A8B2  2C 38 A2  BIT $A238
  $A8B5  03 20     SLO ($20,X)
  $A8B7  C0 A8     CPY #$A8
  $A8B9  20 C6 A9  JSR $A9C6
  $A8BC  CA        DEX 
  $A8BD  10 F7     BPL $A8B6
  $A8BF  60        RTS 
  $A8C0  B4 A0     LDY $A0,X
  $A8C2  B9 9B A8  LDA $A89B,Y
  $A8C5  85 00     STA $00
  $A8C7  B9 A1 A8  LDA $A8A1,Y
  $A8CA  85 01     STA $01
  $A8CC  6C 00 00  JMP ($0000)
  $A8CF  BD 80 03  LDA $0380,X
  $A8D2  F0 16     BEQ $A8EA
  $A8D4  A5 3F     LDA $3F
  $A8D6  4A        LSR 
  $A8D7  B0 15     BCS $A8EE
  $A8D9  FE A4 03  INC $03A4,X
  $A8DC  BC C4 03  LDY $03C4,X
  $A8DF  B5 80     LDA $80,X
  $A8E1  18        CLC 
  $A8E2  79 AA A8  ADC $A8AA,Y
  $A8E5  DD A4 03  CMP $03A4,X
  $A8E8  B0 04     BCS $A8EE
  $A8EA  F6 A0     INC $A0,X
  $A8EC  D0 3A     BNE $A928
  $A8EE  60        RTS 
  $A8EF  8A        TXA 
  $A8F0  A8        TAY 
  $A8F1  F0 06     BEQ $A8F9
  $A8F3  B5 B4     LDA $B4,X
  $A8F5  F0 02     BEQ $A8F9
  $A8F7  A0 04     LDY #$04
  $A8F9  B5 B0     LDA $B0,X
  $A8FB  D9 5C A8  CMP $A85C,Y
  $A8FE  F0 0A     BEQ $A90A
  $A900  A0 01     LDY #$01
  $A902  90 02     BCC $A906
  $A904  A0 FF     LDY #$FF
  $A906  98        TYA 
  $A907  95 8C     STA $8C,X
  $A909  60        RTS 
  $A90A  A9 00     LDA #$00
  $A90C  9D AC 03  STA $03AC,X
  $A90F  95 8C     STA $8C,X
  $A911  F6 A0     INC $A0,X
  $A913  8A        TXA 
  $A914  D0 12     BNE $A928
  $A916  AC 1D 06  LDY $061D
  $A919  F0 03     BEQ $A91E
  $A91B  8D E3 03  STA $03E3
  $A91E  8D 1D 06  STA $061D
  $A921  8D 1C 06  STA $061C
  $A924  A9 02     LDA #$02
  $A926  85 FD     STA $FD
  $A928  A9 08     LDA #$08
  $A92A  95 29     STA $29,X
  $A92C  60        RTS 
  $A92D  BD 80 03  LDA $0380,X
  $A930  F0 38     BEQ $A96A
  $A932  B5 29     LDA $29,X
  $A934  D0 46     BNE $A97C
  $A936  8A        TXA 
  $A937  0D 14 06  ORA $0614
  $A93A  D0 0F     BNE $A94B
  $A93C  A4 44     LDY $44
  $A93E  A5 14     LDA $14
  $A940  29 C0     AND #$C0
  $A942  F0 05     BEQ $A949
  $A944  85 44     STA $44
  $A946  98        TYA 
  $A947  F0 08     BEQ $A951
  $A949  85 44     STA $44
  $A94B  A5 3F     LDA $3F
  $A94D  29 0F     AND #$0F
  $A94F  D0 03     BNE $A954
  $A951  DE A4 03  DEC $03A4,X
  $A954  29 07     AND #$07
  $A956  D0 08     BNE $A960
  $A958  BD AC 03  LDA $03AC,X
  $A95B  49 01     EOR #$01
  $A95D  9D AC 03  STA $03AC,X
  $A960  BD A4 03  LDA $03A4,X
  $A963  38        SEC 
  $A964  E9 08     SBC #$08
  $A966  D5 80     CMP $80,X
  $A968  B0 12     BCS $A97C
  $A96A  A9 03     LDA #$03
  $A96C  95 36     STA $36,X
  $A96E  F6 A0     INC $A0,X
  $A970  A9 00     LDA #$00
  $A972  E0 03     CPX #$03
  $A974  D0 06     BNE $A97C
  $A976  8D B8 03  STA $03B8
  $A979  8D 83 03  STA $0383
  $A97C  60        RTS 
  $A97D  B5 36     LDA $36,X
  $A97F  D0 1A     BNE $A99B
  $A981  8A        TXA 
  $A982  D0 0D     BNE $A991
  $A984  AD C0 03  LDA $03C0
  $A987  D0 1E     BNE $A9A7
  $A989  AD 14 06  LDA $0614
  $A98C  F0 0B     BEQ $A999
  $A98E  4C E4 92  JMP $92E4
  $A991  8A        TXA 
  $A992  0A        ASL 
  $A993  0A        ASL 
  $A994  0A        ASL 
  $A995  69 1C     ADC #$1C
  $A997  95 25     STA $25,X
  $A999  F6 A0     INC $A0,X
  $A99B  60        RTS 
  $A99C  B5 25     LDA $25,X
  $A99E  D0 25     BNE $A9C5
  $A9A0  8A        TXA 
  $A9A1  F0 04     BEQ $A9A7
  $A9A3  A9 01     LDA #$01
  $A9A5  95 8C     STA $8C,X
  $A9A7  B5 98     LDA $98,X
  $A9A9  15 8C     ORA $8C,X
  $A9AB  D0 07     BNE $A9B4
  $A9AD  B5 B0     LDA $B0,X
  $A9AF  DD 5C A8  CMP $A85C,X
  $A9B2  F0 11     BEQ $A9C5
  $A9B4  A9 01     LDA #$01
  $A9B6  95 8C     STA $8C,X
  $A9B8  8A        TXA 
  $A9B9  F0 06     BEQ $A9C1
  $A9BB  B5 B0     LDA $B0,X
  $A9BD  C9 08     CMP #$08
  $A9BF  90 04     BCC $A9C5
  $A9C1  A9 00     LDA #$00
  $A9C3  95 A0     STA $A0,X
  $A9C5  60        RTS 
  $A9C6  BD A4 03  LDA $03A4,X
  $A9C9  38        SEC 
  $A9CA  F5 80     SBC $80,X
  $A9CC  E9 08     SBC #$08
  $A9CE  0A        ASL 
  $A9CF  18        CLC 
  $A9D0  75 B0     ADC $B0,X
  $A9D2  69 04     ADC #$04
  $A9D4  9D D4 03  STA $03D4,X
  $A9D7  60        RTS 
  $A9D8  A5 6A     LDA $6A
  $A9DA  F0 3F     BEQ $AA1B
  $A9DC  A2 03     LDX #$03
  $A9DE  20 0A AA  JSR $AA0A
  $A9E1  20 D0 AB  JSR $ABD0
  $A9E4  20 C1 AC  JSR $ACC1
  $A9E7  20 AD AC  JSR $ACAD
  $A9EA  CA        DEX 
  $A9EB  10 F1     BPL $A9DE
  $A9ED  20 1C AA  JSR $AA1C
  $A9F0  20 2C AA  JSR $AA2C
  $A9F3  20 B4 AB  JSR $ABB4
  $A9F6  A5 3C     LDA $3C
  $A9F8  D0 21     BNE $AA1B
  $A9FA  AC DD 03  LDY $03DD
  $A9FD  B9 8B A8  LDA $A88B,Y
  $AA00  85 00     STA $00
  $AA02  B9 8D A8  LDA $A88D,Y
  $AA05  85 01     STA $01
  $AA07  6C 00 00  JMP ($0000)
  $AA0A  B5 98     LDA $98,X
  $AA0C  95 78     STA $78,X
  $AA0E  B5 94     LDA $94,X
  $AA10  18        CLC 
  $AA11  7D A8 03  ADC $03A8,X
  $AA14  9D A8 03  STA $03A8,X
  $AA17  90 02     BCC $AA1B
  $AA19  F6 78     INC $78,X
  $AA1B  60        RTS 
  $AA1C  A5 12     LDA $12
  $AA1E  18        CLC 
  $AA1F  65 78     ADC $78
  $AA21  85 12     STA $12
  $AA23  90 06     BCC $AA2B
  $AA25  A5 68     LDA $68
  $AA27  49 01     EOR #$01
  $AA29  85 68     STA $68
  $AA2B  60        RTS 
  $AA2C  A2 03     LDX #$03
  $AA2E  B5 A4     LDA $A4,X
  $AA30  F0 1B     BEQ $AA4D
  $AA32  B5 78     LDA $78,X
  $AA34  18        CLC 
  $AA35  75 80     ADC $80,X
  $AA37  90 02     BCC $AA3B
  $AA39  F6 84     INC $84,X
  $AA3B  38        SEC 
  $AA3C  E5 78     SBC $78
  $AA3E  95 80     STA $80,X
  $AA40  B0 02     BCS $AA44
  $AA42  D6 84     DEC $84,X
  $AA44  BD A4 03  LDA $03A4,X
  $AA47  38        SEC 
  $AA48  E5 78     SBC $78
  $AA4A  9D A4 03  STA $03A4,X
  $AA4D  CA        DEX 
  $AA4E  D0 DE     BNE $AA2E
  $AA50  60        RTS 
  $AA51  8A        TXA 
  $AA52  45 61     EOR $61
  $AA54  15 A4     ORA $A4,X
  $AA56  05 23     ORA $23
  $AA58  0D 83 03  ORA $0383
  $AA5B  0D B8 03  ORA $03B8
  $AA5E  D0 36     BNE $AA96
  $AA60  B5 18     LDA $18,X
  $AA62  C9 A0     CMP #$A0
  $AA64  90 30     BCC $AA96
  $AA66  86 00     STX $00
  $AA68  29 03     AND #$03
  $AA6A  A8        TAY 
  $AA6B  C8        INY 
  $AA6C  A5 98     LDA $98
  $AA6E  29 02     AND #$02
  $AA70  95 84     STA $84,X
  $AA72  A2 03     LDX #$03
  $AA74  84 01     STY $01
  $AA76  BD CC 03  LDA $03CC,X
  $AA79  C5 01     CMP $01
  $AA7B  D0 07     BNE $AA84
  $AA7D  C8        INY 
  $AA7E  C0 05     CPY #$05
  $AA80  90 02     BCC $AA84
  $AA82  A0 01     LDY #$01
  $AA84  CA        DEX 
  $AA85  D0 ED     BNE $AA74
  $AA87  A6 00     LDX $00
  $AA89  20 9A AA  JSR $AA9A
  $AA8C  4C 96 AA  JMP $AA96
  $AA8F  A2 04     LDX #$04
  $AA91  A5 3B     LDA $3B
  $AA93  F0 01     BEQ $AA96
  $AA95  CA        DEX 
  $AA96  CA        DEX 
  $AA97  D0 B8     BNE $AA51
  $AA99  60        RTS 
  $AA9A  20 4A AB  JSR $AB4A
  $AA9D  88        DEY 
  $AA9E  B9 74 A8  LDA $A874,Y
  $AAA1  95 B0     STA $B0,X
  $AAA3  B4 84     LDY $84,X
  $AAA5  B9 7B A8  LDA $A87B,Y
  $AAA8  95 80     STA $80,X
  $AAAA  A9 06     LDA #$06
  $AAAC  95 A8     STA $A8,X
  $AAAE  A5 E0     LDA $E0
  $AAB0  18        CLC 
  $AAB1  79 7E A8  ADC $A87E,Y
  $AAB4  29 3F     AND #$3F
  $AAB6  95 E0     STA $E0,X
  $AAB8  A5 7C     LDA $7C
  $AABA  95 7C     STA $7C,X
  $AABC  98        TYA 
  $AABD  F0 2C     BEQ $AAEB
  $AABF  A0 05     LDY #$05
  $AAC1  20 E1 CB  JSR $CBE1
  $AAC4  C9 E4     CMP #$E4
  $AAC6  F0 23     BEQ $AAEB
  $AAC8  C9 3B     CMP #$3B
  $AACA  90 34     BCC $AB00
  $AACC  C9 93     CMP #$93
  $AACE  B0 30     BCS $AB00
  $AAD0  A0 02     LDY #$02
  $AAD2  20 E1 CB  JSR $CBE1
  $AAD5  C9 E6     CMP #$E6
  $AAD7  D0 12     BNE $AAEB
  $AAD9  B5 B0     LDA $B0,X
  $AADB  C9 20     CMP #$20
  $AADD  90 08     BCC $AAE7
  $AADF  A9 30     LDA #$30
  $AAE1  95 B4     STA $B4,X
  $AAE3  A9 01     LDA #$01
  $AAE5  D0 02     BNE $AAE9
  $AAE7  A9 03     LDA #$03
  $AAE9  95 BC     STA $BC,X
  $AAEB  B4 84     LDY $84,X
  $AAED  20 03 AB  JSR $AB03
  $AAF0  B5 84     LDA $84,X
  $AAF2  49 02     EOR #$02
  $AAF4  0A        ASL 
  $AAF5  95 98     STA $98,X
  $AAF7  A9 10     LDA #$10
  $AAF9  85 23     STA $23
  $AAFB  A9 01     LDA #$01
  $AAFD  95 A4     STA $A4,X
  $AAFF  60        RTS 
  $AB00  A9 00     LDA #$00
  $AB02  60        RTS 
  $AB03  A5 66     LDA $66
  $AB05  F0 04     BEQ $AB0B
  $AB07  A9 03     LDA #$03
  $AB09  D0 07     BNE $AB12
  $AB0B  E0 03     CPX #$03
  $AB0D  F0 10     BEQ $AB1F
  $AB0F  B9 71 A8  LDA $A871,Y
  $AB12  95 CC     STA $CC,X
  $AB14  B5 1B     LDA $1B,X
  $AB16  29 0F     AND #$0F
  $AB18  A8        TAY 
  $AB19  B9 69 A8  LDA $A869,Y
  $AB1C  95 C8     STA $C8,X
  $AB1E  60        RTS 
  $AB1F  B5 84     LDA $84,X
  $AB21  4A        LSR 
  $AB22  4A        LSR 
  $AB23  B0 EA     BCS $AB0F
  $AB25  A5 98     LDA $98
  $AB27  F0 E6     BEQ $AB0F
  $AB29  95 CC     STA $CC,X
  $AB2B  A5 94     LDA $94
  $AB2D  95 C8     STA $C8,X
  $AB2F  B5 84     LDA $84,X
  $AB31  F0 0E     BEQ $AB41
  $AB33  B5 80     LDA $80,X
  $AB35  C9 40     CMP #$40
  $AB37  B0 D6     BCS $AB0F
  $AB39  AD CC 03  LDA $03CC
  $AB3C  CD CF 03  CMP $03CF
  $AB3F  F0 08     BEQ $AB49
  $AB41  B5 CC     LDA $CC,X
  $AB43  C9 04     CMP #$04
  $AB45  B0 02     BCS $AB49
  $AB47  F6 CC     INC $CC,X
  $AB49  60        RTS 
  $AB4A  A9 00     LDA #$00
  $AB4C  95 A4     STA $A4,X
  $AB4E  95 B0     STA $B0,X
  $AB50  95 B4     STA $B4,X
  $AB52  95 B8     STA $B8,X
  $AB54  95 BC     STA $BC,X
  $AB56  95 70     STA $70,X
  $AB58  95 C4     STA $C4,X
  $AB5A  9D 7C 03  STA $037C,X
  $AB5D  95 94     STA $94,X
  $AB5F  95 98     STA $98,X
  $AB61  95 9C     STA $9C,X
  $AB63  95 A0     STA $A0,X
  $AB65  95 AC     STA $AC,X
  $AB67  95 88     STA $88,X
  $AB69  9D 98 03  STA $0398,X
  $AB6C  95 C0     STA $C0,X
  $AB6E  95 8C     STA $8C,X
  $AB70  9D CC 03  STA $03CC,X
  $AB73  9D 80 03  STA $0380,X
  $AB76  9D A0 03  STA $03A0,X
  $AB79  60        RTS 
  $AB7A  AD B8 03  LDA $03B8
  $AB7D  F0 FA     BEQ $AB79
  $AB7F  A5 A7     LDA $A7
  $AB81  F0 13     BEQ $AB96
  $AB83  A2 03     LDX #$03
  $AB85  B5 84     LDA $84,X
  $AB87  4A        LSR 
  $AB88  B0 EF     BCS $AB79
  $AB8A  4A        LSR 
  $AB8B  B0 06     BCS $AB93
  $AB8D  B5 80     LDA $80,X
  $AB8F  C9 EA     CMP #$EA
  $AB91  B0 E6     BCS $AB79
  $AB93  4C 4A AB  JMP $AB4A
  $AB96  A0 00     LDY #$00
  $AB98  8C B8 03  STY $03B8
  $AB9B  C8        INY 
  $AB9C  A2 02     LDX #$02
  $AB9E  86 87     STX $87
  $ABA0  E8        INX 
  $ABA1  20 9A AA  JSR $AA9A
  $ABA4  F0 D3     BEQ $AB79
  $ABA6  A9 00     LDA #$00
  $ABA8  85 9B     STA $9B
  $ABAA  A9 92     LDA #$92
  $ABAC  85 93     STA $93
  $ABAE  8D 83 03  STA $0383
  $ABB1  4C 31 AC  JMP $AC31
  $ABB4  A5 78     LDA $78
  $ABB6  4A        LSR 
  $ABB7  6A        ROR 
  $ABB8  6A        ROR 
  $ABB9  6A        ROR 
  $ABBA  18        CLC 
  $ABBB  6D E6 03  ADC $03E6
  $ABBE  8D E6 03  STA $03E6
  $ABC1  A5 78     LDA $78
  $ABC3  65 6B     ADC $6B
  $ABC5  85 6B     STA $6B
  $ABC7  90 06     BCC $ABCF
  $ABC9  A5 69     LDA $69
  $ABCB  49 01     EOR #$01
  $ABCD  85 69     STA $69
  $ABCF  60        RTS 
  $ABD0  B5 AC     LDA $AC,X
  $ABD2  F0 FB     BEQ $ABCF
  $ABD4  20 63 AC  JSR $AC63
  $ABD7  ED 12 04  SBC $0412
  $ABDA  85 01     STA $01
  $ABDC  D5 90     CMP $90,X
  $ABDE  B0 EF     BCS $ABCF
  $ABE0  BD A0 03  LDA $03A0,X
  $ABE3  D0 EA     BNE $ABCF
  $ABE5  BD 74 03  LDA $0374,X
  $ABE8  F0 E5     BEQ $ABCF
  $ABEA  8A        TXA 
  $ABEB  D0 06     BNE $ABF3
  $ABED  A9 02     LDA #$02
  $ABEF  05 FF     ORA $FF
  $ABF1  85 FF     STA $FF
  $ABF3  A9 00     LDA #$00
  $ABF5  95 AC     STA $AC,X
  $ABF7  9D 74 03  STA $0374,X
  $ABFA  AD 12 04  LDA $0412
  $ABFD  8D 14 04  STA $0414
  $AC00  B5 9C     LDA $9C,X
  $AC02  D0 4F     BNE $AC53
  $AC04  A5 66     LDA $66
  $AC06  D0 52     BNE $AC5A
  $AC08  BC 98 03  LDY $0398,X
  $AC0B  9D 98 03  STA $0398,X
  $AC0E  98        TYA 
  $AC0F  D0 42     BNE $AC53
  $AC11  B5 88     LDA $88,X
  $AC13  B4 98     LDY $98,X
  $AC15  C0 02     CPY #$02
  $AC17  90 08     BCC $AC21
  $AC19  D0 09     BNE $AC24
  $AC1B  B4 94     LDY $94,X
  $AC1D  C0 80     CPY #$80
  $AC1F  B0 03     BCS $AC24
  $AC21  18        CLC 
  $AC22  69 08     ADC #$08
  $AC24  A8        TAY 
  $AC25  B5 A8     LDA $A8,X
  $AC27  D9 04 A8  CMP $A804,Y
  $AC2A  90 05     BCC $AC31
  $AC2C  D9 14 A8  CMP $A814,Y
  $AC2F  90 09     BCC $AC3A
  $AC31  A9 0A     LDA #$0A
  $AC33  95 25     STA $25,X
  $AC35  A9 FF     LDA #$FF
  $AC37  95 9C     STA $9C,X
  $AC39  60        RTS 
  $AC3A  BD 78 03  LDA $0378,X
  $AC3D  D5 A8     CMP $A8,X
  $AC3F  F0 12     BEQ $AC53
  $AC41  B5 88     LDA $88,X
  $AC43  15 C4     ORA $C4,X
  $AC45  D0 0C     BNE $AC53
  $AC47  A9 04     LDA #$04
  $AC49  9D 84 03  STA $0384,X
  $AC4C  4A        LSR 
  $AC4D  9D 98 03  STA $0398,X
  $AC50  4A        LSR 
  $AC51  95 AC     STA $AC,X
  $AC53  C6 01     DEC $01
  $AC55  A5 01     LDA $01
  $AC57  95 90     STA $90,X
  $AC59  60        RTS 
  $AC5A  B5 88     LDA $88,X
  $AC5C  D0 FB     BNE $AC59
  $AC5E  A9 06     LDA #$06
  $AC60  95 A8     STA $A8,X
  $AC62  60        RTS 
  $AC63  AD 12 06  LDA $0612
  $AC66  38        SEC 
  $AC67  F5 B4     SBC $B4,X
  $AC69  F5 B0     SBC $B0,X
  $AC6B  ED 14 04  SBC $0414
  $AC6E  60        RTS 
  $AC6F  B4 88     LDY $88,X
  $AC71  A5 66     LDA $66
  $AC73  C9 01     CMP #$01
  $AC75  D0 0D     BNE $AC84
  $AC77  8A        TXA 
  $AC78  05 9C     ORA $9C
  $AC7A  05 A0     ORA $A0
  $AC7C  05 70     ORA $70
  $AC7E  D0 04     BNE $AC84
  $AC80  A9 0A     LDA #$0A
  $AC82  D0 03     BNE $AC87
  $AC84  B9 23 A8  LDA $A823,Y
  $AC87  9D 78 03  STA $0378,X
  $AC8A  B5 BC     LDA $BC,X
  $AC8C  C9 01     CMP #$01
  $AC8E  D0 05     BNE $AC95
  $AC90  A9 06     LDA #$06
  $AC92  9D 78 03  STA $0378,X
  $AC95  60        RTS 
  $AC96  85 00     STA $00
  $AC98  B5 29     LDA $29,X
  $AC9A  D0 10     BNE $ACAC
  $AC9C  94 29     STY $29,X
  $AC9E  B5 A8     LDA $A8,X
  $ACA0  C5 00     CMP $00
  $ACA2  F0 08     BEQ $ACAC
  $ACA4  90 04     BCC $ACAA
  $ACA6  D6 A8     DEC $A8,X
  $ACA8  D6 A8     DEC $A8,X
  $ACAA  F6 A8     INC $A8,X
  $ACAC  60        RTS 
  $ACAD  BD 84 03  LDA $0384,X
  $ACB0  F0 0E     BEQ $ACC0
  $ACB2  DE 84 03  DEC $0384,X
  $ACB5  B5 74     LDA $74,X
  $ACB7  29 C0     AND #$C0
  $ACB9  F0 05     BEQ $ACC0
  $ACBB  A9 00     LDA #$00
  $ACBD  9D 84 03  STA $0384,X
  $ACC0  60        RTS 
  $ACC1  B5 AC     LDA $AC,X
  $ACC3  F0 47     BEQ $AD0C
  $ACC5  C9 02     CMP #$02
  $ACC7  F0 1D     BEQ $ACE6
  $ACC9  A9 00     LDA #$00
  $ACCB  F0 10     BEQ $ACDD
  $ACCD  B5 9C     LDA $9C,X
  $ACCF  D0 F8     BNE $ACC9
  $ACD1  B5 98     LDA $98,X
  $ACD3  C9 04     CMP #$04
  $ACD5  B0 F2     BCS $ACC9
  $ACD7  F6 98     INC $98,X
  $ACD9  D0 EE     BNE $ACC9
  $ACDB  B5 98     LDA $98,X
  $ACDD  9D 94 03  STA $0394,X
  $ACE0  20 0D AD  JSR $AD0D
  $ACE3  4C EF AC  JMP $ACEF
  $ACE6  B5 74     LDA $74,X
  $ACE8  4A        LSR 
  $ACE9  90 04     BCC $ACEF
  $ACEB  A5 61     LDA $61
  $ACED  F0 1D     BEQ $AD0C
  $ACEF  B5 74     LDA $74,X
  $ACF1  29 03     AND #$03
  $ACF3  A8        TAY 
  $ACF4  B9 00 A8  LDA $A800,Y
  $ACF7  9D 9C 03  STA $039C,X
  $ACFA  B5 90     LDA $90,X
  $ACFC  85 01     STA $01
  $ACFE  20 49 AD  JSR $AD49
  $AD01  95 90     STA $90,X
  $AD03  B5 C4     LDA $C4,X
  $AD05  D0 05     BNE $AD0C
  $AD07  A9 01     LDA #$01
  $AD09  9D 74 03  STA $0374,X
  $AD0C  60        RTS 
  $AD0D  A9 02     LDA #$02
  $AD0F  95 AC     STA $AC,X
  $AD11  A9 0F     LDA #$0F
  $AD13  9D 90 03  STA $0390,X
  $AD16  B5 94     LDA $94,X
  $AD18  18        CLC 
  $AD19  69 AF     ADC #$AF
  $AD1B  9D 88 03  STA $0388,X
  $AD1E  B5 98     LDA $98,X
  $AD20  69 00     ADC #$00
  $AD22  9D 8C 03  STA $038C,X
  $AD25  BD 98 03  LDA $0398,X
  $AD28  C9 02     CMP #$02
  $AD2A  D0 06     BNE $AD32
  $AD2C  5E 8C 03  LSR $038C,X
  $AD2F  7E 88 03  ROR $0388,X
  $AD32  8A        TXA 
  $AD33  D0 13     BNE $AD48
  $AD35  8D 14 04  STA $0414
  $AD38  B5 98     LDA $98,X
  $AD3A  0A        ASL 
  $AD3B  0A        ASL 
  $AD3C  0A        ASL 
  $AD3D  0A        ASL 
  $AD3E  49 30     EOR #$30
  $AD40  D0 02     BNE $AD44
  $AD42  A9 08     LDA #$08
  $AD44  05 FF     ORA $FF
  $AD46  85 FF     STA $FF
  $AD48  60        RTS 
  $AD49  BD 90 03  LDA $0390,X
  $AD4C  7D 9C 03  ADC $039C,X
  $AD4F  9D 90 03  STA $0390,X
  $AD52  BD 94 03  LDA $0394,X
  $AD55  69 00     ADC #$00
  $AD57  9D 94 03  STA $0394,X
  $AD5A  65 01     ADC $01
  $AD5C  90 03     BCC $AD61
  $AD5E  5E A0 03  LSR $03A0,X
  $AD61  38        SEC 
  $AD62  FD 8C 03  SBC $038C,X
  $AD65  85 01     STA $01
  $AD67  B0 05     BCS $AD6E
  $AD69  A9 01     LDA #$01
  $AD6B  9D A0 03  STA $03A0,X
  $AD6E  A5 01     LDA $01
  $AD70  60        RTS 
  $AD71  A5 3C     LDA $3C
  $AD73  0D C0 03  ORA $03C0
  $AD76  F0 F8     BEQ $AD70
  $AD78  A5 3C     LDA $3C
  $AD7A  C9 08     CMP #$08
  $AD7C  F0 25     BEQ $ADA3
  $AD7E  90 32     BCC $ADB2
  $AD80  A5 98     LDA $98
  $AD82  05 9C     ORA $9C
  $AD84  05 A0     ORA $A0
  $AD86  D0 18     BNE $ADA0
  $AD88  A5 70     LDA $70
  $AD8A  F0 06     BEQ $AD92
  $AD8C  A9 C0     LDA #$C0
  $AD8E  85 94     STA $94
  $AD90  D0 0E     BNE $ADA0
  $AD92  85 94     STA $94
  $AD94  A2 01     LDX #$01
  $AD96  A5 B0     LDA $B0
  $AD98  CD 5C A8  CMP $A85C
  $AD9B  D0 01     BNE $AD9E
  $AD9D  CA        DEX 
  $AD9E  86 8C     STX $8C
  $ADA0  4C F6 92  JMP $92F6
  $ADA3  A9 00     LDA #$00
  $ADA5  8D C0 03  STA $03C0
  $ADA8  A9 05     LDA #$05
  $ADAA  8D E3 03  STA $03E3
  $ADAD  85 A0     STA $A0
  $ADAF  8D 84 03  STA $0384
  $ADB2  4C 2E 93  JMP $932E
  $ADB5  A5 3F     LDA $3F
  $ADB7  29 03     AND #$03
  $ADB9  CD EA 03  CMP $03EA
  $ADBC  D0 B2     BNE $AD70
  $ADBE  CE EA 03  DEC $03EA
  $ADC1  AD EA 03  LDA $03EA
  $ADC4  29 03     AND #$03
  $ADC6  8D EA 03  STA $03EA
  $ADC9  A2 03     LDX #$03
  $ADCB  B5 9C     LDA $9C,X
  $ADCD  F0 57     BEQ $AE26
  $ADCF  A0 04     LDY #$04
  $ADD1  8A        TXA 
  $ADD2  D0 14     BNE $ADE8
  $ADD4  8D B9 03  STA $03B9
  $ADD7  85 FC     STA $FC
  $ADD9  A5 61     LDA $61
  $ADDB  D0 06     BNE $ADE3
  $ADDD  A9 01     LDA #$01
  $ADDF  05 FD     ORA $FD
  $ADE1  85 FD     STA $FD
  $ADE3  A5 1B     LDA $1B
  $ADE5  29 03     AND #$03
  $ADE7  A8        TAY 
  $ADE8  98        TYA 
  $ADE9  9D C4 03  STA $03C4,X
  $ADEC  B5 98     LDA $98,X
  $ADEE  D0 29     BNE $AE19
  $ADF0  B5 AC     LDA $AC,X
  $ADF2  15 70     ORA $70,X
  $ADF4  D0 1F     BNE $AE15
  $ADF6  95 94     STA $94,X
  $ADF8  95 78     STA $78,X
  $ADFA  95 9C     STA $9C,X
  $ADFC  A9 06     LDA #$06
  $ADFE  95 A8     STA $A8,X
  $AE00  B5 80     LDA $80,X
  $AE02  18        CLC 
  $AE03  69 08     ADC #$08
  $AE05  9D A4 03  STA $03A4,X
  $AE08  20 C6 A9  JSR $A9C6
  $AE0B  A9 02     LDA #$02
  $AE0D  9D AC 03  STA $03AC,X
  $AE10  4A        LSR 
  $AE11  95 A0     STA $A0,X
  $AE13  D0 11     BNE $AE26
  $AE15  A9 88     LDA #$88
  $AE17  95 94     STA $94,X
  $AE19  B5 25     LDA $25,X
  $AE1B  D0 09     BNE $AE26
  $AE1D  B5 A8     LDA $A8,X
  $AE1F  18        CLC 
  $AE20  75 9C     ADC $9C,X
  $AE22  29 0F     AND #$0F
  $AE24  95 A8     STA $A8,X
  $AE26  CA        DEX 
  $AE27  10 A2     BPL $ADCB
  $AE29  60        RTS 
  $AE2A  A5 24     LDA $24
  $AE2C  C9 01     CMP #$01
  $AE2E  F0 71     BEQ $AEA1
  $AE30  A4 6A     LDY $6A
  $AE32  D0 6C     BNE $AEA0
  $AE34  C9 60     CMP #$60
  $AE36  B0 0F     BCS $AE47
  $AE38  AD B9 03  LDA $03B9
  $AE3B  F0 0A     BEQ $AE47
  $AE3D  A5 15     LDA $15
  $AE3F  29 C0     AND #$C0
  $AE41  F0 04     BEQ $AE47
  $AE43  A9 01     LDA #$01
  $AE45  85 FE     STA $FE
  $AE47  A0 F0     LDY #$F0
  $AE49  A5 24     LDA $24
  $AE4B  C9 10     CMP #$10
  $AE4D  B0 08     BCS $AE57
  $AE4F  A0 F2     LDY #$F2
  $AE51  C9 08     CMP #$08
  $AE53  B0 02     BCS $AE57
  $AE55  A0 F4     LDY #$F4
  $AE57  C9 72     CMP #$72
  $AE59  D0 06     BNE $AE61
  $AE5B  A9 20     LDA #$20
  $AE5D  05 FB     ORA $FB
  $AE5F  85 FB     STA $FB
  $AE61  84 00     STY $00
  $AE63  AD E1 03  LDA $03E1
  $AE66  85 01     STA $01
  $AE68  A0 07     LDY #$07
  $AE6A  98        TYA 
  $AE6B  0A        ASL 
  $AE6C  0A        ASL 
  $AE6D  AA        TAX 
  $AE6E  B9 83 A8  LDA $A883,Y
  $AE71  9D C0 02  STA $02C0,X
  $AE74  A5 00     LDA $00
  $AE76  9D C1 02  STA $02C1,X
  $AE79  A9 00     LDA #$00
  $AE7B  9D C2 02  STA $02C2,X
  $AE7E  A5 01     LDA $01
  $AE80  9D C3 02  STA $02C3,X
  $AE83  98        TYA 
  $AE84  4A        LSR 
  $AE85  90 05     BCC $AE8C
  $AE87  FE C1 02  INC $02C1,X
  $AE8A  D0 09     BNE $AE95
  $AE8C  A5 01     LDA $01
  $AE8E  38        SEC 
  $AE8F  E9 10     SBC #$10
  $AE91  85 01     STA $01
  $AE93  90 03     BCC $AE98
  $AE95  88        DEY 
  $AE96  10 D2     BPL $AE6A
  $AE98  A5 34     LDA $34
  $AE9A  F0 04     BEQ $AEA0
  $AE9C  A9 88     LDA #$88
  $AE9E  85 24     STA $24
  $AEA0  60        RTS 
  $AEA1  A9 01     LDA #$01
  $AEA3  85 6A     STA $6A
  $AEA5  AD E1 03  LDA $03E1
  $AEA8  38        SEC 
  $AEA9  E5 78     SBC $78
  $AEAB  8D E1 03  STA $03E1
  $AEAE  90 F0     BCC $AEA0
  $AEB0  A9 02     LDA #$02
  $AEB2  85 24     STA $24
  $AEB4  D0 91     BNE $AE47
  $AEB6  B5 84     LDA $84,X
  $AEB8  4A        LSR 
  $AEB9  90 26     BCC $AEE1
  $AEBB  A0 40     LDY #$40
  $AEBD  B5 80     LDA $80,X
  $AEBF  C9 30     CMP #$30
  $AEC1  90 06     BCC $AEC9
  $AEC3  A0 80     LDY #$80
  $AEC5  C9 40     CMP #$40
  $AEC7  90 0E     BCC $AED7
  $AEC9  BD B9 03  LDA $03B9,X
  $AECC  F0 13     BEQ $AEE1
  $AECE  98        TYA 
  $AECF  05 FF     ORA $FF
  $AED1  85 FF     STA $FF
  $AED3  A9 00     LDA #$00
  $AED5  F0 02     BEQ $AED9
  $AED7  A9 01     LDA #$01
  $AED9  9D B9 03  STA $03B9,X
  $AEDC  4C E1 AE  JMP $AEE1
  $AEDF  A2 04     LDX #$04
  $AEE1  CA        DEX 
  $AEE2  D0 D2     BNE $AEB6
  $AEE4  60        RTS 
  $AEE5  A2 00     LDX #$00
  $AEE7  AD B9 03  LDA $03B9
  $AEEA  F0 44     BEQ $AF30
  $AEEC  A5 61     LDA $61
  $AEEE  4A        LSR 
  $AEEF  B0 AF     BCS $AEA0
  $AEF1  A2 02     LDX #$02
  $AEF3  A5 98     LDA $98
  $AEF5  85 00     STA $00
  $AEF7  A5 94     LDA $94
  $AEF9  85 01     STA $01
  $AEFB  46 00     LSR $00
  $AEFD  66 01     ROR $01
  $AEFF  CA        DEX 
  $AF00  10 F9     BPL $AEFB
  $AF02  A9 02     LDA #$02
  $AF04  A4 AC     LDY $AC
  $AF06  F0 02     BEQ $AF0A
  $AF08  A9 04     LDA #$04
  $AF0A  AA        TAX 
  $AF0B  A5 01     LDA $01
  $AF0D  38        SEC 
  $AF0E  E9 02     SBC #$02
  $AF10  30 06     BMI $AF18
  $AF12  20 AA AF  JSR $AFAA
  $AF15  8A        TXA 
  $AF16  D0 02     BNE $AF1A
  $AF18  A2 01     LDX #$01
  $AF1A  E0 2F     CPX #$2F
  $AF1C  90 09     BCC $AF27
  $AF1E  A2 2F     LDX #$2F
  $AF20  A5 3F     LDA $3F
  $AF22  29 08     AND #$08
  $AF24  D0 01     BNE $AF27
  $AF26  CA        DEX 
  $AF27  A5 74     LDA $74
  $AF29  0A        ASL 
  $AF2A  B0 04     BCS $AF30
  $AF2C  8A        TXA 
  $AF2D  09 80     ORA #$80
  $AF2F  AA        TAX 
  $AF30  86 FC     STX $FC
  $AF32  60        RTS 
  $AF33  A5 6A     LDA $6A
  $AF35  F0 24     BEQ $AF5B
  $AF37  A5 65     LDA $65
  $AF39  18        CLC 
  $AF3A  69 10     ADC #$10
  $AF3C  85 65     STA $65
  $AF3E  A5 65     LDA $65
  $AF40  C9 0A     CMP #$0A
  $AF42  B0 18     BCS $AF5C
  $AF44  A2 02     LDX #$02
  $AF46  B5 62     LDA $62,X
  $AF48  95 05     STA $05,X
  $AF4A  CA        DEX 
  $AF4B  10 F9     BPL $AF46
  $AF4D  20 89 AF  JSR $AF89
  $AF50  A2 06     LDX #$06
  $AF52  BD 01 04  LDA $0401,X
  $AF55  9D 09 04  STA $0409,X
  $AF58  CA        DEX 
  $AF59  10 F7     BPL $AF52
  $AF5B  60        RTS 
  $AF5C  A5 65     LDA $65
  $AF5E  38        SEC 
  $AF5F  E9 0A     SBC #$0A
  $AF61  85 65     STA $65
  $AF63  E6 64     INC $64
  $AF65  A5 64     LDA $64
  $AF67  C9 64     CMP #$64
  $AF69  90 D3     BCC $AF3E
  $AF6B  A9 00     LDA #$00
  $AF6D  85 64     STA $64
  $AF6F  E6 63     INC $63
  $AF71  A5 63     LDA $63
  $AF73  C9 3C     CMP #$3C
  $AF75  90 C7     BCC $AF3E
  $AF77  A9 00     LDA #$00
  $AF79  85 63     STA $63
  $AF7B  E6 62     INC $62
  $AF7D  A5 62     LDA $62
  $AF7F  C9 03     CMP #$03
  $AF81  90 BB     BCC $AF3E
  $AF83  A9 02     LDA #$02
  $AF85  85 66     STA $66
  $AF87  D0 BB     BNE $AF44
  $AF89  A5 07     LDA $07
  $AF8B  20 A8 AF  JSR DivBy10
  $AF8E  8E 06 04  STX $0406
  $AF91  8D 07 04  STA $0407
  $AF94  A5 06     LDA $06
  $AF96  20 A8 AF  JSR DivBy10
  $AF99  8E 03 04  STX $0403
  $AF9C  8D 04 04  STA $0404
  $AF9F  A5 05     LDA $05
  $AFA1  20 A8 AF  JSR DivBy10
  $AFA4  8D 01 04  STA $0401
  $AFA7  60        RTS 

DivBy10:
  $AFA8  A2 0A     LDX #$0A
  $AFAA  86 0F     STX $0F
  $AFAC  A2 00     LDX #$00
  $AFAE  E8        INX 
  $AFAF  38        SEC 
  $AFB0  E5 0F     SBC $0F
  $AFB2  10 FA     BPL $AFAE
  $AFB4  CA        DEX 
  $AFB5  65 0F     ADC $0F
  $AFB7  60        RTS 
  $AFB8  A0 00     LDY #$00
  $AFBA  B5 A0     LDA $A0,X
  $AFBC  D0 19     BNE $AFD7
  $AFBE  B5 B0     LDA $B0,X
  $AFC0  D9 AF A8  CMP $A8AF,Y
  $AFC3  30 07     BMI $AFCC
  $AFC5  C8        INY 
  $AFC6  C0 05     CPY #$05
  $AFC8  30 F6     BMI $AFC0
  $AFCA  A0 00     LDY #$00
  $AFCC  98        TYA 
  $AFCD  F0 08     BEQ $AFD7
  $AFCF  A9 01     LDA #$01
  $AFD1  D5 BC     CMP $BC,X
  $AFD3  D0 02     BNE $AFD7
  $AFD5  C8        INY 
  $AFD6  C8        INY 
  $AFD7  98        TYA 
  $AFD8  9D CC 03  STA $03CC,X
  $AFDB  60        RTS 
  $AFDC  A2 00     LDX #$00
  $AFDE  A0 01     LDY #$01
  $AFE0  B5 A4     LDA $A4,X
  $AFE2  D0 03     BNE $AFE7
  $AFE4  4C B7 B0  JMP $B0B7
  $AFE7  B9 A4 00  LDA $00A4,Y
  $AFEA  F0 39     BEQ $B025
  $AFEC  B5 84     LDA $84,X
  $AFEE  4A        LSR 
  $AFEF  90 F3     BCC $AFE4
  $AFF1  B9 84 00  LDA $0084,Y
  $AFF4  4A        LSR 
  $AFF5  90 2E     BCC $B025
  $AFF7  BD CC 03  LDA $03CC,X
  $AFFA  F0 E8     BEQ $AFE4
  $AFFC  D9 CC 03  CMP $03CC,Y
  $AFFF  D0 24     BNE $B025
  $B001  B5 9C     LDA $9C,X
  $B003  1D C0 03  ORA $03C0,X
  $B006  D0 DC     BNE $AFE4
  $B008  B9 9C 00  LDA $009C,Y
  $B00B  D0 18     BNE $B025
  $B00D  B5 AC     LDA $AC,X
  $B00F  D0 05     BNE $B016
  $B011  B9 AC 00  LDA $00AC,Y
  $B014  F0 1C     BEQ $B032
  $B016  B5 90     LDA $90,X
  $B018  D9 90 00  CMP $0090,Y
  $B01B  B0 0B     BCS $B028
  $B01D  20 C2 B0  JSR $B0C2
  $B020  D9 90 00  CMP $0090,Y
  $B023  B0 0D     BCS $B032
  $B025  4C AF B0  JMP $B0AF
  $B028  B9 90 00  LDA $0090,Y
  $B02B  20 C2 B0  JSR $B0C2
  $B02E  D5 90     CMP $90,X
  $B030  90 F3     BCC $B025
  $B032  B5 80     LDA $80,X
  $B034  D9 80 00  CMP $0080,Y
  $B037  B0 14     BCS $B04D
  $B039  20 C9 B0  JSR $B0C9
  $B03C  D9 80 00  CMP $0080,Y
  $B03F  B0 28     BCS $B069
  $B041  B5 80     LDA $80,X
  $B043  20 C2 B0  JSR $B0C2
  $B046  D9 80 00  CMP $0080,Y
  $B049  B0 18     BCS $B063
  $B04B  90 D8     BCC $B025
  $B04D  B9 80 00  LDA $0080,Y
  $B050  20 C9 B0  JSR $B0C9
  $B053  D5 80     CMP $80,X
  $B055  B0 12     BCS $B069
  $B057  B9 80 00  LDA $0080,Y
  $B05A  20 C2 B0  JSR $B0C2
  $B05D  D5 80     CMP $80,X
  $B05F  B0 0C     BCS $B06D
  $B061  90 4C     BCC $B0AF
  $B063  A9 FF     LDA #$FF
  $B065  95 9C     STA $9C,X
  $B067  F0 3C     BEQ $B0A5
  $B069  A9 FF     LDA #$FF
  $B06B  95 9C     STA $9C,X
  $B06D  E0 00     CPX #$00
  $B06F  D0 08     BNE $B079
  $B071  C0 03     CPY #$03
  $B073  D0 04     BNE $B079
  $B075  A9 10     LDA #$10
  $B077  85 3B     STA $3B
  $B079  A5 9C     LDA $9C
  $B07B  D0 23     BNE $B0A0
  $B07D  E0 00     CPX #$00
  $B07F  D0 1F     BNE $B0A0
  $B081  A5 94     LDA $94
  $B083  05 98     ORA $98
  $B085  F0 19     BEQ $B0A0
  $B087  A9 02     LDA #$02
  $B089  8D F9 03  STA $03F9
  $B08C  EE 1C 06  INC $061C
  $B08F  AD 1C 06  LDA $061C
  $B092  C9 05     CMP #$05
  $B094  D0 0A     BNE $B0A0
  $B096  A9 01     LDA #$01
  $B098  8D 1D 06  STA $061D
  $B09B  A9 20     LDA #$20
  $B09D  8D E3 03  STA $03E3
  $B0A0  A9 FF     LDA #$FF
  $B0A2  99 9C 00  STA $009C,Y
  $B0A5  E0 00     CPX #$00
  $B0A7  D0 06     BNE $B0AF
  $B0A9  A9 01     LDA #$01
  $B0AB  05 FD     ORA $FD
  $B0AD  85 FD     STA $FD
  $B0AF  C8        INY 
  $B0B0  C0 04     CPY #$04
  $B0B2  F0 03     BEQ $B0B7
  $B0B4  4C E7 AF  JMP $AFE7
  $B0B7  E8        INX 
  $B0B8  8A        TXA 
  $B0B9  A8        TAY 
  $B0BA  C8        INY 
  $B0BB  E0 03     CPX #$03
  $B0BD  F0 09     BEQ $B0C8
  $B0BF  4C E0 AF  JMP $AFE0
  $B0C2  C9 E7     CMP #$E7
  $B0C4  B0 02     BCS $B0C8
  $B0C6  69 0C     ADC #$0C
  $B0C8  60        RTS 
  $B0C9  C9 E7     CMP #$E7
  $B0CB  B0 02     BCS $B0CF
  $B0CD  69 02     ADC #$02
  $B0CF  60        RTS 
  $B0D0  A5 A0     LDA $A0
  $B0D2  D0 48     BNE $B11C
  $B0D4  AA        TAX 
  $B0D5  A5 87     LDA $87
  $B0D7  4A        LSR 
  $B0D8  90 42     BCC $B11C
  $B0DA  AD 83 03  LDA $0383
  $B0DD  F0 3D     BEQ $B11C
  $B0DF  A5 B0     LDA $B0
  $B0E1  38        SEC 
  $B0E2  E9 03     SBC #$03
  $B0E4  CD D7 03  CMP $03D7
  $B0E7  B0 33     BCS $B11C
  $B0E9  69 07     ADC #$07
  $B0EB  CD D7 03  CMP $03D7
  $B0EE  90 2C     BCC $B11C
  $B0F0  A5 80     LDA $80
  $B0F2  CD A7 03  CMP $03A7
  $B0F5  B0 25     BCS $B11C
  $B0F7  69 12     ADC #$12
  $B0F9  CD A7 03  CMP $03A7
  $B0FC  90 1E     BCC $B11C
  $B0FE  20 63 AC  JSR $AC63
  $B101  38        SEC 
  $B102  E9 08     SBC #$08
  $B104  C5 90     CMP $90
  $B106  B0 14     BCS $B11C
  $B108  A0 FF     LDY #$FF
  $B10A  84 9C     STY $9C
  $B10C  C8        INY 
  $B10D  84 8F     STY $8F
  $B10F  C8        INY 
  $B110  84 A3     STY $A3
  $B112  C8        INY 
  $B113  8C AF 03  STY $03AF
  $B116  A9 01     LDA #$01
  $B118  05 FD     ORA $FD
  $B11A  85 FD     STA $FD
  $B11C  60        RTS 
  $B11D  A5 3A     LDA $3A
  $B11F  05 66     ORA $66
  $B121  05 24     ORA $24
  $B123  D0 AA     BNE $B0CF
  $B125  AD B0 03  LDA $03B0
  $B128  D0 17     BNE $B141
  $B12A  A5 22     LDA $22
  $B12C  D0 A1     BNE $B0CF
  $B12E  A5 18     LDA $18
  $B130  29 03     AND #$03
  $B132  AA        TAX 
  $B133  BD 8F A8  LDA $A88F,X
  $B136  8D B1 03  STA $03B1
  $B139  A9 F8     LDA #$F8
  $B13B  8D E4 03  STA $03E4
  $B13E  8D B0 03  STA $03B0
  $B141  A9 50     LDA #$50
  $B143  85 01     STA $01
  $B145  AD E4 03  LDA $03E4
  $B148  38        SEC 
  $B149  E5 78     SBC $78
  $B14B  8D E4 03  STA $03E4
  $B14E  A5 78     LDA $78
  $B150  F0 09     BEQ $B15B
  $B152  A5 3F     LDA $3F
  $B154  29 0F     AND #$0F
  $B156  D0 03     BNE $B15B
  $B158  CE E4 03  DEC $03E4
  $B15B  AD E4 03  LDA $03E4
  $B15E  85 00     STA $00
  $B160  C9 FC     CMP #$FC
  $B162  90 0C     BCC $B170
  $B164  A5 18     LDA $18
  $B166  29 A0     AND #$A0
  $B168  85 22     STA $22
  $B16A  A9 00     LDA #$00
  $B16C  8D B0 03  STA $03B0
  $B16F  60        RTS 
  $B170  AD B1 03  LDA $03B1
  $B173  85 02     STA $02
  $B175  A9 22     LDA #$22
  $B177  85 03     STA $03
  $B179  A9 C0     LDA #$C0
  $B17B  85 04     STA $04
  $B17D  A9 20     LDA #$20
  $B17F  85 0B     STA $0B
  $B181  20 11 98  JSR SpriteTileDraw
  $B184  AD E4 03  LDA $03E4
  $B187  C9 60     CMP #$60
  $B189  B0 2A     BCS $B1B5
  $B18B  AE B1 03  LDX $03B1
  $B18E  E8        INX 
  $B18F  E8        INX 
  $B190  E8        INX 
  $B191  86 00     STX $00
  $B193  20 A3 B1  JSR $B1A3
  $B196  AE B1 03  LDX $03B1
  $B199  E8        INX 
  $B19A  86 00     STX $00
  $B19C  A5 04     LDA $04
  $B19E  18        CLC 
  $B19F  69 08     ADC #$08
  $B1A1  85 04     STA $04
  $B1A3  A0 06     LDY #$06
  $B1A5  A9 60     LDA #$60
  $B1A7  91 04     STA ($04),Y
  $B1A9  88        DEY 
  $B1AA  A5 00     LDA $00
  $B1AC  91 04     STA ($04),Y
  $B1AE  C6 00     DEC $00
  $B1B0  88        DEY 
  $B1B1  88        DEY 
  $B1B2  88        DEY 
  $B1B3  10 F0     BPL $B1A5
  $B1B5  60        RTS 
  $B1B6  20 6E B4  JSR $B46E
  $B1B9  A2 03     LDX #$03
  $B1BB  86 0D     STX $0D
  $B1BD  BD 58 A8  LDA $A858,X
  $B1C0  85 04     STA $04
  $B1C2  AD 1D 06  LDA $061D
  $B1C5  0A        ASL 
  $B1C6  0A        ASL 
  $B1C7  1D C8 03  ORA $03C8,X
  $B1CA  A8        TAY 
  $B1CB  BD C8 03  LDA $03C8,X
  $B1CE  AA        TAX 
  $B1CF  B5 A4     LDA $A4,X
  $B1D1  F0 0B     BEQ $B1DE
  $B1D3  B9 61 A8  LDA $A861,Y
  $B1D6  85 0B     STA $0B
  $B1D8  20 0A B2  JSR EntitySpriteLayout
  $B1DB  20 DC B2  JSR $B2DC
  $B1DE  A6 0D     LDX $0D
  $B1E0  CA        DEX 
  $B1E1  10 D8     BPL $B1BB
  $B1E3  60        RTS 

EntityAnimLoop:
  $B1E4  A2 02     LDX #$02 ; EntityAnimLoop: X=2->1; DEC $80
  $B1E6  B5 80     LDA $80,X
  $B1E8  38        SEC 
  $B1E9  E9 02     SBC #$02
  $B1EB  95 80     STA $80,X
  $B1ED  B0 02     BCS $B1F1
  $B1EF  D6 84     DEC $84,X
  $B1F1  BD 58 A8  LDA $A858,X
  $B1F4  85 04     STA $04
  $B1F6  95 94     STA $94,X
  $B1F8  A9 01     LDA #$01
  $B1FA  85 0B     STA $0B
  $B1FC  20 0A B2  JSR EntitySpriteLayout
  $B1FF  20 8C 98  JSR SpriteFillHelper
  $B202  CA        DEX 
  $B203  D0 E1     BNE $B1E6
  $B205  A0 02     LDY #$02
  $B207  4C D9 B4  JMP EntityAnimContinue

EntitySpriteLayout:
  $B20A  B5 80     LDA $80,X ; EntitySpriteLayout: OAM layout for entity X; reads $A82A
  $B20C  85 00     STA $00
  $B20E  B5 90     LDA $90,X
  $B210  85 01     STA $01
  $B212  BD A0 03  LDA $03A0,X
  $B215  F0 06     BEQ $B21D
  $B217  A5 01     LDA $01
  $B219  C9 EC     CMP #$EC
  $B21B  90 4D     BCC $B26A
  $B21D  20 6B B2  JSR $B26B
  $B220  A8        TAY 
  $B221  B9 2A A8  LDA $A82A,Y
  $B224  85 02     STA $02
  $B226  A9 33     LDA #$33
  $B228  85 03     STA $03
  $B22A  C0 16     CPY #$16
  $B22C  D0 15     BNE $B243
  $B22E  A5 04     LDA $04
  $B230  8D E9 03  STA $03E9
  $B233  18        CLC 
  $B234  69 0C     ADC #$0C
  $B236  85 04     STA $04
  $B238  A5 01     LDA $01
  $B23A  18        CLC 
  $B23B  69 08     ADC #$08
  $B23D  85 01     STA $01
  $B23F  A9 23     LDA #$23
  $B241  85 03     STA $03
  $B243  B9 41 A8  LDA $A841,Y
  $B246  20 11 98  JSR SpriteTileDraw
  $B249  A5 0E     LDA $0E
  $B24B  F0 1D     BEQ $B26A
  $B24D  4A        LSR 
  $B24E  B0 14     BCS $B264
  $B250  A0 11     LDY #$11
  $B252  A9 B2     LDA #$B2
  $B254  C0 09     CPY #$09
  $B256  F0 05     BEQ $B25D
  $B258  91 04     STA ($04),Y
  $B25A  38        SEC 
  $B25B  E9 01     SBC #$01
  $B25D  88        DEY 
  $B25E  88        DEY 
  $B25F  88        DEY 
  $B260  88        DEY 
  $B261  10 F1     BPL $B254
  $B263  60        RTS 
  $B264  A0 15     LDY #$15
  $B266  A9 AE     LDA #$AE
  $B268  91 04     STA ($04),Y
  $B26A  60        RTS 
  $B26B  A9 00     LDA #$00
  $B26D  85 0E     STA $0E
  $B26F  8D E9 03  STA $03E9
  $B272  B5 A0     LDA $A0,X
  $B274  F0 1B     BEQ $B291
  $B276  C9 05     CMP #$05
  $B278  F0 17     BEQ $B291
  $B27A  A0 06     LDY #$06
  $B27C  B5 B4     LDA $B4,X
  $B27E  D0 05     BNE $B285
  $B280  BD 80 03  LDA $0380,X
  $B283  D0 02     BNE $B287
  $B285  A0 02     LDY #$02
  $B287  98        TYA 
  $B288  B4 36     LDY $36,X
  $B28A  F0 02     BEQ $B28E
  $B28C  88        DEY 
  $B28D  98        TYA 
  $B28E  09 10     ORA #$10
  $B290  60        RTS 
  $B291  A4 66     LDY $66
  $B293  88        DEY 
  $B294  D0 0B     BNE $B2A1
  $B296  B5 A8     LDA $A8,X
  $B298  C9 0A     CMP #$0A
  $B29A  D0 05     BNE $B2A1
  $B29C  A0 02     LDY #$02
  $B29E  84 0E     STY $0E
  $B2A0  60        RTS 
  $B2A1  B5 9C     LDA $9C,X
  $B2A3  15 AC     ORA $AC,X
  $B2A5  D0 32     BNE $B2D9
  $B2A7  B5 70     LDA $70,X
  $B2A9  F0 0A     BEQ $B2B5
  $B2AB  C9 0D     CMP #$0D
  $B2AD  D0 2A     BNE $B2D9
  $B2AF  B5 B0     LDA $B0,X
  $B2B1  C9 20     CMP #$20
  $B2B3  90 24     BCC $B2D9
  $B2B5  B5 94     LDA $94,X
  $B2B7  15 98     ORA $98,X
  $B2B9  D0 04     BNE $B2BF
  $B2BB  E6 0E     INC $0E
  $B2BD  D0 1A     BNE $B2D9
  $B2BF  B5 A8     LDA $A8,X
  $B2C1  C9 06     CMP #$06
  $B2C3  D0 14     BNE $B2D9
  $B2C5  A0 14     LDY #$14
  $B2C7  B5 8C     LDA $8C,X
  $B2C9  F0 05     BEQ $B2D0
  $B2CB  10 01     BPL $B2CE
  $B2CD  C8        INY 
  $B2CE  98        TYA 
  $B2CF  60        RTS 
  $B2D0  A5 3F     LDA $3F
  $B2D2  29 02     AND #$02
  $B2D4  F0 03     BEQ $B2D9
  $B2D6  A9 13     LDA #$13
  $B2D8  60        RTS 
  $B2D9  B5 A8     LDA $A8,X
  $B2DB  60        RTS 
  $B2DC  AD E9 03  LDA $03E9
  $B2DF  F0 FA     BEQ $B2DB
  $B2E1  B5 84     LDA $84,X
  $B2E3  C9 02     CMP #$02
  $B2E5  F0 F4     BEQ $B2DB
  $B2E7  BD A4 03  LDA $03A4,X
  $B2EA  C9 F8     CMP #$F8
  $B2EC  B0 ED     BCS $B2DB
  $B2EE  D5 80     CMP $80,X
  $B2F0  90 E9     BCC $B2DB
  $B2F2  BD A4 03  LDA $03A4,X
  $B2F5  85 00     STA $00
  $B2F7  A9 A8     LDA #$A8
  $B2F9  38        SEC 
  $B2FA  FD D4 03  SBC $03D4,X
  $B2FD  85 01     STA $01
  $B2FF  A9 22     LDA #$22
  $B301  85 03     STA $03
  $B303  AD E9 03  LDA $03E9
  $B306  85 04     STA $04
  $B308  B5 BC     LDA $BC,X
  $B30A  F0 02     BEQ $B30E
  $B30C  A9 20     LDA #$20
  $B30E  05 0B     ORA $0B
  $B310  85 0B     STA $0B
  $B312  BC AC 03  LDY $03AC,X
  $B315  B9 A7 A8  LDA $A8A7,Y
  $B318  85 02     STA $02
  $B31A  98        TYA 
  $B31B  F0 02     BEQ $B31F
  $B31D  49 03     EOR #$03
  $B31F  4C 11 98  JMP SpriteTileDraw
  $B322  AD DE 03  LDA $03DE
  $B325  38        SEC 
  $B326  E5 78     SBC $78
  $B328  8D DE 03  STA $03DE
  $B32B  B0 03     BCS $B330
  $B32D  CE DF 03  DEC $03DF
  $B330  A4 66     LDY $66
  $B332  F0 0F     BEQ $B343
  $B334  88        DEY 
  $B335  D0 A4     BNE $B2DB
  $B337  A5 20     LDA $20
  $B339  D0 08     BNE $B343
  $B33B  AD DC 03  LDA $03DC
  $B33E  49 01     EOR #$01
  $B340  8D DC 03  STA $03DC
  $B343  AC DF 03  LDY $03DF
  $B346  88        DEY 
  $B347  D0 2D     BNE $B376
  $B349  AD DE 03  LDA $03DE
  $B34C  85 00     STA $00
  $B34E  A9 50     LDA #$50
  $B350  85 01     STA $01
  $B352  AC DC 03  LDY $03DC
  $B355  B9 81 A8  LDA $A881,Y
  $B358  85 02     STA $02
  $B35A  A9 32     LDA #$32
  $B35C  85 03     STA $03
  $B35E  A9 C0     LDA #$C0
  $B360  85 04     STA $04
  $B362  A9 00     LDA #$00
  $B364  85 0B     STA $0B
  $B366  4C 11 98  JMP SpriteTileDraw
  $B369  BD 7C 03  LDA $037C,X
  $B36C  F0 5D     BEQ $B3CB
  $B36E  B5 98     LDA $98,X
  $B370  15 94     ORA $94,X
  $B372  F0 57     BEQ $B3CB
  $B374  B5 B4     LDA $B4,X
  $B376  D0 53     BNE $B3CB
  $B378  B5 84     LDA $84,X
  $B37A  4A        LSR 
  $B37B  90 4E     BCC $B3CB
  $B37D  B5 80     LDA $80,X
  $B37F  C9 10     CMP #$10
  $B381  90 48     BCC $B3CB
  $B383  18        CLC 
  $B384  69 F9     ADC #$F9
  $B386  99 97 02  STA $0297,Y
  $B389  18        CLC 
  $B38A  69 F8     ADC #$F8
  $B38C  99 9B 02  STA $029B,Y
  $B38F  B5 90     LDA $90,X
  $B391  18        CLC 
  $B392  69 08     ADC #$08
  $B394  99 98 02  STA $0298,Y
  $B397  18        CLC 
  $B398  69 08     ADC #$08
  $B39A  99 94 02  STA $0294,Y
  $B39D  A9 F6     LDA #$F6
  $B39F  99 95 02  STA $0295,Y
  $B3A2  A9 F7     LDA #$F7
  $B3A4  99 99 02  STA $0299,Y
  $B3A7  A5 3F     LDA $3F
  $B3A9  29 04     AND #$04
  $B3AB  F0 0A     BEQ $B3B7
  $B3AD  A9 F7     LDA #$F7
  $B3AF  99 95 02  STA $0295,Y
  $B3B2  A9 F6     LDA #$F6
  $B3B4  99 99 02  STA $0299,Y
  $B3B7  BD 7C 03  LDA $037C,X
  $B3BA  29 02     AND #$02
  $B3BC  99 96 02  STA $0296,Y
  $B3BF  99 9A 02  STA $029A,Y
  $B3C2  B5 98     LDA $98,X
  $B3C4  D0 05     BNE $B3CB
  $B3C6  A9 F8     LDA #$F8
  $B3C8  99 98 02  STA $0298,Y
  $B3CB  60        RTS 
  $B3CC  A5 66     LDA $66
  $B3CE  0D 1D 06  ORA $061D
  $B3D1  D0 69     BNE $B43C
  $B3D3  AD C0 03  LDA $03C0
  $B3D6  F0 09     BEQ $B3E1
  $B3D8  A5 3C     LDA $3C
  $B3DA  4A        LSR 
  $B3DB  B0 5F     BCS $B43C
  $B3DD  A9 FC     LDA #$FC
  $B3DF  D0 61     BNE $B442
  $B3E1  A5 74     LDA $74
  $B3E3  29 C0     AND #$C0
  $B3E5  F0 09     BEQ $B3F0
  $B3E7  A4 6A     LDY $6A
  $B3E9  D0 02     BNE $B3ED
  $B3EB  A9 80     LDA #$80
  $B3ED  0A        ASL 
  $B3EE  2A        ROL 
  $B3EF  2A        ROL 
  $B3F0  A8        TAY 
  $B3F1  AD E3 03  LDA $03E3
  $B3F4  D9 97 A8  CMP $A897,Y
  $B3F7  90 18     BCC $B411
  $B3F9  F0 25     BEQ $B420
  $B3FB  AD E2 03  LDA $03E2
  $B3FE  38        SEC 
  $B3FF  E9 0B     SBC #$0B
  $B401  8D E2 03  STA $03E2
  $B404  B0 1A     BCS $B420
  $B406  AD E3 03  LDA $03E3
  $B409  F0 15     BEQ $B420
  $B40B  CE E3 03  DEC $03E3
  $B40E  4C 20 B4  JMP $B420
  $B411  AD E2 03  LDA $03E2
  $B414  18        CLC 
  $B415  79 93 A8  ADC $A893,Y
  $B418  8D E2 03  STA $03E2
  $B41B  90 03     BCC $B420
  $B41D  EE E3 03  INC $03E3
  $B420  A2 00     LDX #$00
  $B422  AD E3 03  LDA $03E3
  $B425  C9 20     CMP #$20
  $B427  90 05     BCC $B42E
  $B429  85 3C     STA $3C
  $B42B  8D C0 03  STA $03C0
  $B42E  C9 1A     CMP #$1A
  $B430  90 05     BCC $B437
  $B432  88        DEY 
  $B433  D0 02     BNE $B437
  $B435  A2 B0     LDX #$B0
  $B437  8A        TXA 
  $B438  05 FC     ORA $FC
  $B43A  85 FC     STA $FC
  $B43C  A9 FE     LDA #$FE
  $B43E  38        SEC 
  $B43F  ED 1D 06  SBC $061D
  $B442  85 01     STA $01
  $B444  AD E3 03  LDA $03E3
  $B447  18        CLC 
  $B448  69 50     ADC #$50
  $B44A  85 00     STA $00
  $B44C  A2 0C     LDX #$0C
  $B44E  A9 CF     LDA #$CF
  $B450  9D F0 02  STA $02F0,X
  $B453  A5 01     LDA $01
  $B455  9D F1 02  STA $02F1,X
  $B458  A9 20     LDA #$20
  $B45A  9D F2 02  STA $02F2,X
  $B45D  A5 00     LDA $00
  $B45F  9D F3 02  STA $02F3,X
  $B462  18        CLC 
  $B463  69 08     ADC #$08
  $B465  85 00     STA $00
  $B467  CA        DEX 
  $B468  CA        DEX 
  $B469  CA        DEX 
  $B46A  CA        DEX 
  $B46B  10 E1     BPL $B44E
  $B46D  60        RTS 
  $B46E  A2 03     LDX #$03
  $B470  8A        TXA 
  $B471  9D C8 03  STA $03C8,X
  $B474  B5 B0     LDA $B0,X
  $B476  95 00     STA $00,X
  $B478  CA        DEX 
  $B479  10 F5     BPL $B470
  $B47B  AD 83 03  LDA $0383
  $B47E  F0 05     BEQ $B485
  $B480  AD D7 03  LDA $03D7
  $B483  85 03     STA $03
  $B485  A2 03     LDX #$03
  $B487  86 0D     STX $0D
  $B489  A0 00     LDY #$00
  $B48B  BE C8 03  LDX $03C8,Y
  $B48E  B5 00     LDA $00,X
  $B490  BE C9 03  LDX $03C9,Y
  $B493  D5 00     CMP $00,X
  $B495  90 0A     BCC $B4A1
  $B497  B9 C8 03  LDA $03C8,Y
  $B49A  99 C9 03  STA $03C9,Y
  $B49D  8A        TXA 
  $B49E  99 C8 03  STA $03C8,Y
  $B4A1  C8        INY 
  $B4A2  C4 0D     CPY $0D
  $B4A4  D0 E5     BNE $B48B
  $B4A6  C6 0D     DEC $0D
  $B4A8  D0 DF     BNE $B489
  $B4AA  60        RTS 
  $B4AB  AD B3 03  LDA $03B3
  $B4AE  F0 26     BEQ $B4D6
  $B4B0  A2 03     LDX #$03
  $B4B2  BD C8 03  LDA $03C8,X
  $B4B5  F0 14     BEQ $B4CB
  $B4B7  C9 03     CMP #$03
  $B4B9  D0 05     BNE $B4C0
  $B4BB  AD 83 03  LDA $0383
  $B4BE  D0 0B     BNE $B4CB
  $B4C0  BD 58 A8  LDA $A858,X
  $B4C3  85 07     STA $07
  $B4C5  AC E0 03  LDY $03E0
  $B4C8  20 38 B5  JSR $B538
  $B4CB  CA        DEX 
  $B4CC  10 E4     BPL $B4B2
  $B4CE  AD E0 03  LDA $03E0
  $B4D1  49 02     EOR #$02
  $B4D3  8D E0 03  STA $03E0
  $B4D6  60        RTS 
  $B4D7  A0 03     LDY #$03

EntityAnimContinue:
  $B4D9  84 05     STY $05 ; EntityAnimContinue: Y=$05 loop; $03C8
  $B4DB  B9 C8 03  LDA $03C8,Y
  $B4DE  F0 36     BEQ $B516
  $B4E0  AA        TAX 
  $B4E1  B9 58 A8  LDA $A858,Y
  $B4E4  85 07     STA $07
  $B4E6  B5 84     LDA $84,X
  $B4E8  85 02     STA $02
  $B4EA  85 03     STA $03
  $B4EC  85 04     STA $04
  $B4EE  4A        LSR 
  $B4EF  B0 14     BCS $B505
  $B4F1  B5 80     LDA $80,X
  $B4F3  C9 70     CMP #$70
  $B4F5  90 0E     BCC $B505
  $B4F7  C9 90     CMP #$90
  $B4F9  B0 0A     BCS $B505
  $B4FB  20 4A AB  JSR $AB4A
  $B4FE  A9 01     LDA #$01
  $B500  8D B6 03  STA $03B6
  $B503  D0 0E     BNE $B513
  $B505  B5 80     LDA $80,X
  $B507  C9 F8     CMP #$F8
  $B509  90 02     BCC $B50D
  $B50B  E6 03     INC $03
  $B50D  C9 F0     CMP #$F0
  $B50F  90 02     BCC $B513
  $B511  E6 04     INC $04
  $B513  20 1C B5  JSR $B51C
  $B516  A4 05     LDY $05
  $B518  88        DEY 
  $B519  10 BE     BPL EntityAnimContinue
  $B51B  60        RTS 
  $B51C  A2 00     LDX #$00
  $B51E  B5 02     LDA $02,X
  $B520  4A        LSR 
  $B521  B0 0F     BCS $B532
  $B523  8A        TXA 
  $B524  A8        TAY 
  $B525  AD BE 03  LDA $03BE
  $B528  F0 05     BEQ $B52F
  $B52A  98        TYA 
  $B52B  49 03     EOR #$03
  $B52D  A8        TAY 
  $B52E  88        DEY 
  $B52F  20 38 B5  JSR $B538
  $B532  E8        INX 
  $B533  E0 03     CPX #$03
  $B535  90 E7     BCC $B51E
  $B537  60        RTS 
  $B538  A9 02     LDA #$02
  $B53A  85 01     STA $01
  $B53C  A5 07     LDA $07
  $B53E  18        CLC 
  $B53F  79 78 A8  ADC $A878,Y
  $B542  85 00     STA $00
  $B544  A0 00     LDY #$00
  $B546  A9 F8     LDA #$F8
  $B548  91 00     STA ($00),Y
  $B54A  C8        INY 
  $B54B  C8        INY 
  $B54C  C8        INY 
  $B54D  C8        INY 
  $B54E  C0 0C     CPY #$0C
  $B550  90 F6     BCC $B548
  $B552  60        RTS 
  $B553  A2 01     LDX #$01
  $B555  86 0C     STX $0C
  $B557  B5 84     LDA $84,X
  $B559  4A        LSR 
  $B55A  B0 08     BCS $B564
  $B55C  D0 37     BNE $B595
  $B55E  B5 80     LDA $80,X
  $B560  C9 F8     CMP #$F8
  $B562  90 31     BCC $B595
  $B564  A9 00     LDA #$00
  $B566  85 0A     STA $0A
  $B568  8A        TXA 
  $B569  A8        TAY 
  $B56A  C8        INY 
  $B56B  84 05     STY $05
  $B56D  B9 84 00  LDA $0084,Y
  $B570  4A        LSR 
  $B571  B0 08     BCS $B57B
  $B573  D0 15     BNE $B58A
  $B575  B5 80     LDA $80,X
  $B577  C9 F8     CMP #$F8
  $B579  90 0F     BCC $B58A
  $B57B  20 B7 B5  JSR $B5B7
  $B57E  F0 0A     BEQ $B58A
  $B580  E6 0A     INC $0A
  $B582  A5 0B     LDA $0B
  $B584  0A        ASL 
  $B585  0A        ASL 
  $B586  05 05     ORA $05
  $B588  85 0B     STA $0B
  $B58A  C8        INY 
  $B58B  C0 04     CPY #$04
  $B58D  90 DC     BCC $B56B
  $B58F  A5 0A     LDA $0A
  $B591  C9 02     CMP #$02
  $B593  B0 09     BCS $B59E
  $B595  A6 0C     LDX $0C
  $B597  CA        DEX 
  $B598  10 BB     BPL $B555
  $B59A  A9 00     LDA #$00
  $B59C  F0 15     BEQ $B5B3
  $B59E  D0 11     BNE $B5B1
  $B5A0  A5 0B     LDA $0B
  $B5A2  48        PHA 
  $B5A3  29 03     AND #$03
  $B5A5  A8        TAY 
  $B5A6  68        PLA 
  $B5A7  4A        LSR 
  $B5A8  4A        LSR 
  $B5A9  29 03     AND #$03
  $B5AB  AA        TAX 
  $B5AC  20 B7 B5  JSR $B5B7
  $B5AF  F0 E4     BEQ $B595
  $B5B1  A9 01     LDA #$01
  $B5B3  8D B3 03  STA $03B3
  $B5B6  60        RTS 
  $B5B7  B5 90     LDA $90,X
  $B5B9  38        SEC 
  $B5BA  F9 90 00  SBC $0090,Y
  $B5BD  C9 EC     CMP #$EC
  $B5BF  B0 06     BCS $B5C7
  $B5C1  C9 12     CMP #$12
  $B5C3  90 02     BCC $B5C7
  $B5C5  A9 00     LDA #$00
  $B5C7  60        RTS 
  $B5C8  FF FF FF  ISC $FFFF,X
  $B5CB  FF FF FF  ISC $FFFF,X
  $B5CE  FF FF FF  ISC $FFFF,X
  $B5D1  FF FF FF  ISC $FFFF,X
  $B5D4  FF FF FF  ISC $FFFF,X
  $B5D7  FF FF FF  ISC $FFFF,X
  $B5DA  FF FF FF  ISC $FFFF,X
  $B5DD  FF FF FF  ISC $FFFF,X
  $B5E0  FF FF FF  ISC $FFFF,X
  $B5E3  FF FF FF  ISC $FFFF,X
  $B5E6  FF FF FF  ISC $FFFF,X
  $B5E9  FF FF FF  ISC $FFFF,X
  $B5EC  FF FF FF  ISC $FFFF,X
  $B5EF  FF FF FF  ISC $FFFF,X
  $B5F2  FF FF FF  ISC $FFFF,X
  $B5F5  FF FF FF  ISC $FFFF,X
  $B5F8  FF FF FF  ISC $FFFF,X
  $B5FB  FF FF FF  ISC $FFFF,X
  $B5FE  FF FF FF  ISC $FFFF,X
  $B601  FF FF FF  ISC $FFFF,X
  $B604  FF FF FF  ISC $FFFF,X
  $B607  FF FF FF  ISC $FFFF,X
  $B60A  FF FF FF  ISC $FFFF,X
  $B60D  FF FF FF  ISC $FFFF,X
  $B610  FF FF FF  ISC $FFFF,X
  $B613  FF FF FF  ISC $FFFF,X
  $B616  FF FF FF  ISC $FFFF,X
  $B619  FF FF FF  ISC $FFFF,X
  $B61C  FF FF FF  ISC $FFFF,X
  $B61F  FF FF FF  ISC $FFFF,X
  $B622  FF FF FF  ISC $FFFF,X
  $B625  FF FF FF  ISC $FFFF,X
  $B628  FF FF FF  ISC $FFFF,X
  $B62B  FF FF FF  ISC $FFFF,X
  $B62E  FF FF FF  ISC $FFFF,X
  $B631  FF FF FF  ISC $FFFF,X
  $B634  FF FF FF  ISC $FFFF,X
  $B637  FF FF FF  ISC $FFFF,X
  $B63A  FF FF FF  ISC $FFFF,X
  $B63D  FF FF FF  ISC $FFFF,X
  $B640  FF FF FF  ISC $FFFF,X
  $B643  FF FF FF  ISC $FFFF,X
  $B646  FF FF FF  ISC $FFFF,X
  $B649  FF FF FF  ISC $FFFF,X
  $B64C  FF FF FF  ISC $FFFF,X
  $B64F  FF FF FF  ISC $FFFF,X
  $B652  FF FF FF  ISC $FFFF,X
  $B655  FF FF FF  ISC $FFFF,X
  $B658  FF FF FF  ISC $FFFF,X
  $B65B  FF FF FF  ISC $FFFF,X
  $B65E  FF FF FF  ISC $FFFF,X
  $B661  FF FF FF  ISC $FFFF,X
  $B664  FF FF FF  ISC $FFFF,X
  $B667  FF FF FF  ISC $FFFF,X
  $B66A  FF FF FF  ISC $FFFF,X
  $B66D  FF FF FF  ISC $FFFF,X
  $B670  FF FF FF  ISC $FFFF,X
  $B673  FF FF FF  ISC $FFFF,X
  $B676  FF FF FF  ISC $FFFF,X
  $B679  FF FF FF  ISC $FFFF,X
  $B67C  FF FF FF  ISC $FFFF,X
  $B67F  FF FF FF  ISC $FFFF,X
  $B682  FF FF FF  ISC $FFFF,X
  $B685  FF FF FF  ISC $FFFF,X
  $B688  FF FF FF  ISC $FFFF,X
  $B68B  FF FF FF  ISC $FFFF,X
  $B68E  FF FF FF  ISC $FFFF,X
  $B691  FF FF FF  ISC $FFFF,X
  $B694  FF FF FF  ISC $FFFF,X
  $B697  FF FF FF  ISC $FFFF,X
  $B69A  FF FF FF  ISC $FFFF,X
  $B69D  FF FF FF  ISC $FFFF,X
  $B6A0  FF FF FF  ISC $FFFF,X
  $B6A3  FF FF FF  ISC $FFFF,X
  $B6A6  FF FF FF  ISC $FFFF,X
  $B6A9  FF FF FF  ISC $FFFF,X
  $B6AC  FF FF FF  ISC $FFFF,X
  $B6AF  FF FF FF  ISC $FFFF,X
  $B6B2  FF FF FF  ISC $FFFF,X
  $B6B5  FF FF FF  ISC $FFFF,X
  $B6B8  FF FF FF  ISC $FFFF,X
  $B6BB  FF FF FF  ISC $FFFF,X
  $B6BE  FF FF FF  ISC $FFFF,X
  $B6C1  FF FF FF  ISC $FFFF,X
  $B6C4  FF FF FF  ISC $FFFF,X
  $B6C7  FF FF FF  ISC $FFFF,X
  $B6CA  FF FF FF  ISC $FFFF,X
  $B6CD  FF FF FF  ISC $FFFF,X
  $B6D0  FF FF FF  ISC $FFFF,X
  $B6D3  FF FF FF  ISC $FFFF,X
  $B6D6  FF FF FF  ISC $FFFF,X
  $B6D9  FF FF FF  ISC $FFFF,X
  $B6DC  FF FF FF  ISC $FFFF,X
  $B6DF  FF FF FF  ISC $FFFF,X
  $B6E2  FF FF FF  ISC $FFFF,X
  $B6E5  FF FF FF  ISC $FFFF,X
  $B6E8  FF FF FF  ISC $FFFF,X
  $B6EB  FF FF FF  ISC $FFFF,X
  $B6EE  FF FF FF  ISC $FFFF,X
  $B6F1  FF FF FF  ISC $FFFF,X
  $B6F4  FF FF FF  ISC $FFFF,X
  $B6F7  FF FF FF  ISC $FFFF,X
  $B6FA  FF FF FF  ISC $FFFF,X
  $B6FD  FF FF FF  ISC $FFFF,X
  $B700  FF FF FF  ISC $FFFF,X
  $B703  FF FF FF  ISC $FFFF,X
  $B706  FF FF FF  ISC $FFFF,X
  $B709  FF FF FF  ISC $FFFF,X
  $B70C  FF FF FF  ISC $FFFF,X
  $B70F  FF FF FF  ISC $FFFF,X
  $B712  FF FF FF  ISC $FFFF,X
  $B715  FF FF FF  ISC $FFFF,X
  $B718  FF FF FF  ISC $FFFF,X
  $B71B  FF FF FF  ISC $FFFF,X
  $B71E  FF FF FF  ISC $FFFF,X
  $B721  FF FF FF  ISC $FFFF,X
  $B724  FF FF FF  ISC $FFFF,X
  $B727  FF FF FF  ISC $FFFF,X
  $B72A  FF FF FF  ISC $FFFF,X
  $B72D  FF FF FF  ISC $FFFF,X
  $B730  FF FF FF  ISC $FFFF,X
  $B733  FF FF FF  ISC $FFFF,X
  $B736  FF FF FF  ISC $FFFF,X
  $B739  FF FF FF  ISC $FFFF,X
  $B73C  FF FF FF  ISC $FFFF,X
  $B73F  FF FF FF  ISC $FFFF,X
  $B742  FF FF FF  ISC $FFFF,X
  $B745  FF FF FF  ISC $FFFF,X
  $B748  FF FF FF  ISC $FFFF,X
  $B74B  FF FF FF  ISC $FFFF,X
  $B74E  FF FF FF  ISC $FFFF,X
  $B751  FF FF FF  ISC $FFFF,X
  $B754  FF FF FF  ISC $FFFF,X
  $B757  FF FF FF  ISC $FFFF,X
  $B75A  FF FF FF  ISC $FFFF,X
  $B75D  FF FF FF  ISC $FFFF,X
  $B760  FF FF FF  ISC $FFFF,X
  $B763  FF FF FF  ISC $FFFF,X
  $B766  FF FF FF  ISC $FFFF,X
  $B769  FF FF FF  ISC $FFFF,X
  $B76C  FF FF FF  ISC $FFFF,X
  $B76F  FF FF FF  ISC $FFFF,X
  $B772  FF FF FF  ISC $FFFF,X
  $B775  FF FF FF  ISC $FFFF,X
  $B778  FF FF FF  ISC $FFFF,X
  $B77B  FF FF FF  ISC $FFFF,X
  $B77E  FF FF FF  ISC $FFFF,X
  $B781  FF FF FF  ISC $FFFF,X
  $B784  FF FF FF  ISC $FFFF,X
  $B787  FF FF FF  ISC $FFFF,X
  $B78A  FF FF FF  ISC $FFFF,X
  $B78D  FF FF FF  ISC $FFFF,X
  $B790  FF FF FF  ISC $FFFF,X
  $B793  FF FF FF  ISC $FFFF,X
  $B796  FF FF FF  ISC $FFFF,X
  $B799  FF FF FF  ISC $FFFF,X
  $B79C  FF FF FF  ISC $FFFF,X
  $B79F  FF FF FF  ISC $FFFF,X
  $B7A2  FF FF FF  ISC $FFFF,X
  $B7A5  FF FF FF  ISC $FFFF,X
  $B7A8  FF FF FF  ISC $FFFF,X
  $B7AB  FF FF FF  ISC $FFFF,X
  $B7AE  FF FF FF  ISC $FFFF,X
  $B7B1  FF FF FF  ISC $FFFF,X
  $B7B4  FF FF FF  ISC $FFFF,X
  $B7B7  FF FF FF  ISC $FFFF,X
  $B7BA  FF FF FF  ISC $FFFF,X
  $B7BD  FF FF FF  ISC $FFFF,X
  $B7C0  FF FF FF  ISC $FFFF,X
  $B7C3  FF FF FF  ISC $FFFF,X
  $B7C6  FF FF FF  ISC $FFFF,X
  $B7C9  FF FF FF  ISC $FFFF,X
  $B7CC  FF FF FF  ISC $FFFF,X
  $B7CF  FF FF FF  ISC $FFFF,X
  $B7D2  FF FF FF  ISC $FFFF,X
  $B7D5  FF FF FF  ISC $FFFF,X
  $B7D8  FF FF FF  ISC $FFFF,X
  $B7DB  FF FF FF  ISC $FFFF,X
  $B7DE  FF FF FF  ISC $FFFF,X
  $B7E1  FF FF FF  ISC $FFFF,X
  $B7E4  FF FF FF  ISC $FFFF,X
  $B7E7  FF FF FF  ISC $FFFF,X
  $B7EA  FF FF FF  ISC $FFFF,X
  $B7ED  FF FF FF  ISC $FFFF,X
  $B7F0  FF FF FF  ISC $FFFF,X
  $B7F3  FF FF FF  ISC $FFFF,X
  $B7F6  FF FF FF  ISC $FFFF,X
  $B7F9  FF FF FF  ISC $FFFF,X
  $B7FC  FF FF FF  ISC $FFFF,X
  $B7FF  FF 93 BB  ISC $BB93,X
  $B802  6F AC 1D  RRA $1DAC
  $B805  CB        ??? 
  $B806  22        ??? 
  $B807  CD 58 BD  CMP $BD58
  $B80A  40        RTI 
  $B80B  93        ??? 
  $B80C  E5 AE     SBC $AE
  $B80E  1A        NOP 
  $B80F  CC BB B1  CPY $B1BB
  $B812  0A        ASL 
  $B813  AA        TAX 
  $B814  09 BC     ORA #$BC
  $B816  EE BB C4  INC $C4BB
  $B819  BD D0 AB  LDA $ABD0,X
  $B81C  C1 AC     CMP ($AC,X)
  $B81E  AD AC 62  LDA $62AC
  $B821  BC EF CA  LDY $CAEF,X
  $B824  29 BC     AND #$BC
  $B826  78        SEI 
  $B827  A7 B7     LAX $B7
  $B829  03 0D     SLO ($0D,X)
  $B82B  BE BE BE  LDX $BEBE,Y
  $B82E  BF BF 06  LAX $06BF,Y
  $B831  21 55     AND ($55,X)
  $B833  02        ??? 
  $B834  FC FC 00  NOP $00FC,X
  $B837  0D 21 EC  ORA $EC21
  $B83A  0A        ASL 
  $B83B  FC FC FC  NOP $FCFC,X
  $B83E  FC FC FC  NOP $FCFC,X
  $B841  19 1D 1C  ORA $1C1D,Y
  $B844  F9 00 B7  SBC $B700,Y
  $B847  C9 B8     CMP #$B8
  $B849  B9 BA BA  LDA $BABA,Y
  $B84C  DE DC F9  DEC $F9DC,X
  $B84F  E1 60     SBC ($60,X)
  $B851  60        RTS 
  $B852  60        RTS 
  $B853  60        RTS 
  $B854  60        RTS 
  $B855  70 70     BVS $B8C7
  $B857  70 70     BVS $B8C9
  $B859  70 60     BVS $B8BB
  $B85B  6C 78 84  JMP ($8478)
  $B85E  90 68     BCC $B8C8
  $B860  70 78     BVS $B8DA
  $B862  80 88     NOP #$88
  $B864  68        PLA 
  $B865  A9 B8     LDA #$B8
  $B867  B8        CLV 
  $B868  28        PLP 
  $B869  8F 07 86  SAX $8607
  $B86C  01 81     ORA ($81,X)
  $B86E  03 81     SLO ($81,X)
  $B870  03 81     SLO ($81,X)
  $B872  01 96     ORA ($96,X)
  $B874  07 8A     SLO $8A
  $B876  01 81     ORA ($81,X)
  $B878  03 81     SLO ($81,X)
  $B87A  03 81     SLO ($81,X)
  $B87C  03 81     SLO ($81,X)
  $B87E  01 95     ORA ($95,X)
  $B880  07 8A     SLO $8A
  $B882  01 81     ORA ($81,X)
  $B884  03 81     SLO ($81,X)
  $B886  03 03     SLO ($03,X)
  $B888  81 01     STA ($01,X)
  $B88A  93        ??? 
  $B88B  07 87     SLO $87
  $B88D  03 81     SLO ($81,X)
  $B88F  03 81     SLO ($81,X)
  $B891  03 81     SLO ($81,X)
  $B893  03 93     SLO ($93,X)
  $B895  07 8B     SLO $8B
  $B897  05 9A     ORA $9A
  $B899  07 88     SLO $88
  $B89B  01 01     ORA ($01,X)
  $B89D  84 02     STY $02
  $B89F  01 84     ORA ($84,X)
  $B8A1  02        ??? 
  $B8A2  01 01     ORA ($01,X)
  $B8A4  9A        TXS 
  $B8A5  08        PHP 
  $B8A6  FF FF 09  ISC $09FF,X
  $B8A9  32        ??? 
  $B8AA  8F 07 86  SAX $8607
  $B8AD  01 81     ORA ($81,X)
  $B8AF  03 81     SLO ($81,X)
  $B8B1  03 81     SLO ($81,X)
  $B8B3  03 81     SLO ($81,X)
  $B8B5  01 96     ORA ($96,X)
  $B8B7  07 8A     SLO $8A
  $B8B9  01 81     ORA ($81,X)
  $B8BB  03 81     SLO ($81,X)
  $B8BD  05 81     ORA $81
  $B8BF  05 95     ORA $95
  $B8C1  07 8A     SLO $8A
  $B8C3  01 81     ORA ($81,X)
  $B8C5  03 81     SLO ($81,X)
  $B8C7  03 81     SLO ($81,X)
  $B8C9  03 81     SLO ($81,X)
  $B8CB  01 93     ORA ($93,X)
  $B8CD  07 87     SLO $87
  $B8CF  03 81     SLO ($81,X)
  $B8D1  03 81     SLO ($81,X)
  $B8D3  03 81     SLO ($81,X)
  $B8D5  03 93     SLO ($93,X)
  $B8D7  07 8B     SLO $8B
  $B8D9  05 03     ORA $03
  $B8DB  05 9A     ORA $9A
  $B8DD  07 84     SLO $84
  $B8DF  01 84     ORA ($84,X)
  $B8E1  02        ??? 
  $B8E2  01 84     ORA ($84,X)
  $B8E4  02        ??? 
  $B8E5  01 01     ORA ($01,X)
  $B8E7  03 81     SLO ($81,X)
  $B8E9  01 8B     ORA ($8B,X)
  $B8EB  08        PHP 
  $B8EC  FF FF 09  ISC $09FF,X
  $B8EF  13 16     SLO ($16),Y
  $B8F1  2B        ??? 
  $B8F2  43 68     SRE ($68,X)
  $B8F4  90 C5     BCC $B8BB
  $B8F6  FD 03 B9  SBC $B903,X
  $B8F9  B9 B9 B9  LDA $B9B9,Y
  $B8FC  B9 B9 B9  LDA $B9B9,Y
  $B8FF  B9 BA 0A  LDA $0ABA,Y
  $B902  0E 1E 2E  ASL $2E1E
  $B905  3E 4E 5E  ROL $5E4E,X
  $B908  6E 76 BA  ROR $BA76
  $B90B  BA        TSX 
  $B90C  BA        TSX 
  $B90D  BA        TSX 
  $B90E  BA        TSX 
  $B90F  BA        TSX 
  $B910  BA        TSX 
  $B911  BA        TSX 
  $B912  BA        TSX 
  $B913  0E FC 00  ASL $00FC
  $B916  0B        ??? 
  $B917  A0 A1     LDY #$A1
  $B919  A2 A3     LDX #$A3
  $B91B  0B        ??? 
  $B91C  A4 9D     LDY $9D
  $B91E  A6 A7     LDX $A7
  $B920  0B        ??? 
  $B921  A8        TAY 
  $B922  A9 AA     LDA #$AA
  $B924  AB        ??? 
  $B925  0B        ??? 
  $B926  AC AD AE  LDY $AEAD
  $B929  AF 00 0B  LAX $0B00
  $B92C  A0 A1     LDY #$A1
  $B92E  A2 A3     LDX #$A3
  $B930  0A        ASL 
  $B931  45 A4     EOR $A4
  $B933  A5 A6     LDA $A6
  $B935  A7 09     LAX $09
  $B937  46 47     LSR $47
  $B939  A8        TAY 
  $B93A  A9 AA     LDA #$AA
  $B93C  AB        ??? 
  $B93D  0B        ??? 
  $B93E  AC AD AE  LDY $AEAD
  $B941  AF 00 07  LAX $0700
  $B944  A0 A1     LDY #$A1
  $B946  A2 A3     LDX #$A3
  $B948  A0 A1     LDY #$A1
  $B94A  A2 A3     LDX #$A3
  $B94C  07 A4     SLO $A4
  $B94E  9D A6 A7  STA $A7A6,X
  $B951  A4 9D     LDY $9D
  $B953  A6 A7     LDX $A7
  $B955  07 A8     SLO $A8
  $B957  A9 AA     LDA #$AA
  $B959  AB        ??? 
  $B95A  A8        TAY 
  $B95B  A9 AA     LDA #$AA
  $B95D  AB        ??? 
  $B95E  07 AC     SLO $AC
  $B960  AD AE AF  LDA $AFAE
  $B963  AC AD AE  LDY $AEAD
  $B966  AF 00 07  LAX $0700
  $B969  A0 A1     LDY #$A1
  $B96B  A2 A3     LDX #$A3
  $B96D  A0 A1     LDY #$A1
  $B96F  A2 A3     LDX #$A3
  $B971  06 45     ASL $45
  $B973  A4 A5     LDY $A5
  $B975  A6 A7     LDX $A7
  $B977  A4 9D     LDY $9D
  $B979  A6 A7     LDX $A7
  $B97B  05 46     ORA $46
  $B97D  47 A8     SRE $A8
  $B97F  A9 AA     LDA #$AA
  $B981  AB        ??? 
  $B982  A8        TAY 
  $B983  A9 AA     LDA #$AA
  $B985  AB        ??? 
  $B986  07 AC     SLO $AC
  $B988  AD AE AF  LDA $AFAE
  $B98B  AC AD AE  LDY $AEAD
  $B98E  AF 00 03  LAX $0300
  $B991  A0 A1     LDY #$A1
  $B993  A2 A3     LDX #$A3
  $B995  A0 A1     LDY #$A1
  $B997  A2 A3     LDX #$A3
  $B999  A0 A1     LDY #$A1
  $B99B  A2 A3     LDX #$A3
  $B99D  03 A4     SLO ($A4,X)
  $B99F  9D A6 A7  STA $A7A6,X
  $B9A2  A4 9D     LDY $9D
  $B9A4  A6 A7     LDX $A7
  $B9A6  A4 9D     LDY $9D
  $B9A8  A6 A7     LDX $A7
  $B9AA  03 A8     SLO ($A8,X)
  $B9AC  A9 AA     LDA #$AA
  $B9AE  AB        ??? 
  $B9AF  A8        TAY 
  $B9B0  A9 AA     LDA #$AA
  $B9B2  AB        ??? 
  $B9B3  A8        TAY 
  $B9B4  A9 AA     LDA #$AA
  $B9B6  AB        ??? 
  $B9B7  03 AC     SLO ($AC,X)
  $B9B9  AD AE AF  LDA $AFAE
  $B9BC  AC AD AE  LDY $AEAD
  $B9BF  AF AC AD  LAX $ADAC
  $B9C2  AE AF 00  LDX $00AF
  $B9C5  03 A0     SLO ($A0,X)
  $B9C7  A1 A2     LDA ($A2,X)
  $B9C9  A3 A0     LAX ($A0,X)
  $B9CB  A1 A2     LDA ($A2,X)
  $B9CD  A3 A0     LAX ($A0,X)
  $B9CF  A1 A2     LDA ($A2,X)
  $B9D1  A3 02     LAX ($02,X)
  $B9D3  45 A4     EOR $A4
  $B9D5  A5 A6     LDA $A6
  $B9D7  A7 A4     LAX $A4
  $B9D9  9D A6 A7  STA $A7A6,X
  $B9DC  A4 9D     LDY $9D
  $B9DE  A6 A7     LDX $A7
  $B9E0  01 46     ORA ($46,X)
  $B9E2  47 A8     SRE $A8
  $B9E4  A9 AA     LDA #$AA
  $B9E6  AB        ??? 
  $B9E7  A8        TAY 
  $B9E8  A9 AA     LDA #$AA
  $B9EA  AB        ??? 
  $B9EB  A8        TAY 
  $B9EC  A9 AA     LDA #$AA
  $B9EE  AB        ??? 
  $B9EF  03 AC     SLO ($AC,X)
  $B9F1  AD AE AF  LDA $AFAE
  $B9F4  AC AD AE  LDY $AEAD
  $B9F7  AF AC AD  LAX $ADAC
  $B9FA  AE AF 00  LDX $00AF
  $B9FD  0E 45 0D  ASL $0D45
  $BA00  46 47     LSR $47
  $BA02  00        BRK 
  $BA03  0D 24 25  ORA $2524
  $BA06  0D 26 27  ORA $2726
  $BA09  00        BRK 
  $BA0A  FC 00 00  NOP $0000,X
  $BA0D  00        BRK 
  $BA0E  A3 20     LAX ($20,X)
  $BA10  00        BRK 
  $BA11  00        BRK 
  $BA12  A7 20     LAX $20
  $BA14  00        BRK 
  $BA15  00        BRK 
  $BA16  AB        ??? 
  $BA17  20 00 00  JSR $0000
  $BA1A  AF 20 00  LAX $0020
  $BA1D  01 A3     ORA ($A3,X)
  $BA1F  20 00 00  JSR $0000
  $BA22  A7 20     LAX $20
  $BA24  01 00     ORA ($00,X)
  $BA26  AB        ??? 
  $BA27  20 01 00  JSR $0001
  $BA2A  AF 20 00  LAX $0020
  $BA2D  01 A3     ORA ($A3,X)
  $BA2F  40        RTI 
  $BA30  00        BRK 
  $BA31  00        BRK 
  $BA32  A7 40     LAX $40
  $BA34  00        BRK 
  $BA35  00        BRK 
  $BA36  AB        ??? 
  $BA37  40        RTI 
  $BA38  00        BRK 
  $BA39  00        BRK 
  $BA3A  AF 40 00  LAX $0040
  $BA3D  02        ??? 
  $BA3E  A3 40     LAX ($40,X)
  $BA40  00        BRK 
  $BA41  00        BRK 
  $BA42  A7 40     LAX $40
  $BA44  01 00     ORA ($00,X)
  $BA46  AB        ??? 
  $BA47  40        RTI 
  $BA48  01 00     ORA ($00,X)
  $BA4A  AF 40 00  LAX $0040
  $BA4D  02        ??? 
  $BA4E  A3 60     LAX ($60,X)
  $BA50  00        BRK 
  $BA51  00        BRK 
  $BA52  A7 60     LAX $60
  $BA54  00        BRK 
  $BA55  00        BRK 
  $BA56  AB        ??? 
  $BA57  60        RTS 
  $BA58  00        BRK 
  $BA59  00        BRK 
  $BA5A  AF 60 00  LAX $0060
  $BA5D  03 A3     SLO ($A3,X)
  $BA5F  60        RTS 
  $BA60  00        BRK 
  $BA61  00        BRK 
  $BA62  A7 60     LAX $60
  $BA64  01 00     ORA ($00,X)
  $BA66  AB        ??? 
  $BA67  60        RTS 
  $BA68  01 00     ORA ($00,X)
  $BA6A  AF 60 00  LAX $0060
  $BA6D  03 45     SLO ($45,X)
  $BA6F  00        BRK 
  $BA70  01 00     ORA ($00,X)
  $BA72  47 00     SRE $00
  $BA74  01 00     ORA ($00,X)
  $BA76  25 00     AND $00
  $BA78  00        BRK 
  $BA79  00        BRK 
  $BA7A  27 00     RLA $00
  $BA7C  00        BRK 
  $BA7D  00        BRK 
  $BA7E  18        CLC 
  $BA7F  DE 00 60  DEC $6000,X
  $BA82  18        CLC 
  $BA83  DF 00 68  DCP $6800,X
  $BA86  18        CLC 
  $BA87  E0 00     CPX #$00
  $BA89  70 18     BVS $BAA3
  $BA8B  E1 00     SBC ($00,X)
  $BA8D  78        SEI 
  $BA8E  18        CLC 
  $BA8F  01 00     ORA ($00,X)
  $BA91  88        DEY 
  $BA92  18        CLC 
  $BA93  05 00     ORA $00
  $BA95  90 A5     BCC $BA3C
  $BA97  67 4A     RRA $4A
  $BA99  4A        LSR 
  $BA9A  8D 10 04  STA $0410
  $BA9D  A9 2F     LDA #$2F
  $BA9F  85 43     STA $43
  $BAA1  60        RTS 

Stage9FormationPhase2:
  $BAA2  A2 09     LDX #$09
  $BAA4  8A        TXA 
  $BAA5  0A        ASL 
  $BAA6  0A        ASL 
  $BAA7  A8        TAY 
  $BAA8  BD 50 B8  LDA $B850,X
  $BAAB  99 C0 02  STA $02C0,Y
  $BAAE  BD 46 B8  LDA $B846,X
  $BAB1  99 C1 02  STA $02C1,Y
  $BAB4  A9 00     LDA #$00
  $BAB6  99 C2 02  STA $02C2,Y
  $BAB9  BD 5A B8  LDA $B85A,X
  $BABC  99 C3 02  STA $02C3,Y
  $BABF  CA        DEX 
  $BAC0  10 E2     BPL $BAA4
  $BAC2  A9 08     LDA #$08
  $BAC4  05 FB     ORA $FB
  $BAC6  85 FB     STA $FB
  $BAC8  60        RTS 

Stage9_10FormationPhase3:
  $BAC9  A2 3F     LDX #$3F
  $BACB  A9 FC     LDA #$FC
  $BACD  9D 90 04  STA $0490,X
  $BAD0  A9 00     LDA #$00
  $BAD2  9D D0 04  STA $04D0,X
  $BAD5  9D 10 05  STA $0510,X
  $BAD8  9D 50 05  STA $0550,X
  $BADB  CA        DEX 
  $BADC  10 ED     BPL $BACB
  $BADE  A9 B8     LDA #$B8
  $BAE0  8D 12 06  STA $0612
  $BAE3  85 90     STA $90
  $BAE5  A9 34     LDA #$34
  $BAE7  85 E8     STA $E8
  $BAE9  A9 0A     LDA #$0A
  $BAEB  85 EB     STA $EB
  $BAED  A9 25     LDA #$25
  $BAEF  85 EA     STA $EA
  $BAF1  A9 74     LDA #$74
  $BAF3  85 E9     STA $E9
  $BAF5  A9 08     LDA #$08
  $BAF7  85 7C     STA $7C
  $BAF9  A9 09     LDA #$09
  $BAFB  85 E0     STA $E0
  $BAFD  A9 38     LDA #$38
  $BAFF  85 80     STA $80
  $BB01  A9 06     LDA #$06
  $BB03  85 A8     STA $A8
  $BB05  A9 01     LDA #$01
  $BB07  85 84     STA $84
  $BB09  85 A4     STA $A4
  $BB0B  8D CC 03  STA $03CC
  $BB0E  0A        ASL 
  $BB0F  85 6E     STA $6E
  $BB11  A9 1B     LDA #$1B
  $BB13  85 33     STA $33
  $BB15  A2 00     LDX #$00
  $BB17  4C BB B1  JMP $B1BB

Stage9FormationPhase4:
  $BB1A  A9 10     LDA #$10
  $BB1C  85 62     STA $62
  $BB1E  A9 06     LDA #$06
  $BB20  85 63     STA $63
  $BB22  A9 01     LDA #$01
  $BB24  85 64     STA $64
  $BB26  A2 17     LDX #$17
  $BB28  BD 7E BA  LDA $BA7E,X
  $BB2B  9D 28 02  STA $0228,X
  $BB2E  CA        DEX 
  $BB2F  10 F7     BPL $BB28
  $BB31  60        RTS 

Level9Init:
  $BB32  A5 33     LDA $33
  $BB34  F0 0F     BEQ $BB45
  $BB36  C9 0C     CMP #$0C
  $BB38  D0 37     BNE $BB71
  $BB3A  A5 20     LDA $20
  $BB3C  D0 33     BNE $BB71
  $BB3E  A9 20     LDA #$20
  $BB40  05 FB     ORA $FB
  $BB42  85 FB     STA $FB
  $BB44  60        RTS 
  $BB45  A5 34     LDA $34
  $BB47  D0 28     BNE $BB71
  $BB49  A5 66     LDA $66
  $BB4B  F0 03     BEQ $BB50
  $BB4D  4A        LSR 
  $BB4E  90 22     BCC $BB72
  $BB50  A5 14     LDA $14
  $BB52  85 74     STA $74
  $BB54  A9 00     LDA #$00
  $BB56  85 67     STA $67
  $BB58  20 7F BB  JSR $BB7F
  $BB5B  E6 67     INC $67
  $BB5D  A5 67     LDA $67
  $BB5F  C9 13     CMP #$13
  $BB61  90 F5     BCC $BB58
  $BB63  A2 09     LDX #$09
  $BB65  8A        TXA 
  $BB66  0A        ASL 
  $BB67  0A        ASL 
  $BB68  A8        TAY 
  $BB69  A9 F8     LDA #$F8
  $BB6B  99 C0 02  STA $02C0,Y
  $BB6E  CA        DEX 
  $BB6F  10 F4     BPL $BB65
  $BB71  60        RTS 
  $BB72  A9 02     LDA #$02
  $BB74  85 30     STA $30
  $BB76  A9 00     LDA #$00
  $BB78  85 67     STA $67
  $BB7A  85 6E     STA $6E
  $BB7C  4C ED 8A  JMP $8AED
  $BB7F  A5 67     LDA $67
  $BB81  0A        ASL 
  $BB82  A8        TAY 
  $BB83  B9 00 B8  LDA $B800,Y
  $BB86  85 00     STA $00
  $BB88  C8        INY 
  $BB89  B9 00 B8  LDA $B800,Y
  $BB8C  85 01     STA $01
  $BB8E  A2 00     LDX #$00
  $BB90  6C 00 00  JMP ($0000)
  $BB93  A6 E0     LDX $E0
  $BB95  AD 14 04  LDA $0414
  $BB98  05 AC     ORA $AC
  $BB9A  F0 14     BEQ $BBB0
  $BB9C  A5 E0     LDA $E0
  $BB9E  CD 15 04  CMP $0415
  $BBA1  F0 0D     BEQ $BBB0
  $BBA3  8D 15 04  STA $0415
  $BBA6  BD 50 05  LDA $0550,X
  $BBA9  18        CLC 
  $BBAA  6D 13 04  ADC $0413
  $BBAD  8D 13 04  STA $0413
  $BBB0  A5 9C     LDA $9C
  $BBB2  D0 06     BNE $BBBA
  $BBB4  BD D0 04  LDA $04D0,X
  $BBB7  8D 12 04  STA $0412
  $BBBA  BD 90 04  LDA $0490,X
  $BBBD  85 C0     STA $C0
  $BBBF  C9 28     CMP #$28
  $BBC1  B0 08     BCS $BBCB
  $BBC3  A9 01     LDA #$01
  $BBC5  8D EE 03  STA $03EE
  $BBC8  85 66     STA $66
  $BBCA  60        RTS 
  $BBCB  BD 10 05  LDA $0510,X
  $BBCE  F0 0D     BEQ $BBDD
  $BBD0  AD 14 04  LDA $0414
  $BBD3  05 AC     ORA $AC
  $BBD5  F0 06     BEQ $BBDD
  $BBD7  A9 45     LDA #$45
  $BBD9  85 C0     STA $C0
  $BBDB  D0 10     BNE $BBED
  $BBDD  BD 90 04  LDA $0490,X
  $BBE0  C9 84     CMP #$84
  $BBE2  D0 09     BNE $BBED
  $BBE4  AD 14 04  LDA $0414
  $BBE7  D0 04     BNE $BBED
  $BBE9  A9 FC     LDA #$FC
  $BBEB  85 C0     STA $C0
  $BBED  60        RTS 
  $BBEE  A5 78     LDA $78
  $BBF0  0A        ASL 
  $BBF1  0A        ASL 
  $BBF2  0A        ASL 
  $BBF3  0A        ASL 
  $BBF4  6D E6 03  ADC $03E6
  $BBF7  8D E6 03  STA $03E6
  $BBFA  A5 6B     LDA $6B
  $BBFC  69 00     ADC #$00
  $BBFE  85 6B     STA $6B
  $BC00  90 06     BCC $BC08
  $BC02  A5 69     LDA $69
  $BC04  49 01     EOR #$01
  $BC06  85 69     STA $69
  $BC08  60        RTS 
  $BC09  A5 66     LDA $66
  $BC0B  D0 03     BNE $BC10
  $BC0D  4C 1C AA  JMP $AA1C
  $BC10  A5 78     LDA $78
  $BC12  18        CLC 
  $BC13  65 80     ADC $80
  $BC15  85 80     STA $80
  $BC17  C9 F0     CMP #$F0
  $BC19  90 09     BCC $BC24
  $BC1B  A9 02     LDA #$02
  $BC1D  85 66     STA $66
  $BC1F  85 84     STA $84
  $BC21  4C 41 BC  JMP $BC41
  $BC24  A9 00     LDA #$00
  $BC26  85 78     STA $78
  $BC28  60        RTS 
  $BC29  C6 62     DEC $62
  $BC2B  D0 34     BNE $BC61
  $BC2D  A9 50     LDA #$50
  $BC2F  85 62     STA $62
  $BC31  C6 63     DEC $63
  $BC33  10 1C     BPL $BC51
  $BC35  A9 09     LDA #$09
  $BC37  85 63     STA $63
  $BC39  C6 64     DEC $64
  $BC3B  10 14     BPL $BC51
  $BC3D  A9 02     LDA #$02
  $BC3F  85 66     STA $66
  $BC41  A9 0C     LDA #$0C
  $BC43  85 34     STA $34
  $BC45  A9 05     LDA #$05
  $BC47  85 FB     STA $FB
  $BC49  A9 00     LDA #$00
  $BC4B  85 FC     STA $FC
  $BC4D  8D B9 03  STA $03B9
  $BC50  60        RTS 
  $BC51  A5 64     LDA $64
  $BC53  8D 39 02  STA $0239
  $BC56  A5 63     LDA $63
  $BC58  8D 3D 02  STA $023D
  $BC5B  A5 64     LDA $64
  $BC5D  05 63     ORA $63
  $BC5F  F0 DC     BEQ $BC3D
  $BC61  60        RTS 
  $BC62  AE 10 04  LDX $0410
  $BC65  BD 64 B8  LDA $B864,X
  $BC68  85 07     STA $07
  $BC6A  BD 66 B8  LDA $B866,X
  $BC6D  85 08     STA $08
  $BC6F  A4 ED     LDY $ED
  $BC71  D0 08     BNE $BC7B
  $BC73  B1 07     LDA ($07),Y
  $BC75  8D 16 04  STA $0416
  $BC78  C8        INY 
  $BC79  84 ED     STY $ED
  $BC7B  A5 EB     LDA $EB
  $BC7D  C5 E0     CMP $E0
  $BC7F  F0 01     BEQ $BC82
  $BC81  60        RTS 
  $BC82  A5 EC     LDA $EC
  $BC84  D0 1E     BNE $BCA4
  $BC86  A5 EF     LDA $EF
  $BC88  D0 25     BNE $BCAF
  $BC8A  A4 ED     LDY $ED
  $BC8C  E6 ED     INC $ED
  $BC8E  B1 07     LDA ($07),Y
  $BC90  F0 EF     BEQ $BC81
  $BC92  C9 09     CMP #$09
  $BC94  D0 06     BNE $BC9C
  $BC96  A9 01     LDA #$01
  $BC98  85 ED     STA $ED
  $BC9A  F0 EE     BEQ $BC8A
  $BC9C  C9 80     CMP #$80
  $BC9E  90 0D     BCC $BCAD
  $BCA0  29 7F     AND #$7F
  $BCA2  85 EC     STA $EC
  $BCA4  C6 EC     DEC $EC
  $BCA6  A9 00     LDA #$00
  $BCA8  8D 11 04  STA $0411
  $BCAB  85 EF     STA $EF
  $BCAD  85 EE     STA $EE
  $BCAF  A6 EE     LDX $EE
  $BCB1  20 4D BD  JSR MusicSeqPtrLoad
  $BCB4  A4 EF     LDY $EF
  $BCB6  B1 05     LDA ($05),Y
  $BCB8  D0 02     BNE $BCBC
  $BCBA  F0 48     BEQ $BD04
  $BCBC  20 36 BD  JSR MusicSlotReset
  $BCBF  B1 05     LDA ($05),Y
  $BCC1  AA        TAX 
  $BCC2  20 41 BD  JSR MusicSlotLoad
  $BCC5  C8        INY 
  $BCC6  84 EF     STY $EF
  $BCC8  A9 8F     LDA #$8F
  $BCCA  8D 03 03  STA $0303
  $BCCD  A5 EA     LDA $EA
  $BCCF  8D 01 03  STA $0301
  $BCD2  A5 E9     LDA $E9
  $BCD4  8D 02 03  STA $0302
  $BCD7  A9 00     LDA #$00
  $BCD9  8D 13 03  STA $0313
  $BCDC  A5 E8     LDA $E8
  $BCDE  85 0F     STA $0F
  $BCE0  20 0C BD  JSR MusicAPUWrite4
  $BCE3  A5 E8     LDA $E8
  $BCE5  20 1C CF  JSR $CF1C
  $BCE8  85 E8     STA $E8
  $BCEA  E6 E9     INC $E9
  $BCEC  A5 E9     LDA $E9
  $BCEE  C9 80     CMP #$80
  $BCF0  D0 0A     BNE $BCFC
  $BCF2  A9 60     LDA #$60
  $BCF4  85 E9     STA $E9
  $BCF6  A5 EA     LDA $EA
  $BCF8  49 04     EOR #$04
  $BCFA  85 EA     STA $EA
  $BCFC  A5 E0     LDA $E0
  $BCFE  20 1C CF  JSR $CF1C
  $BD01  85 EB     STA $EB
  $BD03  60        RTS 
  $BD04  85 EF     STA $EF
  $BD06  8D 11 04  STA $0411
  $BD09  4C 8A BC  JMP $BC8A

MusicAPUWrite4:
  $BD0C  A6 EE     LDX $EE
  $BD0E  BD 01 B9  LDA $B901,X
  $BD11  85 09     STA $09
  $BD13  BD 0A B9  LDA $B90A,X
  $BD16  85 0A     STA $0A
  $BD18  A0 00     LDY #$00
  $BD1A  84 0E     STY $0E
  $BD1C  A4 0E     LDY $0E
  $BD1E  20 EF CB  JSR $CBEF
  $BD21  AC 11 04  LDY $0411
  $BD24  B1 09     LDA ($09),Y
  $BD26  EE 11 04  INC $0411
  $BD29  A4 0F     LDY $0F
  $BD2B  91 03     STA ($03),Y
  $BD2D  E6 0E     INC $0E
  $BD2F  A5 0E     LDA $0E
  $BD31  C9 04     CMP #$04
  $BD33  D0 E7     BNE $BD1C
  $BD35  60        RTS 

MusicSlotReset:
  $BD36  A2 0E     LDX #$0E
  $BD38  A9 FC     LDA #$FC
  $BD3A  9D 04 03  STA $0304,X
  $BD3D  CA        DEX 
  $BD3E  10 FA     BPL $BD3A
  $BD40  60        RTS 

MusicSlotLoad:
  $BD41  C8        INY 
  $BD42  B1 05     LDA ($05),Y
  $BD44  9D 04 03  STA $0304,X
  $BD47  E8        INX 
  $BD48  E0 0F     CPX #$0F
  $BD4A  D0 F5     BNE MusicSlotLoad
  $BD4C  60        RTS 

MusicSeqPtrLoad:
  $BD4D  BD EF B8  LDA $B8EF,X
  $BD50  85 05     STA $05
  $BD52  BD F8 B8  LDA $B8F8,X
  $BD55  85 06     STA $06
  $BD57  60        RTS 
  $BD58  A5 9C     LDA $9C
  $BD5A  F0 3E     BEQ $BD9A
  $BD5C  A9 00     LDA #$00
  $BD5E  8D B9 03  STA $03B9
  $BD61  85 FC     STA $FC
  $BD63  A5 61     LDA $61
  $BD65  D0 04     BNE $BD6B
  $BD67  A9 01     LDA #$01
  $BD69  85 FD     STA $FD
  $BD6B  AD EB 03  LDA $03EB
  $BD6E  F0 2B     BEQ $BD9B
  $BD70  A5 AC     LDA $AC
  $BD72  D0 12     BNE $BD86
  $BD74  A5 98     LDA $98
  $BD76  D0 0E     BNE $BD86
  $BD78  A5 70     LDA $70
  $BD7A  D0 06     BNE $BD82
  $BD7C  A5 A8     LDA $A8
  $BD7E  C9 06     CMP #$06
  $BD80  F0 0F     BEQ $BD91
  $BD82  A9 88     LDA #$88
  $BD84  85 94     STA $94
  $BD86  A5 23     LDA $23
  $BD88  D0 10     BNE $BD9A
  $BD8A  A9 02     LDA #$02
  $BD8C  85 23     STA $23
  $BD8E  4C 19 AE  JMP $AE19
  $BD91  A9 00     LDA #$00
  $BD93  85 94     STA $94
  $BD95  85 9C     STA $9C
  $BD97  8D EB 03  STA $03EB
  $BD9A  60        RTS 
  $BD9B  A9 00     LDA #$00
  $BD9D  85 94     STA $94
  $BD9F  85 98     STA $98
  $BDA1  85 78     STA $78
  $BDA3  A5 22     LDA $22
  $BDA5  D0 04     BNE $BDAB
  $BDA7  A9 20     LDA #$20
  $BDA9  85 22     STA $22
  $BDAB  C9 1C     CMP #$1C
  $BDAD  B0 EB     BCS $BD9A
  $BDAF  C9 01     CMP #$01
  $BDB1  D0 D3     BNE $BD86
  $BDB3  8D EB 03  STA $03EB
  $BDB6  4A        LSR 
  $BDB7  8D 12 04  STA $0412
  $BDBA  A5 70     LDA $70
  $BDBC  D0 DC     BNE $BD9A
  $BDBE  20 ED BD  JSR $BDED
  $BDC1  4C 0E BE  JMP $BE0E
  $BDC4  A4 E0     LDY $E0
  $BDC6  A5 AC     LDA $AC
  $BDC8  F0 35     BEQ $BDFF
  $BDCA  AD A0 03  LDA $03A0
  $BDCD  D0 2F     BNE $BDFE
  $BDCF  B9 D0 04  LDA $04D0,Y
  $BDD2  C8        INY 
  $BDD3  D9 D0 04  CMP $04D0,Y
  $BDD6  F0 26     BEQ $BDFE
  $BDD8  20 63 AC  JSR $AC63
  $BDDB  18        CLC 
  $BDDC  69 08     ADC #$08
  $BDDE  38        SEC 
  $BDDF  F9 D0 04  SBC $04D0,Y
  $BDE2  C5 90     CMP $90
  $BDE4  B0 18     BCS $BDFE
  $BDE6  A9 FF     LDA #$FF
  $BDE8  85 9C     STA $9C
  $BDEA  8D EB 03  STA $03EB
  $BDED  A9 00     LDA #$00
  $BDEF  85 94     STA $94
  $BDF1  85 98     STA $98
  $BDF3  8D 12 04  STA $0412
  $BDF6  8D 14 04  STA $0414
  $BDF9  85 78     STA $78
  $BDFB  8D 98 03  STA $0398
  $BDFE  60        RTS 
  $BDFF  AD 14 04  LDA $0414
  $BE02  F0 20     BEQ $BE24
  $BE04  D9 D0 04  CMP $04D0,Y
  $BE07  F0 15     BEQ $BE1E
  $BE09  B0 03     BCS $BE0E
  $BE0B  20 E6 BD  JSR $BDE6
  $BE0E  20 DB AC  JSR $ACDB
  $BE11  AD 88 03  LDA $0388
  $BE14  8D 90 03  STA $0390
  $BE17  AD 8C 03  LDA $038C
  $BE1A  8D 94 03  STA $0394
  $BE1D  60        RTS 
  $BE1E  C8        INY 
  $BE1F  D9 D0 04  CMP $04D0,Y
  $BE22  90 E7     BCC $BE0B
  $BE24  A2 01     LDX #$01
  $BE26  B9 90 04  LDA $0490,Y
  $BE29  C9 FC     CMP #$FC
  $BE2B  F0 02     BEQ $BE2F
  $BE2D  A2 00     LDX #$00
  $BE2F  8E CC 03  STX $03CC
  $BE32  60        RTS 

Stage10FormationPhase2:
  $BE33  A9 31     LDA #$31
  $BE35  85 43     STA $43
  $BE37  60        RTS 

Stage10FormationPhase4:
  $BE38  A9 20     LDA #$20
  $BE3A  85 22     STA $22
  $BE3C  AE 13 04  LDX $0413
  $BE3F  EC 16 04  CPX $0416
  $BE42  B0 18     BCS $BE5C
  $BE44  A9 00     LDA #$00
  $BE46  CA        DEX 
  $BE47  30 0F     BMI $BE58
  $BE49  18        CLC 
  $BE4A  69 01     ADC #$01
  $BE4C  C9 0A     CMP #$0A
  $BE4E  90 F6     BCC $BE46
  $BE50  E9 0A     SBC #$0A
  $BE52  EE F8 03  INC $03F8
  $BE55  4C 46 BE  JMP $BE46
  $BE58  8D F9 03  STA $03F9
  $BE5B  60        RTS 
  $BE5C  A9 01     LDA #$01
  $BE5E  8D F7 03  STA $03F7
  $BE61  8D ED 03  STA $03ED
  $BE64  60        RTS 

Level10Init:
  $BE65  A5 22     LDA $22
  $BE67  D0 3D     BNE $BEA6
  $BE69  A4 42     LDY $42
  $BE6B  B9 26 B8  LDA $B826,Y
  $BE6E  85 00     STA $00
  $BE70  B9 2B B8  LDA $B82B,Y
  $BE73  85 01     STA $01
  $BE75  6C 00 00  JMP ($0000)
  $BE78  A2 06     LDX #$06
  $BE7A  BD 30 B8  LDA $B830,X
  $BE7D  9D 00 03  STA $0300,X
  $BE80  CA        DEX 
  $BE81  10 F7     BPL $BE7A
  $BE83  AD EC 03  LDA $03EC
  $BE86  20 A8 AF  JSR DivBy10
  $BE89  8D 05 03  STA $0305
  $BE8C  8A        TXA 
  $BE8D  F0 03     BEQ $BE92
  $BE8F  8E 04 03  STX $0304
  $BE92  A9 01     LDA #$01
  $BE94  85 FF     STA $FF
  $BE96  AD 13 04  LDA $0413
  $BE99  85 00     STA $00
  $BE9B  AC EC 03  LDY $03EC
  $BE9E  EE EC 03  INC $03EC
  $BEA1  A9 06     LDA #$06
  $BEA3  4C F5 BE  JMP $BEF5
  $BEA6  60        RTS 
  $BEA7  AD ED 03  LDA $03ED
  $BEAA  F0 04     BEQ $BEB0
  $BEAC  A9 32     LDA #$32
  $BEAE  85 43     STA $43
  $BEB0  A9 05     LDA #$05
  $BEB2  85 22     STA $22
  $BEB4  4C FB BE  JMP $BEFB
  $BEB7  A2 0E     LDX #$0E
  $BEB9  BD 37 B8  LDA $B837,X
  $BEBC  9D 00 03  STA $0300,X
  $BEBF  CA        DEX 
  $BEC0  10 F7     BPL $BEB9
  $BEC2  A0 00     LDY #$00
  $BEC4  A2 00     LDX #$00
  $BEC6  BD F7 03  LDA $03F7,X
  $BEC9  D0 06     BNE $BED1
  $BECB  C8        INY 
  $BECC  E8        INX 
  $BECD  E0 04     CPX #$04
  $BECF  90 F5     BCC $BEC6
  $BED1  BD F7 03  LDA $03F7,X
  $BED4  9D 04 03  STA $0304,X
  $BED7  E8        INX 
  $BED8  E0 05     CPX #$05
  $BEDA  90 F5     BCC $BED1
  $BEDC  A9 01     LDA #$01
  $BEDE  85 FF     STA $FF
  $BEE0  EE EC 03  INC $03EC
  $BEE3  98        TYA 
  $BEE4  18        CLC 
  $BEE5  6D EC 03  ADC $03EC
  $BEE8  A8        TAY 
  $BEE9  A9 00     LDA #$00
  $BEEB  99 04 03  STA $0304,Y
  $BEEE  8C 03 03  STY $0303
  $BEF1  A9 0A     LDA #$0A
  $BEF3  85 00     STA $00
  $BEF5  85 22     STA $22
  $BEF7  C4 00     CPY $00
  $BEF9  90 07     BCC $BF02
  $BEFB  A9 00     LDA #$00
  $BEFD  8D EC 03  STA $03EC
  $BF00  E6 42     INC $42
  $BF02  60        RTS 
  $BF03  A9 0A     LDA #$0A
  $BF05  85 33     STA $33
  $BF07  20 2F D6  JSR $D62F
  $BF0A  4C FB BE  JMP $BEFB
  $BF0D  A5 33     LDA $33
  $BF0F  D0 F1     BNE $BF02
  $BF11  A9 09     LDA #$09
  $BF13  85 FB     STA $FB
  $BF15  A9 02     LDA #$02
  $BF17  85 41     STA $41
  $BF19  4C EF 8A  JMP StageAdvance
  $BF1C  FF FF FF  ISC $FFFF,X
  $BF1F  FF FF FF  ISC $FFFF,X
  $BF22  FF FF FF  ISC $FFFF,X
  $BF25  FF FF FF  ISC $FFFF,X
  $BF28  FF FF FF  ISC $FFFF,X
  $BF2B  FF FF FF  ISC $FFFF,X
  $BF2E  FF FF FF  ISC $FFFF,X
  $BF31  FF FF FF  ISC $FFFF,X
  $BF34  FF FF FF  ISC $FFFF,X
  $BF37  FF FF FF  ISC $FFFF,X
  $BF3A  FF FF FF  ISC $FFFF,X
  $BF3D  FF FF FF  ISC $FFFF,X
  $BF40  FF FF FF  ISC $FFFF,X
  $BF43  FF FF FF  ISC $FFFF,X
  $BF46  FF FF FF  ISC $FFFF,X
  $BF49  FF FF FF  ISC $FFFF,X
  $BF4C  FF FF FF  ISC $FFFF,X
  $BF4F  FF FF FF  ISC $FFFF,X
  $BF52  FF FF FF  ISC $FFFF,X
  $BF55  FF FF FF  ISC $FFFF,X
  $BF58  FF FF FF  ISC $FFFF,X
  $BF5B  FF FF FF  ISC $FFFF,X
  $BF5E  FF FF FF  ISC $FFFF,X
  $BF61  FF FF FF  ISC $FFFF,X
  $BF64  FF FF FF  ISC $FFFF,X
  $BF67  FF FF FF  ISC $FFFF,X
  $BF6A  FF FF FF  ISC $FFFF,X
  $BF6D  FF FF FF  ISC $FFFF,X
  $BF70  FF FF FF  ISC $FFFF,X
  $BF73  FF FF FF  ISC $FFFF,X
  $BF76  FF FF FF  ISC $FFFF,X
  $BF79  FF FF FF  ISC $FFFF,X
  $BF7C  FF FF FF  ISC $FFFF,X
  $BF7F  FF FF FF  ISC $FFFF,X
  $BF82  FF FF FF  ISC $FFFF,X
  $BF85  FF FF FF  ISC $FFFF,X
  $BF88  FF FF FF  ISC $FFFF,X
  $BF8B  FF FF FF  ISC $FFFF,X
  $BF8E  FF FF FF  ISC $FFFF,X
  $BF91  FF FF FF  ISC $FFFF,X
  $BF94  FF FF FF  ISC $FFFF,X
  $BF97  FF FF FF  ISC $FFFF,X
  $BF9A  FF FF FF  ISC $FFFF,X
  $BF9D  FF FF FF  ISC $FFFF,X
  $BFA0  FF FF FF  ISC $FFFF,X
  $BFA3  FF FF FF  ISC $FFFF,X
  $BFA6  FF FF FF  ISC $FFFF,X
  $BFA9  FF FF FF  ISC $FFFF,X
  $BFAC  FF FF FF  ISC $FFFF,X
  $BFAF  FF FF FF  ISC $FFFF,X
  $BFB2  FF FF FF  ISC $FFFF,X
  $BFB5  FF FF FF  ISC $FFFF,X
  $BFB8  FF FF FF  ISC $FFFF,X
  $BFBB  FF FF FF  ISC $FFFF,X
  $BFBE  FF FF FF  ISC $FFFF,X
  $BFC1  FF FF FF  ISC $FFFF,X
  $BFC4  FF FF FF  ISC $FFFF,X
  $BFC7  FF FF FF  ISC $FFFF,X
  $BFCA  FF FF FF  ISC $FFFF,X
  $BFCD  FF FF FF  ISC $FFFF,X
  $BFD0  FF FF FF  ISC $FFFF,X
  $BFD3  FF FF FF  ISC $FFFF,X
  $BFD6  FF FF FF  ISC $FFFF,X
  $BFD9  FF FF FF  ISC $FFFF,X
  $BFDC  FF FF FF  ISC $FFFF,X
  $BFDF  FF FF FF  ISC $FFFF,X
  $BFE2  FF FF FF  ISC $FFFF,X
  $BFE5  FF FF FF  ISC $FFFF,X
  $BFE8  FF FF FF  ISC $FFFF,X
  $BFEB  FF FF FF  ISC $FFFF,X
  $BFEE  FF FF FF  ISC $FFFF,X
  $BFF1  FF FF FF  ISC $FFFF,X
  $BFF4  FF FF FF  ISC $FFFF,X
  $BFF7  FF FF FF  ISC $FFFF,X
  $BFFA  FF FF FF  ISC $FFFF,X
  $BFFD  FF FF FF  ISC $FFFF,X
  $C000  43 4F     SRE ($4F,X)
  $C002  50 59     BVC $C05D
  $C004  52        ??? 
  $C005  49 47     EOR #$47
  $C007  48        PHA 
  $C008  54 20     NOP $20,X
  $C00A  31 39     AND ($39),Y
  $C00C  38        SEC 
  $C00D  31 20     AND ($20),Y
  $C00F  31 39     AND ($39),Y
  $C011  38        SEC 
  $C012  35 20     AND $20,X
  $C014  4E 41 4D  LSR $4D41
  $C017  43 4F     SRE ($4F,X)
  $C019  20 4C 54  JSR $544C
  $C01C  44 2E     NOP $2E
  $C01E  0D 0A 41  ORA $410A
  $C021  4C 4C 20  JMP $204C
  $C024  52        ??? 
  $C025  49 47     EOR #$47
  $C027  48        PHA 
  $C028  54 53     NOP $53,X
  $C02A  20 52 45  JSR $4552
  $C02D  53 45     SRE ($45),Y
  $C02F  52        ??? 
  $C030  56 45     LSR $45,X
  $C032  44 20     NOP $20
  $C034  20 20 20  JSR $2020
  $C037  20 20 20  JSR $2020
  $C03A  20 20 20  JSR $2020
  $C03D  20 0D 0A  JSR $0A0D
  $C040  52        ??? 
  $C041  59 4F 55  EOR $554F,Y
  $C044  49 54     EOR #$54
  $C046  49 20     EOR #$20
  $C048  4F 4F 4B  SRE $4B4F
  $C04B  55 42     EOR $42,X
  $C04D  4F 20 20  SRE $2020
  $C050  54 41     NOP $41,X
  $C052  4B        ??? 
  $C053  45 46     EOR $46
  $C055  55 4D     EOR $4D,X
  $C057  49 20     EOR #$20
  $C059  48        PHA 
  $C05A  59 4F 55  EOR $554F,Y
  $C05D  44 4F     NOP $4F
  $C05F  55 4A     EOR $4A,X
  $C061  55 4E     EOR $4E,X
  $C063  4B        ??? 
  $C064  4F 20 4F  SRE $4F20
  $C067  5A        NOP 
  $C068  41 57     EOR ($57,X)
  $C06A  41 20     EOR ($20,X)
  $C06C  20 20 20  JSR $2020
  $C06F  20 78 A9  JSR $A978
  $C072  10 8D     BPL $C001
  $C074  00        BRK 
  $C075  20 A9 00  JSR $00A9
  $C078  8D 20 40  STA $4020
  $C07B  85 4B     STA $4B
  $C07D  D8        CLD 
  $C07E  AD 02 20  LDA $2002
  $C081  10 FB     BPL $C07E
  $C083  A9 06     LDA #$06
  $C085  8D 01 20  STA $2001
  $C088  AD 02 20  LDA $2002
  $C08B  10 FB     BPL $C088
  $C08D  A9 06     LDA #$06
  $C08F  8D 01 20  STA $2001
  $C092  A2 7F     LDX #$7F
  $C094  9A        TXS 
  $C095  20 BF D3  JSR $D3BF
  $C098  A9 00     LDA #$00
  $C09A  85 4F     STA $4F
  $C09C  85 50     STA $50
  $C09E  A9 B0     LDA #$B0
  $C0A0  8D 00 20  STA $2000
  $C0A3  20 96 D3  JSR $D396
  $C0A6  20 AA CF  JSR $CFAA
  $C0A9  20 96 CF  JSR $CF96
  $C0AC  20 5C C6  JSR $C65C
  $C0AF  20 7B C6  JSR $C67B
  $C0B2  20 89 C3  JSR $C389
  $C0B5  20 02 C4  JSR $C402
  $C0B8  4C A9 C0  JMP $C0A9
  $C0BB  20 71 D0  JSR $D071
  $C0BE  20 40 C8  JSR $C840
  $C0C1  20 5F D9  JSR $D95F
  $C0C4  20 F6 EB  JSR $EBF6
  $C0C7  A9 1C     LDA #$1C
  $C0C9  85 05     STA $05
  $C0CB  A9 6E     LDA #$6E
  $C0CD  85 60     STA $60
  $C0CF  A9 00     LDA #$00
  $C0D1  85 4F     STA $4F
  $C0D3  85 50     STA $50
  $C0D5  85 6D     STA $6D
  $C0D7  85 0A     STA $0A
  $C0D9  85 0B     STA $0B
  $C0DB  20 7B D5  JSR $D57B
  $C0DE  20 AD CA  JSR $CAAD
  $C0E1  A9 01     LDA #$01
  $C0E3  85 6B     STA $6B
  $C0E5  20 B6 C8  JSR $C8B6
  $C0E8  A5 4C     LDA $4C
  $C0EA  F0 03     BEQ $C0EF
  $C0EC  4C 8A C1  JMP $C18A
  $C0EF  A5 06     LDA $06
  $C0F1  29 03     AND #$03
  $C0F3  D0 03     BNE $C0F8
  $C0F5  4C 8A C1  JMP $C18A
  $C0F8  20 B6 C8  JSR $C8B6
  $C0FB  A9 D1     LDA #$D1
  $C0FD  85 12     STA $12
  $C0FF  A9 CD     LDA #$CD
  $C101  85 11     STA $11
  $C103  A2 07     LDX #$07
  $C105  A0 07     LDY #$07
  $C107  20 D3 D6  JSR $D6D3
  $C10A  A9 D1     LDA #$D1
  $C10C  85 12     STA $12
  $C10E  A9 DF     LDA #$DF
  $C110  85 11     STA $11
  $C112  A2 0D     LDX #$0D
  $C114  A0 10     LDY #$10
  $C116  20 D3 D6  JSR $D6D3
  $C119  A9 0A     LDA #$0A
  $C11B  38        SEC 
  $C11C  E5 0A     SBC $0A
  $C11E  20 94 DA  JSR $DA94
  $C121  A0 36     LDY #$36
  $C123  A2 0D     LDX #$0D
  $C125  20 A7 D9  JSR $D9A7
  $C128  A0 10     LDY #$10
  $C12A  20 FD D6  JSR $D6FD
  $C12D  A5 0A     LDA $0A
  $C12F  C9 0A     CMP #$0A
  $C131  B0 57     BCS $C18A
  $C133  A5 08     LDA $08
  $C135  05 09     ORA $09
  $C137  29 03     AND #$03
  $C139  D0 4F     BNE $C18A
  $C13B  A5 08     LDA $08
  $C13D  05 09     ORA $09
  $C13F  29 10     AND #$10
  $C141  D0 0E     BNE $C151
  $C143  A5 06     LDA $06
  $C145  05 07     ORA $07
  $C147  29 10     AND #$10
  $C149  F0 15     BEQ $C160
  $C14B  A5 0B     LDA $0B
  $C14D  29 07     AND #$07
  $C14F  D0 0F     BNE $C160
  $C151  E6 85     INC $85
  $C153  A5 85     LDA $85
  $C155  C9 24     CMP #$24
  $C157  D0 9F     BNE $C0F8
  $C159  A9 23     LDA #$23
  $C15B  85 85     STA $85
  $C15D  4C F8 C0  JMP $C0F8
  $C160  A5 08     LDA $08
  $C162  05 09     ORA $09
  $C164  29 20     AND #$20
  $C166  D0 14     BNE $C17C
  $C168  A5 06     LDA $06
  $C16A  05 07     ORA $07
  $C16C  29 20     AND #$20
  $C16E  D0 03     BNE $C173
  $C170  4C F8 C0  JMP $C0F8
  $C173  A5 0B     LDA $0B
  $C175  29 07     AND #$07
  $C177  F0 03     BEQ $C17C
  $C179  4C F8 C0  JMP $C0F8
  $C17C  C6 85     DEC $85
  $C17E  F0 03     BEQ $C183
  $C180  4C F8 C0  JMP $C0F8
  $C183  A9 01     LDA #$01
  $C185  85 85     STA $85
  $C187  4C F8 C0  JMP $C0F8
  $C18A  A9 01     LDA #$01
  $C18C  8D 01 03  STA $0301
  $C18F  8D 02 03  STA $0302
  $C192  8D 03 03  STA $0303
  $C195  20 30 C8  JSR $C830
  $C198  A5 85     LDA $85
  $C19A  20 00 F2  JSR $F200
  $C19D  20 12 C9  JSR $C912
  $C1A0  A9 00     LDA #$00
  $C1A2  85 0C     STA $0C
  $C1A4  85 60     STA $60
  $C1A6  85 6B     STA $6B
  $C1A8  20 44 CA  JSR $CA44
  $C1AB  20 CF CA  JSR $CACF
  $C1AE  20 95 D5  JSR $D595
  $C1B1  20 01 C3  JSR $C301
  $C1B4  20 5F D9  JSR $D95F
  $C1B7  20 9F C2  JSR $C29F
  $C1BA  20 EF E2  JSR $E2EF
  $C1BD  20 8C E1  JSR $E18C
  $C1C0  20 5A DF  JSR $DF5A
  $C1C3  20 2F C6  JSR $C62F
  $C1C6  F0 EC     BEQ $C1B4
  $C1C8  A9 00     LDA #$00
  $C1CA  85 0A     STA $0A
  $C1CC  85 0B     STA $0B
  $C1CE  AD 08 01  LDA $0108
  $C1D1  F0 04     BEQ $C1D7
  $C1D3  A9 FE     LDA #$FE
  $C1D5  85 0A     STA $0A
  $C1D7  20 5F D9  JSR $D95F
  $C1DA  20 49 C2  JSR $C249
  $C1DD  20 9F C2  JSR $C29F
  $C1E0  20 EF E2  JSR $E2EF
  $C1E3  20 5A DF  JSR $DF5A
  $C1E6  20 8C E1  JSR $E18C
  $C1E9  20 D9 C2  JSR $C2D9
  $C1EC  A5 0A     LDA $0A
  $C1EE  C9 02     CMP #$02
  $C1F0  D0 E5     BNE $C1D7
  $C1F2  20 F6 EB  JSR $EBF6
  $C1F5  20 F1 CA  JSR $CAF1
  $C1F8  E6 85     INC $85
  $C1FA  A5 51     LDA $51
  $C1FC  18        CLC 
  $C1FD  65 52     ADC $52
  $C1FF  F0 09     BEQ $C20A
  $C201  A5 68     LDA $68
  $C203  C9 80     CMP #$80
  $C205  D0 03     BNE $C20A
  $C207  4C C1 C0  JMP $C0C1
  $C20A  A5 15     LDA $15
  $C20C  05 1D     ORA $1D
  $C20E  F0 03     BEQ $C213
  $C210  20 4D C4  JSR $C44D
  $C213  20 3E C5  JSR $C53E
  $C216  20 F0 D9  JSR $D9F0
  $C219  98        TYA 
  $C21A  F0 06     BEQ $C222
  $C21C  20 E9 C4  JSR $C4E9
  $C21F  20 25 C2  JSR $C225
  $C222  4C A6 C0  JMP $C0A6
  $C225  20 A1 D3  JSR $D3A1
  $C228  20 AC D3  JSR $D3AC
  $C22B  20 D4 D7  JSR $D7D4
  $C22E  20 96 D3  JSR $D396
  $C231  60        RTS 
  $C232  A5 46     LDA $46
  $C234  C9 02     CMP #$02
  $C236  F0 10     BEQ $C248
  $C238  A5 83     LDA $83
  $C23A  D0 0C     BNE $C248
  $C23C  A5 08     LDA $08
  $C23E  05 09     ORA $09
  $C240  85 08     STA $08
  $C242  A5 06     LDA $06
  $C244  05 07     ORA $07
  $C246  85 06     STA $06
  $C248  60        RTS 
  $C249  A5 68     LDA $68
  $C24B  C9 80     CMP #$80
  $C24D  F0 0A     BEQ $C259
  $C24F  A9 00     LDA #$00
  $C251  85 06     STA $06
  $C253  85 07     STA $07
  $C255  85 08     STA $08
  $C257  85 09     STA $09
  $C259  60        RTS 
  $C25A  A2 15     LDX #$15
  $C25C  20 7F DA  JSR $DA7F
  $C25F  A2 1D     LDX #$1D
  $C261  20 7F DA  JSR $DA7F
  $C264  A9 00     LDA #$00
  $C266  8D 01 01  STA $0101
  $C269  8D 02 01  STA $0102
  $C26C  A9 00     LDA #$00
  $C26E  85 66     STA $66
  $C270  85 67     STA $67
  $C272  85 4C     STA $4C
  $C274  AD 16 40  LDA $4016
  $C277  29 10     AND #$10
  $C279  F0 09     BEQ $C284
  $C27B  A9 05     LDA #$05
  $C27D  85 51     STA $51
  $C27F  85 52     STA $52
  $C281  4C 8A C2  JMP $C28A
  $C284  A9 03     LDA #$03
  $C286  85 51     STA $51
  $C288  85 52     STA $52
  $C28A  A9 03     LDA #$03
  $C28C  85 6A     STA $6A
  $C28E  A5 83     LDA $83
  $C290  D0 04     BNE $C296
  $C292  A9 00     LDA #$00
  $C294  85 52     STA $52
  $C296  A9 01     LDA #$01
  $C298  85 85     STA $85
  $C29A  A9 00     LDA #$00
  $C29C  85 46     STA $46
  $C29E  60        RTS 
  $C29F  20 35 E2  JSR $E235
  $C2A2  20 32 C2  JSR $C232
  $C2A5  20 23 DC  JSR $DC23
  $C2A8  20 9F DC  JSR $DC9F
  $C2AB  20 AE E2  JSR $E2AE
  $C2AE  20 E2 E0  JSR $E0E2
  $C2B1  20 5D E3  JSR $E35D
  $C2B4  20 30 E3  JSR $E330
  $C2B7  20 D6 E1  JSR $E1D6
  $C2BA  20 16 E2  JSR $E216
  $C2BD  20 F6 DB  JSR $DBF6
  $C2C0  20 A9 E7  JSR $E7A9
  $C2C3  20 B5 EA  JSR $EAB5
  $C2C6  20 B1 E8  JSR $E8B1
  $C2C9  20 17 EB  JSR $EB17
  $C2CC  20 F8 C7  JSR $C7F8
  $C2CF  20 B9 DB  JSR $DBB9
  $C2D2  20 C5 C6  JSR $C6C5
  $C2D5  20 D9 C2  JSR $C2D9
  $C2D8  60        RTS 
  $C2D9  A5 0B     LDA $0B
  $C2DB  29 3F     AND #$3F
  $C2DD  F0 13     BEQ $C2F2
  $C2DF  C9 20     CMP #$20
  $C2E1  D0 1D     BNE $C300
  $C2E3  A9 12     LDA #$12
  $C2E5  A0 06     LDY #$06
  $C2E7  20 3E DB  JSR $DB3E
  $C2EA  A9 37     LDA #$37
  $C2EC  A0 05     LDY #$05
  $C2EE  20 3E DB  JSR $DB3E
  $C2F1  60        RTS 
  $C2F2  A9 37     LDA #$37
  $C2F4  A0 06     LDY #$06
  $C2F6  20 3E DB  JSR $DB3E
  $C2F9  A9 12     LDA #$12
  $C2FB  A0 05     LDY #$05
  $C2FD  20 3E DB  JSR $DB3E
  $C300  60        RTS 
  $C301  20 C6 E4  JSR $E4C6
  $C304  20 D0 E4  JSR $E4D0
  $C307  A9 F0     LDA #$F0
  $C309  8D 06 01  STA $0106
  $C30C  A9 00     LDA #$00
  $C30E  8D 08 01  STA $0108
  $C311  A5 51     LDA $51
  $C313  F0 05     BEQ $C31A
  $C315  A2 00     LDX #$00
  $C317  20 17 E4  JSR $E417
  $C31A  A5 52     LDA $52
  $C31C  F0 05     BEQ $C323
  $C31E  A2 01     LDX #$01
  $C320  20 17 E4  JSR $E417
  $C323  A9 14     LDA #$14
  $C325  85 7F     STA $7F
  $C327  85 80     STA $80
  $C329  A9 00     LDA #$00
  $C32B  85 8F     STA $8F
  $C32D  85 0A     STA $0A
  $C32F  85 45     STA $45
  $C331  85 6F     STA $6F
  $C333  85 70     STA $70
  $C335  85 89     STA $89
  $C337  85 8A     STA $8A
  $C339  85 82     STA $82
  $C33B  85 86     STA $86
  $C33D  8D 00 01  STA $0100
  $C340  85 6A     STA $6A
  $C342  20 25 C6  JSR $C625
  $C345  20 BD C7  JSR $C7BD
  $C348  20 5F D9  JSR $D95F
  $C34B  20 2D C7  JSR $C72D
  $C34E  20 56 C7  JSR $C756
  $C351  20 E8 E4  JSR $E4E8
  $C354  A9 80     LDA #$80
  $C356  85 68     STA $68
  $C358  A9 01     LDA #$01
  $C35A  8D 12 03  STA $0312
  $C35D  85 4C     STA $4C
  $C35F  A5 46     LDA $46
  $C361  C9 01     CMP #$01
  $C363  D0 05     BNE $C36A
  $C365  A9 23     LDA #$23
  $C367  4C 72 C3  JMP $C372
  $C36A  A5 85     LDA $85
  $C36C  C9 24     CMP #$24
  $C36E  90 02     BCC $C372
  $C370  A9 23     LDA #$23
  $C372  0A        ASL 
  $C373  0A        ASL 
  $C374  85 00     STA $00
  $C376  A9 BE     LDA #$BE
  $C378  38        SEC 
  $C379  E5 00     SBC $00
  $C37B  85 84     STA $84
  $C37D  A5 83     LDA $83
  $C37F  F0 07     BEQ $C388
  $C381  A5 84     LDA $84
  $C383  38        SEC 
  $C384  E9 14     SBC #$14
  $C386  85 84     STA $84
  $C388  60        RTS 
  $C389  AD 17 40  LDA $4017
  $C38C  29 04     AND #$04
  $C38E  D0 07     BNE $C397
  $C390  A9 00     LDA #$00
  $C392  85 6D     STA $6D
  $C394  4C 9B C3  JMP $C39B
  $C397  A9 01     LDA #$01
  $C399  85 6D     STA $6D
  $C39B  A9 1C     LDA #$1C
  $C39D  85 05     STA $05
  $C39F  20 D3 D5  JSR $D5D3
  $C3A2  20 64 C2  JSR $C264
  $C3A5  A5 51     LDA $51
  $C3A7  85 52     STA $52
  $C3A9  A9 00     LDA #$00
  $C3AB  85 4F     STA $4F
  $C3AD  85 50     STA $50
  $C3AF  85 0A     STA $0A
  $C3B1  85 0B     STA $0B
  $C3B3  20 30 C8  JSR $C830
  $C3B6  A9 FF     LDA #$FF
  $C3B8  85 85     STA $85
  $C3BA  20 00 F2  JSR $F200
  $C3BD  A9 23     LDA #$23
  $C3BF  85 85     STA $85
  $C3C1  A9 02     LDA #$02
  $C3C3  85 46     STA $46
  $C3C5  20 A1 D3  JSR $D3A1
  $C3C8  A2 1A     LDX #$1A
  $C3CA  86 56     STX $56
  $C3CC  A0 46     LDY #$46
  $C3CE  84 57     STY $57
  $C3D0  A9 D1     LDA #$D1
  $C3D2  85 14     STA $14
  $C3D4  A9 4F     LDA #$4F
  $C3D6  85 13     STA $13
  $C3D8  20 F7 D8  JSR $D8F7
  $C3DB  A2 3C     LDX #$3C
  $C3DD  86 56     STX $56
  $C3DF  A0 78     LDY #$78
  $C3E1  84 57     STY $57
  $C3E3  A9 D1     LDA #$D1
  $C3E5  85 14     STA $14
  $C3E7  A9 56     LDA #$56
  $C3E9  85 13     STA $13
  $C3EB  20 F7 D8  JSR $D8F7
  $C3EE  20 D4 D7  JSR $D7D4
  $C3F1  20 96 D3  JSR $D396
  $C3F4  20 01 C3  JSR $C301
  $C3F7  20 12 C9  JSR $C912
  $C3FA  20 5F D9  JSR $D95F
  $C3FD  A9 05     LDA #$05
  $C3FF  85 6C     STA $6C
  $C401  60        RTS 
  $C402  20 5F D9  JSR $D95F
  $C405  A5 4B     LDA $4B
  $C407  D0 23     BNE $C42C
  $C409  20 3F C4  JSR $C43F
  $C40C  20 A1 C5  JSR $C5A1
  $C40F  20 9F C2  JSR $C29F
  $C412  20 EF E2  JSR $E2EF
  $C415  20 5A DF  JSR $DF5A
  $C418  20 8C E1  JSR $E18C
  $C41B  20 2F C6  JSR $C62F
  $C41E  F0 E2     BEQ $C402
  $C420  A9 00     LDA #$00
  $C422  85 0C     STA $0C
  $C424  A9 01     LDA #$01
  $C426  85 6D     STA $6D
  $C428  20 F6 EB  JSR $EBF6
  $C42B  60        RTS 
  $C42C  68        PLA 
  $C42D  68        PLA 
  $C42E  A9 00     LDA #$00
  $C430  85 0C     STA $0C
  $C432  A9 01     LDA #$01
  $C434  85 6D     STA $6D
  $C436  20 F6 EB  JSR $EBF6
  $C439  20 96 CF  JSR $CF96
  $C43C  4C BB C0  JMP $C0BB
  $C43F  A9 70     LDA #$70
  $C441  8D 05 01  STA $0105
  $C444  A9 70     LDA #$70
  $C446  8D 06 01  STA $0106
  $C449  8D 08 01  STA $0108
  $C44C  60        RTS 
  $C44D  20 A1 D3  JSR $D3A1
  $C450  A9 00     LDA #$00
  $C452  85 4F     STA $4F
  $C454  85 50     STA $50
  $C456  20 AC D3  JSR $D3AC
  $C459  A9 1C     LDA #$1C
  $C45B  85 05     STA $05
  $C45D  20 D4 D7  JSR $D7D4
  $C460  A9 24     LDA #$24
  $C462  85 05     STA $05
  $C464  20 D4 D7  JSR $D7D4
  $C467  20 96 D3  JSR $D396
  $C46A  20 AF D5  JSR $D5AF
  $C46D  A9 D2     LDA #$D2
  $C46F  85 12     STA $12
  $C471  A9 91     LDA #$91
  $C473  85 11     STA $11
  $C475  A2 07     LDX #$07
  $C477  A0 0A     LDY #$0A
  $C479  20 D3 D6  JSR $D6D3
  $C47C  A9 D1     LDA #$D1
  $C47E  85 12     STA $12
  $C480  A9 45     LDA #$45
  $C482  85 11     STA $11
  $C484  A2 0C     LDX #$0C
  $C486  A0 0E     LDY #$0E
  $C488  20 D3 D6  JSR $D6D3
  $C48B  20 5F D9  JSR $D95F
  $C48E  A9 1C     LDA #$1C
  $C490  85 05     STA $05
  $C492  A9 D2     LDA #$D2
  $C494  85 14     STA $14
  $C496  A9 A4     LDA #$A4
  $C498  85 13     STA $13
  $C49A  A9 0A     LDA #$0A
  $C49C  85 5D     STA $5D
  $C49E  A9 07     LDA #$07
  $C4A0  85 5E     STA $5E
  $C4A2  20 1B D9  JSR $D91B
  $C4A5  A9 D2     LDA #$D2
  $C4A7  85 14     STA $14
  $C4A9  A9 B1     LDA #$B1
  $C4AB  85 13     STA $13
  $C4AD  A9 0C     LDA #$0C
  $C4AF  85 5D     STA $5D
  $C4B1  A9 0A     LDA #$0A
  $C4B3  85 5E     STA $5E
  $C4B5  20 1B D9  JSR $D91B
  $C4B8  A9 D2     LDA #$D2
  $C4BA  85 14     STA $14
  $C4BC  A9 BA     LDA #$BA
  $C4BE  85 13     STA $13
  $C4C0  A9 0D     LDA #$0D
  $C4C2  85 5D     STA $5D
  $C4C4  A9 0D     LDA #$0D
  $C4C6  85 5E     STA $5E
  $C4C8  20 1B D9  JSR $D91B
  $C4CB  A2 F0     LDX #$F0
  $C4CD  20 66 D9  JSR $D966
  $C4D0  20 5F D9  JSR $D95F
  $C4D3  E6 4F     INC $4F
  $C4D5  A5 4F     LDA $4F
  $C4D7  C9 F0     CMP #$F0
  $C4D9  D0 F5     BNE $C4D0
  $C4DB  A9 00     LDA #$00
  $C4DD  85 4F     STA $4F
  $C4DF  A9 02     LDA #$02
  $C4E1  85 50     STA $50
  $C4E3  A2 F0     LDX #$F0
  $C4E5  20 66 D9  JSR $D966
  $C4E8  60        RTS 
  $C4E9  20 A1 D3  JSR $D3A1
  $C4EC  A9 1C     LDA #$1C
  $C4EE  85 05     STA $05
  $C4F0  A9 00     LDA #$00
  $C4F2  85 4F     STA $4F
  $C4F4  85 50     STA $50
  $C4F6  20 AC D3  JSR $D3AC
  $C4F9  A2 10     LDX #$10
  $C4FB  86 56     STX $56
  $C4FD  A0 32     LDY #$32
  $C4FF  84 57     STY $57
  $C501  A9 D1     LDA #$D1
  $C503  85 14     STA $14
  $C505  A9 6B     LDA #$6B
  $C507  85 13     STA $13
  $C509  20 F7 D8  JSR $D8F7
  $C50C  20 C4 D9  JSR $D9C4
  $C50F  20 D4 D7  JSR $D7D4
  $C512  20 96 D3  JSR $D396
  $C515  A9 00     LDA #$00
  $C517  85 0A     STA $0A
  $C519  A9 01     LDA #$01
  $C51B  8D 15 03  STA $0315
  $C51E  8D 16 03  STA $0316
  $C521  8D 17 03  STA $0317
  $C524  20 5F D9  JSR $D95F
  $C527  20 7C D3  JSR $D37C
  $C52A  29 3F     AND #$3F
  $C52C  A0 01     LDY #$01
  $C52E  20 3E DB  JSR $DB3E
  $C531  AD 15 03  LDA $0315
  $C534  D0 EE     BNE $C524
  $C536  A9 17     LDA #$17
  $C538  A0 01     LDY #$01
  $C53A  20 3E DB  JSR $DB3E
  $C53D  60        RTS 
  $C53E  20 A1 D3  JSR $D3A1
  $C541  A9 1C     LDA #$1C
  $C543  85 05     STA $05
  $C545  A9 00     LDA #$00
  $C547  85 4F     STA $4F
  $C549  85 50     STA $50
  $C54B  20 AC D3  JSR $D3AC
  $C54E  A2 3C     LDX #$3C
  $C550  86 56     STX $56
  $C552  A0 46     LDY #$46
  $C554  84 57     STY $57
  $C556  A9 D2     LDA #$D2
  $C558  85 14     STA $14
  $C55A  A9 14     LDA #$14
  $C55C  85 13     STA $13
  $C55E  20 F7 D8  JSR $D8F7
  $C561  A2 3C     LDX #$3C
  $C563  86 56     STX $56
  $C565  A0 78     LDY #$78
  $C567  84 57     STY $57
  $C569  A9 D2     LDA #$D2
  $C56B  85 14     STA $14
  $C56D  A9 19     LDA #$19
  $C56F  85 13     STA $13
  $C571  20 F7 D8  JSR $D8F7
  $C574  20 D4 D7  JSR $D7D4
  $C577  20 96 D3  JSR $D396
  $C57A  20 AF D5  JSR $D5AF
  $C57D  A9 00     LDA #$00
  $C57F  85 0A     STA $0A
  $C581  A9 01     LDA #$01
  $C583  8D 18 03  STA $0318
  $C586  8D 19 03  STA $0319
  $C589  8D 1A 03  STA $031A
  $C58C  20 5F D9  JSR $D95F
  $C58F  AD 18 03  LDA $0318
  $C592  D0 F8     BNE $C58C
  $C594  20 A1 D3  JSR $D3A1
  $C597  20 AC D3  JSR $D3AC
  $C59A  20 D4 D7  JSR $D7D4
  $C59D  20 96 D3  JSR $D396
  $C5A0  60        RTS 
  $C5A1  A9 01     LDA #$01
  $C5A3  85 5A     STA $5A
  $C5A5  A6 5A     LDX $5A
  $C5A7  A5 86     LDA $86
  $C5A9  F0 12     BEQ $C5BD
  $C5AB  A5 62     LDA $62
  $C5AD  D0 0E     BNE $C5BD
  $C5AF  A5 86     LDA $86
  $C5B1  85 71     STA $71
  $C5B3  A5 87     LDA $87
  $C5B5  85 72     STA $72
  $C5B7  20 56 DE  JSR $DE56
  $C5BA  4C 04 C6  JMP $C604
  $C5BD  B5 A2     LDA $A2,X
  $C5BF  10 12     BPL $C5D3
  $C5C1  C9 E0     CMP #$E0
  $C5C3  B0 0E     BCS $C5D3
  $C5C5  B5 92     LDA $92,X
  $C5C7  85 71     STA $71
  $C5C9  B5 9A     LDA $9A,X
  $C5CB  85 72     STA $72
  $C5CD  20 56 DE  JSR $DE56
  $C5D0  4C 04 C6  JMP $C604
  $C5D3  B5 A4     LDA $A4,X
  $C5D5  10 12     BPL $C5E9
  $C5D7  C9 E0     CMP #$E0
  $C5D9  B0 0E     BCS $C5E9
  $C5DB  B5 94     LDA $94,X
  $C5DD  85 71     STA $71
  $C5DF  B5 9C     LDA $9C,X
  $C5E1  85 72     STA $72
  $C5E3  20 56 DE  JSR $DE56
  $C5E6  4C 04 C6  JMP $C604
  $C5E9  B5 A3     LDA $A3,X
  $C5EB  10 12     BPL $C5FF
  $C5ED  C9 E0     CMP #$E0
  $C5EF  B0 0E     BCS $C5FF
  $C5F1  B5 93     LDA $93,X
  $C5F3  85 71     STA $71
  $C5F5  B5 9B     LDA $9B,X
  $C5F7  85 72     STA $72
  $C5F9  20 56 DE  JSR $DE56
  $C5FC  4C 04 C6  JMP $C604
  $C5FF  A9 00     LDA #$00
  $C601  4C 0A C6  JMP $C60A
  $C604  29 03     AND #$03
  $C606  A8        TAY 
  $C607  B9 21 C6  LDA $C621,Y
  $C60A  A6 5A     LDX $5A
  $C60C  95 06     STA $06,X
  $C60E  95 08     STA $08,X
  $C610  B5 98     LDA $98,X
  $C612  C9 C8     CMP #$C8
  $C614  90 06     BCC $C61C
  $C616  B5 08     LDA $08,X
  $C618  29 F0     AND #$F0
  $C61A  95 08     STA $08,X
  $C61C  C6 5A     DEC $5A
  $C61E  10 85     BPL $C5A5
  $C620  60        RTS 
  $C621  13 43     SLO ($43),Y
  $C623  23 83     RLA ($83,X)
  $C625  A2 07     LDX #$07
  $C627  A9 00     LDA #$00
  $C629  95 73     STA $73,X
  $C62B  CA        DEX 
  $C62C  10 FB     BPL $C629
  $C62E  60        RTS 
  $C62F  A5 68     LDA $68
  $C631  F0 0B     BEQ $C63E
  $C633  A5 80     LDA $80
  $C635  F0 1F     BEQ $C656
  $C637  A5 51     LDA $51
  $C639  18        CLC 
  $C63A  65 52     ADC $52
  $C63C  D0 1B     BNE $C659
  $C63E  A9 70     LDA #$70
  $C640  8D 05 01  STA $0105
  $C643  A9 F0     LDA #$F0
  $C645  8D 06 01  STA $0106
  $C648  A9 00     LDA #$00
  $C64A  8D 07 01  STA $0107
  $C64D  A9 11     LDA #$11
  $C64F  8D 08 01  STA $0108
  $C652  A9 00     LDA #$00
  $C654  85 0B     STA $0B
  $C656  A9 01     LDA #$01
  $C658  60        RTS 
  $C659  A9 00     LDA #$00
  $C65B  60        RTS 
  $C65C  A9 00     LDA #$00
  $C65E  85 4F     STA $4F
  $C660  85 50     STA $50
  $C662  A9 24     LDA #$24
  $C664  85 05     STA $05
  $C666  20 9A C6  JSR $C69A
  $C669  E6 4F     INC $4F
  $C66B  A5 4B     LDA $4B
  $C66D  D0 07     BNE $C676
  $C66F  A5 4F     LDA $4F
  $C671  C9 F0     CMP #$F0
  $C673  D0 F1     BNE $C666
  $C675  60        RTS 
  $C676  68        PLA 
  $C677  68        PLA 
  $C678  4C BB C0  JMP $C0BB
  $C67B  A9 00     LDA #$00
  $C67D  85 0A     STA $0A
  $C67F  85 0B     STA $0B
  $C681  85 4F     STA $4F
  $C683  A9 02     LDA #$02
  $C685  85 50     STA $50
  $C687  20 9A C6  JSR $C69A
  $C68A  A5 4B     LDA $4B
  $C68C  D0 07     BNE $C695
  $C68E  A5 0A     LDA $0A
  $C690  C9 08     CMP #$08
  $C692  D0 F3     BNE $C687
  $C694  60        RTS 
  $C695  68        PLA 
  $C696  68        PLA 
  $C697  4C BB C0  JMP $C0BB
  $C69A  20 5F D9  JSR $D95F
  $C69D  A5 0B     LDA $0B
  $C69F  29 20     AND #$20
  $C6A1  F0 12     BEQ $C6B5
  $C6A3  A9 D1     LDA #$D1
  $C6A5  85 12     STA $12
  $C6A7  A9 A7     LDA #$A7
  $C6A9  85 11     STA $11
  $C6AB  A2 07     LDX #$07
  $C6AD  A0 12     LDY #$12
  $C6AF  20 D3 D6  JSR $D6D3
  $C6B2  4C C4 C6  JMP $C6C4
  $C6B5  A9 D1     LDA #$D1
  $C6B7  85 12     STA $12
  $C6B9  A9 BA     LDA #$BA
  $C6BB  85 11     STA $11
  $C6BD  A2 07     LDX #$07
  $C6BF  A0 12     LDY #$12
  $C6C1  20 D3 D6  JSR $D6D3
  $C6C4  60        RTS 
  $C6C5  A9 01     LDA #$01
  $C6C7  85 5A     STA $5A
  $C6C9  85 6B     STA $6B
  $C6CB  A9 6E     LDA #$6E
  $C6CD  85 60     STA $60
  $C6CF  A9 D2     LDA #$D2
  $C6D1  85 12     STA $12
  $C6D3  A9 12     LDA #$12
  $C6D5  85 11     STA $11
  $C6D7  A2 1D     LDX #$1D
  $C6D9  A0 12     LDY #$12
  $C6DB  20 D3 D6  JSR $D6D3
  $C6DE  A5 46     LDA $46
  $C6E0  C9 02     CMP #$02
  $C6E2  F0 0B     BEQ $C6EF
  $C6E4  A5 83     LDA $83
  $C6E6  D0 07     BNE $C6EF
  $C6E8  A9 00     LDA #$00
  $C6EA  85 5A     STA $5A
  $C6EC  4C FE C6  JMP $C6FE
  $C6EF  A9 D2     LDA #$D2
  $C6F1  85 12     STA $12
  $C6F3  A9 12     LDA #$12
  $C6F5  85 11     STA $11
  $C6F7  A2 1D     LDX #$1D
  $C6F9  A0 15     LDY #$15
  $C6FB  20 D3 D6  JSR $D6D3
  $C6FE  A6 5A     LDX $5A
  $C700  B5 51     LDA $51,X
  $C702  38        SEC 
  $C703  E9 01     SBC #$01
  $C705  10 02     BPL $C709
  $C707  A9 00     LDA #$00
  $C709  20 94 DA  JSR $DA94
  $C70C  A0 36     LDY #$36
  $C70E  A2 19     LDX #$19
  $C710  20 A7 D9  JSR $D9A7
  $C713  A5 5A     LDA $5A
  $C715  85 00     STA $00
  $C717  0A        ASL 
  $C718  18        CLC 
  $C719  65 00     ADC $00
  $C71B  18        CLC 
  $C71C  69 12     ADC #$12
  $C71E  A8        TAY 
  $C71F  20 FD D6  JSR $D6FD
  $C722  C6 5A     DEC $5A
  $C724  10 D8     BPL $C6FE
  $C726  A9 00     LDA #$00
  $C728  85 60     STA $60
  $C72A  85 6B     STA $6B
  $C72C  60        RTS 
  $C72D  A9 D1     LDA #$D1
  $C72F  85 12     STA $12
  $C731  A9 61     LDA #$61
  $C733  85 11     STA $11
  $C735  A2 1D     LDX #$1D
  $C737  A0 11     LDY #$11
  $C739  20 D3 D6  JSR $D6D3
  $C73C  A5 46     LDA $46
  $C73E  C9 02     CMP #$02
  $C740  F0 04     BEQ $C746
  $C742  A5 83     LDA $83
  $C744  F0 0F     BEQ $C755
  $C746  A9 D1     LDA #$D1
  $C748  85 12     STA $12
  $C74A  A9 64     LDA #$64
  $C74C  85 11     STA $11
  $C74E  A2 1D     LDX #$1D
  $C750  A0 14     LDY #$14
  $C752  20 D3 D6  JSR $D6D3
  $C755  60        RTS 
  $C756  20 5F D9  JSR $D95F
  $C759  A9 D2     LDA #$D2
  $C75B  85 12     STA $12
  $C75D  A9 25     LDA #$25
  $C75F  85 11     STA $11
  $C761  A2 1D     LDX #$1D
  $C763  A0 17     LDY #$17
  $C765  20 D3 D6  JSR $D6D3
  $C768  A9 D2     LDA #$D2
  $C76A  85 12     STA $12
  $C76C  A9 28     LDA #$28
  $C76E  85 11     STA $11
  $C770  A2 1D     LDX #$1D
  $C772  A0 18     LDY #$18
  $C774  20 D3 D6  JSR $D6D3
  $C777  A9 6E     LDA #$6E
  $C779  85 60     STA $60
  $C77B  A5 85     LDA $85
  $C77D  20 94 DA  JSR $DA94
  $C780  A0 36     LDY #$36
  $C782  A2 19     LDX #$19
  $C784  20 A7 D9  JSR $D9A7
  $C787  A0 19     LDY #$19
  $C789  20 FD D6  JSR $D6FD
  $C78C  A9 00     LDA #$00
  $C78E  85 60     STA $60
  $C790  60        RTS 
  $C791  48        PHA 
  $C792  29 01     AND #$01
  $C794  18        CLC 
  $C795  69 1D     ADC #$1D
  $C797  AA        TAX 
  $C798  68        PLA 
  $C799  4A        LSR 
  $C79A  18        CLC 
  $C79B  69 03     ADC #$03
  $C79D  A8        TAY 
  $C79E  60        RTS 
  $C79F  20 91 C7  JSR $C791
  $C7A2  A9 D2     LDA #$D2
  $C7A4  85 12     STA $12
  $C7A6  A9 22     LDA #$22
  $C7A8  85 11     STA $11
  $C7AA  20 D3 D6  JSR $D6D3
  $C7AD  60        RTS 
  $C7AE  20 91 C7  JSR $C791
  $C7B1  A9 D2     LDA #$D2
  $C7B3  85 12     STA $12
  $C7B5  A9 2B     LDA #$2B
  $C7B7  85 11     STA $11
  $C7B9  20 D3 D6  JSR $D6D3
  $C7BC  60        RTS 
  $C7BD  A9 12     LDA #$12
  $C7BF  85 5A     STA $5A
  $C7C1  A5 5A     LDA $5A
  $C7C3  20 9F C7  JSR $C79F
  $C7C6  C6 5A     DEC $5A
  $C7C8  C6 5A     DEC $5A
  $C7CA  10 F5     BPL $C7C1
  $C7CC  60        RTS 
  $C7CD  A9 03     LDA #$03
  $C7CF  85 04     STA $04
  $C7D1  A9 00     LDA #$00
  $C7D3  85 6E     STA $6E
  $C7D5  AE 05 01  LDX $0105
  $C7D8  AC 06 01  LDY $0106
  $C7DB  A9 79     LDA #$79
  $C7DD  85 53     STA $53
  $C7DF  20 0A DB  JSR $DB0A
  $C7E2  AD 05 01  LDA $0105
  $C7E5  18        CLC 
  $C7E6  69 10     ADC #$10
  $C7E8  AA        TAX 
  $C7E9  AC 06 01  LDY $0106
  $C7EC  A9 7D     LDA #$7D
  $C7EE  85 53     STA $53
  $C7F0  20 0A DB  JSR $DB0A
  $C7F3  A9 20     LDA #$20
  $C7F5  85 6E     STA $6E
  $C7F7  60        RTS 
  $C7F8  AD 08 01  LDA $0108
  $C7FB  F0 32     BEQ $C82F
  $C7FD  A5 0B     LDA $0B
  $C7FF  29 0F     AND #$0F
  $C801  D0 0A     BNE $C80D
  $C803  CE 08 01  DEC $0108
  $C806  D0 05     BNE $C80D
  $C808  A9 F0     LDA #$F0
  $C80A  8D 06 01  STA $0106
  $C80D  AD 08 01  LDA $0108
  $C810  C9 0A     CMP #$0A
  $C812  90 18     BCC $C82C
  $C814  AD 07 01  LDA $0107
  $C817  A8        TAY 
  $C818  B9 C6 D2  LDA $D2C6,Y
  $C81B  18        CLC 
  $C81C  6D 05 01  ADC $0105
  $C81F  8D 05 01  STA $0105
  $C822  B9 CA D2  LDA $D2CA,Y
  $C825  18        CLC 
  $C826  6D 06 01  ADC $0106
  $C829  8D 06 01  STA $0106
  $C82C  20 CD C7  JSR $C7CD
  $C82F  60        RTS 
  $C830  A9 02     LDA #$02
  $C832  85 56     STA $56
  $C834  85 57     STA $57
  $C836  A9 1A     LDA #$1A
  $C838  85 5A     STA $5A
  $C83A  85 5B     STA $5B
  $C83C  20 EC D7  JSR $D7EC
  $C83F  60        RTS 
  $C840  20 AF D5  JSR $D5AF
  $C843  A9 00     LDA #$00
  $C845  85 0A     STA $0A
  $C847  85 4F     STA $4F
  $C849  A9 02     LDA #$02
  $C84B  85 50     STA $50
  $C84D  A9 30     LDA #$30
  $C84F  85 60     STA $60
  $C851  20 5F D9  JSR $D95F
  $C854  A5 4B     LDA $4B
  $C856  20 94 DA  JSR $DA94
  $C859  A0 36     LDY #$36
  $C85B  A2 0F     LDX #$0F
  $C85D  20 A7 D9  JSR $D9A7
  $C860  A0 15     LDY #$15
  $C862  20 FD D6  JSR $D6FD
  $C865  A5 09     LDA $09
  $C867  29 04     AND #$04
  $C869  F0 07     BEQ $C872
  $C86B  A9 00     LDA #$00
  $C86D  85 83     STA $83
  $C86F  4C 8B C8  JMP $C88B
  $C872  A5 08     LDA $08
  $C874  29 04     AND #$04
  $C876  F0 D9     BEQ $C851
  $C878  AD 16 40  LDA $4016
  $C87B  29 08     AND #$08
  $C87D  F0 08     BEQ $C887
  $C87F  A5 4B     LDA $4B
  $C881  C9 02     CMP #$02
  $C883  90 CC     BCC $C851
  $C885  C6 4B     DEC $4B
  $C887  A9 01     LDA #$01
  $C889  85 83     STA $83
  $C88B  20 D3 D5  JSR $D5D3
  $C88E  C6 4B     DEC $4B
  $C890  68        PLA 
  $C891  68        PLA 
  $C892  A5 83     LDA $83
  $C894  0A        ASL 
  $C895  A8        TAY 
  $C896  B9 A3 C8  LDA $C8A3,Y
  $C899  85 11     STA $11
  $C89B  B9 A4 C8  LDA $C8A4,Y
  $C89E  85 12     STA $12
  $C8A0  6C 11 00  JMP ($0011)
  $C8A3  A7 C8     LAX $C8
  $C8A5  AC C8 A9  LDY $A9C8
  $C8A8  05 4C     ORA $4C
  $C8AA  AE C8 A9  LDX $A9C8
  $C8AD  07 85     SLO $85
  $C8AF  6C 20 5A  JMP ($5A20)
  $C8B2  C2 4C     NOP #$4C
  $C8B4  C1 C0     CMP ($C0,X)
  $C8B6  20 5F D9  JSR $D95F
  $C8B9  A2 0C     LDX #$0C
  $C8BB  A0 0E     LDY #$0E
  $C8BD  20 FC D5  JSR $D5FC
  $C8C0  A6 0C     LDX $0C
  $C8C2  18        CLC 
  $C8C3  69 1C     ADC #$1C
  $C8C5  9D 80 01  STA $0180,X
  $C8C8  E8        INX 
  $C8C9  98        TYA 
  $C8CA  9D 80 01  STA $0180,X
  $C8CD  E8        INX 
  $C8CE  A9 23     LDA #$23
  $C8D0  9D 80 01  STA $0180,X
  $C8D3  E8        INX 
  $C8D4  A9 24     LDA #$24
  $C8D6  9D 80 01  STA $0180,X
  $C8D9  E8        INX 
  $C8DA  A9 25     LDA #$25
  $C8DC  9D 80 01  STA $0180,X
  $C8DF  E8        INX 
  $C8E0  A9 26     LDA #$26
  $C8E2  9D 80 01  STA $0180,X
  $C8E5  E8        INX 
  $C8E6  A9 27     LDA #$27
  $C8E8  9D 80 01  STA $0180,X
  $C8EB  E8        INX 
  $C8EC  A9 11     LDA #$11
  $C8EE  9D 80 01  STA $0180,X
  $C8F1  E8        INX 
  $C8F2  A9 11     LDA #$11
  $C8F4  9D 80 01  STA $0180,X
  $C8F7  E8        INX 
  $C8F8  A9 FF     LDA #$FF
  $C8FA  9D 80 01  STA $0180,X
  $C8FD  E8        INX 
  $C8FE  86 0C     STX $0C
  $C900  A5 85     LDA $85
  $C902  20 94 DA  JSR $DA94
  $C905  A0 36     LDY #$36
  $C907  A2 0E     LDX #$0E
  $C909  20 A7 D9  JSR $D9A7
  $C90C  A0 0E     LDY #$0E
  $C90E  20 FD D6  JSR $D6FD
  $C911  60        RTS 
  $C912  A9 D2     LDA #$D2
  $C914  85 12     STA $12
  $C916  A9 2D     LDA #$2D
  $C918  85 11     STA $11
  $C91A  A2 0C     LDX #$0C
  $C91C  A0 18     LDY #$18
  $C91E  20 D3 D6  JSR $D6D3
  $C921  A9 D2     LDA #$D2
  $C923  85 12     STA $12
  $C925  A9 34     LDA #$34
  $C927  85 11     STA $11
  $C929  A2 0C     LDX #$0C
  $C92B  A0 19     LDY #$19
  $C92D  20 D3 D6  JSR $D6D3
  $C930  A9 D2     LDA #$D2
  $C932  85 12     STA $12
  $C934  A9 3B     LDA #$3B
  $C936  85 11     STA $11
  $C938  A2 0C     LDX #$0C
  $C93A  A0 1A     LDY #$1A
  $C93C  20 D3 D6  JSR $D6D3
  $C93F  A9 D2     LDA #$D2
  $C941  85 12     STA $12
  $C943  A9 42     LDA #$42
  $C945  85 11     STA $11
  $C947  A2 0C     LDX #$0C
  $C949  A0 1B     LDY #$1B
  $C94B  20 D3 D6  JSR $D6D3
  $C94E  A6 0C     LDX $0C
  $C950  A9 23     LDA #$23
  $C952  9D 80 01  STA $0180,X
  $C955  E8        INX 
  $C956  A9 F3     LDA #$F3
  $C958  9D 80 01  STA $0180,X
  $C95B  E8        INX 
  $C95C  A9 00     LDA #$00
  $C95E  8D F3 07  STA $07F3
  $C961  9D 80 01  STA $0180,X
  $C964  E8        INX 
  $C965  AD F4 07  LDA $07F4
  $C968  29 CC     AND #$CC
  $C96A  8D F4 07  STA $07F4
  $C96D  9D 80 01  STA $0180,X
  $C970  E8        INX 
  $C971  A9 FF     LDA #$FF
  $C973  9D 80 01  STA $0180,X
  $C976  E8        INX 
  $C977  86 0C     STX $0C
  $C979  60        RTS 
  $C97A  A9 D2     LDA #$D2
  $C97C  85 12     STA $12
  $C97E  A9 65     LDA #$65
  $C980  85 11     STA $11
  $C982  A2 0E     LDX #$0E
  $C984  A0 1A     LDY #$1A
  $C986  20 D3 D6  JSR $D6D3
  $C989  A9 D2     LDA #$D2
  $C98B  85 12     STA $12
  $C98D  A9 68     LDA #$68
  $C98F  85 11     STA $11
  $C991  A2 0E     LDX #$0E
  $C993  A0 1B     LDY #$1B
  $C995  20 D3 D6  JSR $D6D3
  $C998  A6 0C     LDX $0C
  $C99A  A9 23     LDA #$23
  $C99C  9D 80 01  STA $0180,X
  $C99F  E8        INX 
  $C9A0  A9 F3     LDA #$F3
  $C9A2  9D 80 01  STA $0180,X
  $C9A5  E8        INX 
  $C9A6  AD F3 07  LDA $07F3
  $C9A9  29 3F     AND #$3F
  $C9AB  8D F3 07  STA $07F3
  $C9AE  9D 80 01  STA $0180,X
  $C9B1  E8        INX 
  $C9B2  A9 FF     LDA #$FF
  $C9B4  9D 80 01  STA $0180,X
  $C9B7  E8        INX 
  $C9B8  86 0C     STX $0C
  $C9BA  60        RTS 
  $C9BB  A9 D2     LDA #$D2
  $C9BD  85 12     STA $12
  $C9BF  A9 49     LDA #$49
  $C9C1  85 11     STA $11
  $C9C3  A2 0C     LDX #$0C
  $C9C5  A0 18     LDY #$18
  $C9C7  20 D3 D6  JSR $D6D3
  $C9CA  A9 D2     LDA #$D2
  $C9CC  85 12     STA $12
  $C9CE  A9 50     LDA #$50
  $C9D0  85 11     STA $11
  $C9D2  A2 0C     LDX #$0C
  $C9D4  A0 19     LDY #$19
  $C9D6  20 D3 D6  JSR $D6D3
  $C9D9  A9 D2     LDA #$D2
  $C9DB  85 12     STA $12
  $C9DD  A9 57     LDA #$57
  $C9DF  85 11     STA $11
  $C9E1  A2 0C     LDX #$0C
  $C9E3  A0 1A     LDY #$1A
  $C9E5  20 D3 D6  JSR $D6D3
  $C9E8  A9 D2     LDA #$D2
  $C9EA  85 12     STA $12
  $C9EC  A9 5E     LDA #$5E
  $C9EE  85 11     STA $11
  $C9F0  A2 0C     LDX #$0C
  $C9F2  A0 1B     LDY #$1B
  $C9F4  20 D3 D6  JSR $D6D3
  $C9F7  A6 0C     LDX $0C
  $C9F9  A9 23     LDA #$23
  $C9FB  9D 80 01  STA $0180,X
  $C9FE  E8        INX 
  $C9FF  A9 F3     LDA #$F3
  $CA01  9D 80 01  STA $0180,X
  $CA04  E8        INX 
  $CA05  A9 3F     LDA #$3F
  $CA07  8D F3 07  STA $07F3
  $CA0A  9D 80 01  STA $0180,X
  $CA0D  E8        INX 
  $CA0E  AD F4 07  LDA $07F4
  $CA11  29 CC     AND #$CC
  $CA13  09 33     ORA #$33
  $CA15  8D F4 07  STA $07F4
  $CA18  9D 80 01  STA $0180,X
  $CA1B  E8        INX 
  $CA1C  A9 FF     LDA #$FF
  $CA1E  9D 80 01  STA $0180,X
  $CA21  E8        INX 
  $CA22  86 0C     STX $0C
  $CA24  60        RTS 
  $CA25  A9 D2     LDA #$D2
  $CA27  85 12     STA $12
  $CA29  A9 6B     LDA #$6B
  $CA2B  85 11     STA $11
  $CA2D  A2 0E     LDX #$0E
  $CA2F  A0 1A     LDY #$1A
  $CA31  20 D3 D6  JSR $D6D3
  $CA34  A9 D2     LDA #$D2
  $CA36  85 12     STA $12
  $CA38  A9 6E     LDA #$6E
  $CA3A  85 11     STA $11
  $CA3C  A2 0E     LDX #$0E
  $CA3E  A0 1B     LDY #$1B
  $CA40  20 D3 D6  JSR $D6D3
  $CA43  60        RTS 
  $CA44  A0 00     LDY #$00
  $CA46  A9 23     LDA #$23
  $CA48  85 12     STA $12
  $CA4A  A9 C0     LDA #$C0
  $CA4C  85 11     STA $11
  $CA4E  20 5F D9  JSR $D95F
  $CA51  A6 0C     LDX $0C
  $CA53  A5 12     LDA $12
  $CA55  9D 80 01  STA $0180,X
  $CA58  E8        INX 
  $CA59  A5 11     LDA $11
  $CA5B  9D 80 01  STA $0180,X
  $CA5E  E8        INX 
  $CA5F  B9 C0 07  LDA $07C0,Y
  $CA62  C8        INY 
  $CA63  9D 80 01  STA $0180,X
  $CA66  E8        INX 
  $CA67  A9 FF     LDA #$FF
  $CA69  9D 80 01  STA $0180,X
  $CA6C  E8        INX 
  $CA6D  86 0C     STX $0C
  $CA6F  A9 01     LDA #$01
  $CA71  20 CA D7  JSR $D7CA
  $CA74  C0 40     CPY #$40
  $CA76  D0 D6     BNE $CA4E
  $CA78  60        RTS 
  $CA79  A2 00     LDX #$00
  $CA7B  20 FC D5  JSR $D5FC
  $CA7E  85 12     STA $12
  $CA80  84 11     STY $11
  $CA82  A6 0C     LDX $0C
  $CA84  A5 12     LDA $12
  $CA86  18        CLC 
  $CA87  69 1C     ADC #$1C
  $CA89  9D 80 01  STA $0180,X
  $CA8C  E8        INX 
  $CA8D  A5 11     LDA $11
  $CA8F  9D 80 01  STA $0180,X
  $CA92  E8        INX 
  $CA93  A0 00     LDY #$00
  $CA95  A5 63     LDA $63
  $CA97  D0 02     BNE $CA9B
  $CA99  B1 11     LDA ($11),Y
  $CA9B  9D 80 01  STA $0180,X
  $CA9E  E8        INX 
  $CA9F  C8        INY 
  $CAA0  C0 20     CPY #$20
  $CAA2  D0 F1     BNE $CA95
  $CAA4  A9 FF     LDA #$FF
  $CAA6  9D 80 01  STA $0180,X
  $CAA9  E8        INX 
  $CAAA  86 0C     STX $0C
  $CAAC  60        RTS 
  $CAAD  A9 11     LDA #$11
  $CAAF  85 63     STA $63
  $CAB1  A9 00     LDA #$00
  $CAB3  85 57     STA $57
  $CAB5  20 5F D9  JSR $D95F
  $CAB8  A4 57     LDY $57
  $CABA  20 79 CA  JSR $CA79
  $CABD  A9 1D     LDA #$1D
  $CABF  38        SEC 
  $CAC0  E5 57     SBC $57
  $CAC2  A8        TAY 
  $CAC3  20 79 CA  JSR $CA79
  $CAC6  E6 57     INC $57
  $CAC8  A5 57     LDA $57
  $CACA  C9 10     CMP #$10
  $CACC  D0 E7     BNE $CAB5
  $CACE  60        RTS 
  $CACF  A9 00     LDA #$00
  $CAD1  85 63     STA $63
  $CAD3  A9 0F     LDA #$0F
  $CAD5  85 57     STA $57
  $CAD7  20 5F D9  JSR $D95F
  $CADA  A4 57     LDY $57
  $CADC  20 79 CA  JSR $CA79
  $CADF  A9 1D     LDA #$1D
  $CAE1  38        SEC 
  $CAE2  E5 57     SBC $57
  $CAE4  A8        TAY 
  $CAE5  20 79 CA  JSR $CA79
  $CAE8  C6 57     DEC $57
  $CAEA  A5 57     LDA $57
  $CAEC  C9 FF     CMP #$FF
  $CAEE  D0 E7     BNE $CAD7
  $CAF0  60        RTS 
  $CAF1  20 04 CD  JSR $CD04
  $CAF4  A2 19     LDX #$19
  $CAF6  20 37 D1  JSR $D137
  $CAF9  A5 73     LDA $73
  $CAFB  18        CLC 
  $CAFC  65 74     ADC $74
  $CAFE  18        CLC 
  $CAFF  65 75     ADC $75
  $CB01  18        CLC 
  $CB02  65 76     ADC $76
  $CB04  85 7D     STA $7D
  $CB06  A5 77     LDA $77
  $CB08  18        CLC 
  $CB09  65 78     ADC $78
  $CB0B  18        CLC 
  $CB0C  65 79     ADC $79
  $CB0E  18        CLC 
  $CB0F  65 7A     ADC $7A
  $CB11  85 7E     STA $7E
  $CB13  A9 00     LDA #$00
  $CB15  85 5A     STA $5A
  $CB17  20 5F D9  JSR $D95F
  $CB1A  20 C4 CE  JSR $CEC4
  $CB1D  A2 25     LDX #$25
  $CB1F  20 7F DA  JSR $DA7F
  $CB22  A2 2D     LDX #$2D
  $CB24  20 7F DA  JSR $DA7F
  $CB27  A9 00     LDA #$00
  $CB29  85 5D     STA $5D
  $CB2B  85 5E     STA $5E
  $CB2D  20 5F D9  JSR $D95F
  $CB30  20 C4 CE  JSR $CEC4
  $CB33  A9 00     LDA #$00
  $CB35  85 7C     STA $7C
  $CB37  A6 5A     LDX $5A
  $CB39  BD C2 D2  LDA $D2C2,X
  $CB3C  20 62 DA  JSR $DA62
  $CB3F  A6 5A     LDX $5A
  $CB41  B5 73     LDA $73,X
  $CB43  F0 18     BEQ $CB5D
  $CB45  A9 01     LDA #$01
  $CB47  8D 13 03  STA $0313
  $CB4A  8D 14 03  STA $0314
  $CB4D  D6 73     DEC $73,X
  $CB4F  E6 5D     INC $5D
  $CB51  A2 02     LDX #$02
  $CB53  20 31 DA  JSR $DA31
  $CB56  A9 01     LDA #$01
  $CB58  85 7C     STA $7C
  $CB5A  20 44 CF  JSR $CF44
  $CB5D  A6 5A     LDX $5A
  $CB5F  B5 77     LDA $77,X
  $CB61  F0 18     BEQ $CB7B
  $CB63  A9 01     LDA #$01
  $CB65  8D 13 03  STA $0313
  $CB68  8D 14 03  STA $0314
  $CB6B  D6 77     DEC $77,X
  $CB6D  E6 5E     INC $5E
  $CB6F  A2 03     LDX #$03
  $CB71  20 31 DA  JSR $DA31
  $CB74  A9 01     LDA #$01
  $CB76  85 7C     STA $7C
  $CB78  20 44 CF  JSR $CF44
  $CB7B  A0 16     LDY #$16
  $CB7D  A2 05     LDX #$05
  $CB7F  20 A7 D9  JSR $D9A7
  $CB82  A0 09     LDY #$09
  $CB84  20 FD D6  JSR $D6FD
  $CB87  A2 01     LDX #$01
  $CB89  A0 26     LDY #$26
  $CB8B  20 A7 D9  JSR $D9A7
  $CB8E  A5 5A     LDA $5A
  $CB90  0A        ASL 
  $CB91  18        CLC 
  $CB92  65 5A     ADC $5A
  $CB94  18        CLC 
  $CB95  69 0C     ADC #$0C
  $CB97  A8        TAY 
  $CB98  20 FD D6  JSR $D6FD
  $CB9B  A6 5A     LDX $5A
  $CB9D  A5 5D     LDA $5D
  $CB9F  20 94 DA  JSR $DA94
  $CBA2  A2 08     LDX #$08
  $CBA4  A0 36     LDY #$36
  $CBA6  20 A7 D9  JSR $D9A7
  $CBA9  A5 5A     LDA $5A
  $CBAB  0A        ASL 
  $CBAC  18        CLC 
  $CBAD  65 5A     ADC $5A
  $CBAF  18        CLC 
  $CBB0  69 0C     ADC #$0C
  $CBB2  A8        TAY 
  $CBB3  20 FD D6  JSR $D6FD
  $CBB6  A5 83     LDA $83
  $CBB8  F0 3B     BEQ $CBF5
  $CBBA  A0 1E     LDY #$1E
  $CBBC  A2 17     LDX #$17
  $CBBE  20 A7 D9  JSR $D9A7
  $CBC1  A0 09     LDY #$09
  $CBC3  20 FD D6  JSR $D6FD
  $CBC6  A2 13     LDX #$13
  $CBC8  A0 2E     LDY #$2E
  $CBCA  20 A7 D9  JSR $D9A7
  $CBCD  A5 5A     LDA $5A
  $CBCF  0A        ASL 
  $CBD0  18        CLC 
  $CBD1  65 5A     ADC $5A
  $CBD3  18        CLC 
  $CBD4  69 0C     ADC #$0C
  $CBD6  A8        TAY 
  $CBD7  20 FD D6  JSR $D6FD
  $CBDA  A6 5A     LDX $5A
  $CBDC  A5 5E     LDA $5E
  $CBDE  20 94 DA  JSR $DA94
  $CBE1  A2 0E     LDX #$0E
  $CBE3  A0 36     LDY #$36
  $CBE5  20 A7 D9  JSR $D9A7
  $CBE8  A5 5A     LDA $5A
  $CBEA  0A        ASL 
  $CBEB  18        CLC 
  $CBEC  65 5A     ADC $5A
  $CBEE  18        CLC 
  $CBEF  69 0C     ADC #$0C
  $CBF1  A8        TAY 
  $CBF2  20 FD D6  JSR $D6FD
  $CBF5  A2 07     LDX #$07
  $CBF7  20 37 D1  JSR $D137
  $CBFA  A5 7C     LDA $7C
  $CBFC  F0 03     BEQ $CC01
  $CBFE  4C 2D CB  JMP $CB2D
  $CC01  E6 5A     INC $5A
  $CC03  A5 5A     LDA $5A
  $CC05  C9 04     CMP #$04
  $CC07  F0 08     BEQ $CC11
  $CC09  A2 12     LDX #$12
  $CC0B  20 37 D1  JSR $D137
  $CC0E  4C 17 CB  JMP $CB17
  $CC11  A2 19     LDX #$19
  $CC13  20 37 D1  JSR $D137
  $CC16  A5 7D     LDA $7D
  $CC18  20 94 DA  JSR $DA94
  $CC1B  A0 36     LDY #$36
  $CC1D  A2 08     LDX #$08
  $CC1F  20 A7 D9  JSR $D9A7
  $CC22  A0 17     LDY #$17
  $CC24  20 FD D6  JSR $D6FD
  $CC27  A5 83     LDA $83
  $CC29  F0 11     BEQ $CC3C
  $CC2B  A5 7E     LDA $7E
  $CC2D  20 94 DA  JSR $DA94
  $CC30  A0 36     LDY #$36
  $CC32  A2 0E     LDX #$0E
  $CC34  20 A7 D9  JSR $D9A7
  $CC37  A0 17     LDY #$17
  $CC39  20 FD D6  JSR $D6FD
  $CC3C  A2 0D     LDX #$0D
  $CC3E  20 37 D1  JSR $D137
  $CC41  A5 83     LDA $83
  $CC43  D0 03     BNE $CC48
  $CC45  4C F3 CC  JMP $CCF3
  $CC48  A5 7E     LDA $7E
  $CC4A  C5 7D     CMP $7D
  $CC4C  B0 51     BCS $CC9F
  $CC4E  A9 00     LDA #$00
  $CC50  20 62 DA  JSR $DA62
  $CC53  A2 00     LDX #$00
  $CC55  20 31 DA  JSR $DA31
  $CC58  A0 16     LDY #$16
  $CC5A  A2 05     LDX #$05
  $CC5C  20 A7 D9  JSR $D9A7
  $CC5F  A0 09     LDY #$09
  $CC61  20 FD D6  JSR $D6FD
  $CC64  A0 36     LDY #$36
  $CC66  A2 01     LDX #$01
  $CC68  20 A7 D9  JSR $D9A7
  $CC6B  A0 1A     LDY #$1A
  $CC6D  20 FD D6  JSR $D6FD
  $CC70  A9 D2     LDA #$D2
  $CC72  85 12     STA $12
  $CC74  A9 84     LDA #$84
  $CC76  85 11     STA $11
  $CC78  A2 03     LDX #$03
  $CC7A  A0 19     LDY #$19
  $CC7C  20 D3 D6  JSR $D6D3
  $CC7F  A9 D2     LDA #$D2
  $CC81  85 12     STA $12
  $CC83  A9 1E     LDA #$1E
  $CC85  85 11     STA $11
  $CC87  A2 08     LDX #$08
  $CC89  A0 1A     LDY #$1A
  $CC8B  20 D3 D6  JSR $D6D3
  $CC8E  A9 01     LDA #$01
  $CC90  8D 1B 03  STA $031B
  $CC93  8D 1C 03  STA $031C
  $CC96  8D 1D 03  STA $031D
  $CC99  20 44 CF  JSR $CF44
  $CC9C  4C F3 CC  JMP $CCF3
  $CC9F  A5 7D     LDA $7D
  $CCA1  C5 7E     CMP $7E
  $CCA3  B0 4E     BCS $CCF3
  $CCA5  A9 00     LDA #$00
  $CCA7  20 62 DA  JSR $DA62
  $CCAA  A2 01     LDX #$01
  $CCAC  20 31 DA  JSR $DA31
  $CCAF  A0 1E     LDY #$1E
  $CCB1  A2 17     LDX #$17
  $CCB3  20 A7 D9  JSR $D9A7
  $CCB6  A0 09     LDY #$09
  $CCB8  20 FD D6  JSR $D6FD
  $CCBB  A0 36     LDY #$36
  $CCBD  A2 14     LDX #$14
  $CCBF  20 A7 D9  JSR $D9A7
  $CCC2  A0 1A     LDY #$1A
  $CCC4  20 FD D6  JSR $D6FD
  $CCC7  A9 D2     LDA #$D2
  $CCC9  85 12     STA $12
  $CCCB  A9 84     LDA #$84
  $CCCD  85 11     STA $11
  $CCCF  A2 16     LDX #$16
  $CCD1  A0 19     LDY #$19
  $CCD3  20 D3 D6  JSR $D6D3
  $CCD6  A9 D2     LDA #$D2
  $CCD8  85 12     STA $12
  $CCDA  A9 1E     LDA #$1E
  $CCDC  85 11     STA $11
  $CCDE  A2 1B     LDX #$1B
  $CCE0  A0 1A     LDY #$1A
  $CCE2  20 D3 D6  JSR $D6D3
  $CCE5  A9 01     LDA #$01
  $CCE7  8D 1B 03  STA $031B
  $CCEA  8D 1C 03  STA $031C
  $CCED  8D 1D 03  STA $031D
  $CCF0  20 44 CF  JSR $CF44
  $CCF3  A2 64     LDX #$64
  $CCF5  20 37 D1  JSR $D137
  $CCF8  A9 00     LDA #$00
  $CCFA  85 50     STA $50
  $CCFC  85 60     STA $60
  $CCFE  85 6B     STA $6B
  $CD00  20 D3 D5  JSR $D5D3
  $CD03  60        RTS 
  $CD04  20 5F D9  JSR $D95F
  $CD07  A9 01     LDA #$01
  $CD09  85 6B     STA $6B
  $CD0B  A9 24     LDA #$24
  $CD0D  85 05     STA $05
  $CD0F  A9 00     LDA #$00
  $CD11  85 4F     STA $4F
  $CD13  A9 02     LDA #$02
  $CD15  85 50     STA $50
  $CD17  A9 30     LDA #$30
  $CD19  85 60     STA $60
  $CD1B  20 AF D5  JSR $D5AF
  $CD1E  20 A1 D3  JSR $D3A1
  $CD21  20 AC D3  JSR $D3AC
  $CD24  20 E5 CE  JSR $CEE5
  $CD27  20 D4 D7  JSR $D7D4
  $CD2A  20 96 D3  JSR $D396
  $CD2D  A9 D1     LDA #$D1
  $CD2F  85 12     STA $12
  $CD31  A9 73     LDA #$73
  $CD33  85 11     STA $11
  $CD35  A2 08     LDX #$08
  $CD37  A0 03     LDY #$03
  $CD39  20 D3 D6  JSR $D6D3
  $CD3C  A0 3E     LDY #$3E
  $CD3E  A2 12     LDX #$12
  $CD40  20 A7 D9  JSR $D9A7
  $CD43  A0 03     LDY #$03
  $CD45  20 FD D6  JSR $D6FD
  $CD48  A9 D2     LDA #$D2
  $CD4A  85 12     STA $12
  $CD4C  A9 8B     LDA #$8B
  $CD4E  85 11     STA $11
  $CD50  A2 0C     LDX #$0C
  $CD52  A0 05     LDY #$05
  $CD54  20 D3 D6  JSR $D6D3
  $CD57  A5 85     LDA $85
  $CD59  20 94 DA  JSR $DA94
  $CD5C  A0 36     LDY #$36
  $CD5E  A2 0E     LDX #$0E
  $CD60  20 A7 D9  JSR $D9A7
  $CD63  A0 05     LDY #$05
  $CD65  20 FD D6  JSR $D6FD
  $CD68  20 5F D9  JSR $D95F
  $CD6B  A9 D1     LDA #$D1
  $CD6D  85 12     STA $12
  $CD6F  A9 7C     LDA #$7C
  $CD71  85 11     STA $11
  $CD73  A2 03     LDX #$03
  $CD75  A0 07     LDY #$07
  $CD77  20 D3 D6  JSR $D6D3
  $CD7A  A0 16     LDY #$16
  $CD7C  A2 05     LDX #$05
  $CD7E  20 A7 D9  JSR $D9A7
  $CD81  A0 09     LDY #$09
  $CD83  20 FD D6  JSR $D6FD
  $CD86  A9 D2     LDA #$D2
  $CD88  85 12     STA $12
  $CD8A  A9 71     LDA #$71
  $CD8C  85 11     STA $11
  $CD8E  A2 0E     LDX #$0E
  $CD90  A0 0C     LDY #$0C
  $CD92  20 D3 D6  JSR $D6D3
  $CD95  A9 D2     LDA #$D2
  $CD97  85 12     STA $12
  $CD99  A9 71     LDA #$71
  $CD9B  85 11     STA $11
  $CD9D  A2 0E     LDX #$0E
  $CD9F  A0 0F     LDY #$0F
  $CDA1  20 D3 D6  JSR $D6D3
  $CDA4  A9 D2     LDA #$D2
  $CDA6  85 12     STA $12
  $CDA8  A9 71     LDA #$71
  $CDAA  85 11     STA $11
  $CDAC  A2 0E     LDX #$0E
  $CDAE  A0 12     LDY #$12
  $CDB0  20 D3 D6  JSR $D6D3
  $CDB3  A9 D2     LDA #$D2
  $CDB5  85 12     STA $12
  $CDB7  A9 71     LDA #$71
  $CDB9  85 11     STA $11
  $CDBB  A2 0E     LDX #$0E
  $CDBD  A0 15     LDY #$15
  $CDBF  20 D3 D6  JSR $D6D3
  $CDC2  A5 83     LDA $83
  $CDC4  F0 5A     BEQ $CE20
  $CDC6  20 5F D9  JSR $D95F
  $CDC9  A9 D1     LDA #$D1
  $CDCB  85 12     STA $12
  $CDCD  A9 85     LDA #$85
  $CDCF  85 11     STA $11
  $CDD1  A2 15     LDX #$15
  $CDD3  A0 07     LDY #$07
  $CDD5  20 D3 D6  JSR $D6D3
  $CDD8  A0 1E     LDY #$1E
  $CDDA  A2 17     LDX #$17
  $CDDC  20 A7 D9  JSR $D9A7
  $CDDF  A0 09     LDY #$09
  $CDE1  20 FD D6  JSR $D6FD
  $CDE4  A9 D2     LDA #$D2
  $CDE6  85 12     STA $12
  $CDE8  A9 73     LDA #$73
  $CDEA  85 11     STA $11
  $CDEC  A2 11     LDX #$11
  $CDEE  A0 0C     LDY #$0C
  $CDF0  20 D3 D6  JSR $D6D3
  $CDF3  A9 D2     LDA #$D2
  $CDF5  85 12     STA $12
  $CDF7  A9 73     LDA #$73
  $CDF9  85 11     STA $11
  $CDFB  A2 11     LDX #$11
  $CDFD  A0 0F     LDY #$0F
  $CDFF  20 D3 D6  JSR $D6D3
  $CE02  A9 D2     LDA #$D2
  $CE04  85 12     STA $12
  $CE06  A9 73     LDA #$73
  $CE08  85 11     STA $11
  $CE0A  A2 11     LDX #$11
  $CE0C  A0 12     LDY #$12
  $CE0E  20 D3 D6  JSR $D6D3
  $CE11  A9 D2     LDA #$D2
  $CE13  85 12     STA $12
  $CE15  A9 73     LDA #$73
  $CE17  85 11     STA $11
  $CE19  A2 11     LDX #$11
  $CE1B  A0 15     LDY #$15
  $CE1D  20 D3 D6  JSR $D6D3
  $CE20  20 5F D9  JSR $D95F
  $CE23  A9 D2     LDA #$D2
  $CE25  85 12     STA $12
  $CE27  A9 1E     LDA #$1E
  $CE29  85 11     STA $11
  $CE2B  A2 08     LDX #$08
  $CE2D  A0 0C     LDY #$0C
  $CE2F  20 D3 D6  JSR $D6D3
  $CE32  A9 D2     LDA #$D2
  $CE34  85 12     STA $12
  $CE36  A9 1E     LDA #$1E
  $CE38  85 11     STA $11
  $CE3A  A2 08     LDX #$08
  $CE3C  A0 0F     LDY #$0F
  $CE3E  20 D3 D6  JSR $D6D3
  $CE41  A9 D2     LDA #$D2
  $CE43  85 12     STA $12
  $CE45  A9 1E     LDA #$1E
  $CE47  85 11     STA $11
  $CE49  A2 08     LDX #$08
  $CE4B  A0 12     LDY #$12
  $CE4D  20 D3 D6  JSR $D6D3
  $CE50  A9 D2     LDA #$D2
  $CE52  85 12     STA $12
  $CE54  A9 1E     LDA #$1E
  $CE56  85 11     STA $11
  $CE58  A2 08     LDX #$08
  $CE5A  A0 15     LDY #$15
  $CE5C  20 D3 D6  JSR $D6D3
  $CE5F  A5 83     LDA $83
  $CE61  F0 3F     BEQ $CEA2
  $CE63  20 5F D9  JSR $D95F
  $CE66  A9 D2     LDA #$D2
  $CE68  85 12     STA $12
  $CE6A  A9 1E     LDA #$1E
  $CE6C  85 11     STA $11
  $CE6E  A2 1A     LDX #$1A
  $CE70  A0 0C     LDY #$0C
  $CE72  20 D3 D6  JSR $D6D3
  $CE75  A9 D2     LDA #$D2
  $CE77  85 12     STA $12
  $CE79  A9 1E     LDA #$1E
  $CE7B  85 11     STA $11
  $CE7D  A2 1A     LDX #$1A
  $CE7F  A0 0F     LDY #$0F
  $CE81  20 D3 D6  JSR $D6D3
  $CE84  A9 D2     LDA #$D2
  $CE86  85 12     STA $12
  $CE88  A9 1E     LDA #$1E
  $CE8A  85 11     STA $11
  $CE8C  A2 1A     LDX #$1A
  $CE8E  A0 12     LDY #$12
  $CE90  20 D3 D6  JSR $D6D3
  $CE93  A9 D2     LDA #$D2
  $CE95  85 12     STA $12
  $CE97  A9 1E     LDA #$1E
  $CE99  85 11     STA $11
  $CE9B  A2 1A     LDX #$1A
  $CE9D  A0 15     LDY #$15
  $CE9F  20 D3 D6  JSR $D6D3
  $CEA2  20 5F D9  JSR $D95F
  $CEA5  A9 D2     LDA #$D2
  $CEA7  85 12     STA $12
  $CEA9  A9 7B     LDA #$7B
  $CEAB  85 11     STA $11
  $CEAD  A2 0C     LDX #$0C
  $CEAF  A0 16     LDY #$16
  $CEB1  20 D3 D6  JSR $D6D3
  $CEB4  A9 D2     LDA #$D2
  $CEB6  85 12     STA $12
  $CEB8  A9 75     LDA #$75
  $CEBA  85 11     STA $11
  $CEBC  A2 06     LDX #$06
  $CEBE  A0 17     LDY #$17
  $CEC0  20 D3 D6  JSR $D6D3
  $CEC3  60        RTS 
  $CEC4  A9 02     LDA #$02
  $CEC6  85 04     STA $04
  $CEC8  A0 64     LDY #$64
  $CECA  A9 80     LDA #$80
  $CECC  20 3C CF  JSR $CF3C
  $CECF  A0 7C     LDY #$7C
  $CED1  A9 A0     LDA #$A0
  $CED3  20 3C CF  JSR $CF3C
  $CED6  A0 94     LDY #$94
  $CED8  A9 C0     LDA #$C0
  $CEDA  20 3C CF  JSR $CF3C
  $CEDD  A0 AC     LDY #$AC
  $CEDF  A9 E0     LDA #$E0
  $CEE1  20 3C CF  JSR $CF3C
  $CEE4  60        RTS 
  $CEE5  A9 50     LDA #$50
  $CEE7  8D C0 07  STA $07C0
  $CEEA  8D C1 07  STA $07C1
  $CEED  8D C2 07  STA $07C2
  $CEF0  8D C3 07  STA $07C3
  $CEF3  8D C8 07  STA $07C8
  $CEF6  8D C9 07  STA $07C9
  $CEF9  8D CA 07  STA $07CA
  $CEFC  8D CD 07  STA $07CD
  $CEFF  8D CE 07  STA $07CE
  $CF02  8D CF 07  STA $07CF
  $CF05  A9 A0     LDA #$A0
  $CF07  8D C4 07  STA $07C4
  $CF0A  8D C5 07  STA $07C5
  $CF0D  8D C6 07  STA $07C6
  $CF10  8D C7 07  STA $07C7
  $CF13  A9 0A     LDA #$0A
  $CF15  8D D0 07  STA $07D0
  $CF18  8D D1 07  STA $07D1
  $CF1B  8D D2 07  STA $07D2
  $CF1E  8D D5 07  STA $07D5
  $CF21  8D D6 07  STA $07D6
  $CF24  8D D7 07  STA $07D7
  $CF27  A9 05     LDA #$05
  $CF29  8D F0 07  STA $07F0
  $CF2C  8D F1 07  STA $07F1
  $CF2F  8D F2 07  STA $07F2
  $CF32  8D F5 07  STA $07F5
  $CF35  8D F6 07  STA $07F6
  $CF38  8D F7 07  STA $07F7
  $CF3B  60        RTS 
  $CF3C  85 53     STA $53
  $CF3E  A2 81     LDX #$81
  $CF40  20 0A DB  JSR $DB0A
  $CF43  60        RTS 
  $CF44  A5 68     LDA $68
  $CF46  C9 80     CMP #$80
  $CF48  D0 4B     BNE $CF95
  $CF4A  A5 51     LDA $51
  $CF4C  F0 1D     BEQ $CF6B
  $CF4E  A5 66     LDA $66
  $CF50  D0 06     BNE $CF58
  $CF52  A5 17     LDA $17
  $CF54  C9 02     CMP #$02
  $CF56  B0 0C     BCS $CF64
  $CF58  A5 66     LDA $66
  $CF5A  C9 01     CMP #$01
  $CF5C  D0 0D     BNE $CF6B
  $CF5E  A5 17     LDA $17
  $CF60  C9 07     CMP #$07
  $CF62  90 07     BCC $CF6B
  $CF64  E6 51     INC $51
  $CF66  E6 66     INC $66
  $CF68  4C 8D CF  JMP $CF8D
  $CF6B  A5 83     LDA $83
  $CF6D  F0 26     BEQ $CF95
  $CF6F  A5 52     LDA $52
  $CF71  F0 22     BEQ $CF95
  $CF73  A5 67     LDA $67
  $CF75  D0 06     BNE $CF7D
  $CF77  A5 1F     LDA $1F
  $CF79  C9 02     CMP #$02
  $CF7B  B0 0C     BCS $CF89
  $CF7D  A5 67     LDA $67
  $CF7F  C9 01     CMP #$01
  $CF81  D0 12     BNE $CF95
  $CF83  A5 1F     LDA $1F
  $CF85  C9 07     CMP #$07
  $CF87  90 0C     BCC $CF95
  $CF89  E6 52     INC $52
  $CF8B  E6 67     INC $67
  $CF8D  A9 01     LDA #$01
  $CF8F  8D 04 03  STA $0304
  $CF92  8D 05 03  STA $0305
  $CF95  60        RTS 
  $CF96  20 AF D5  JSR $D5AF
  $CF99  20 A1 D3  JSR $D3A1
  $CF9C  A9 1C     LDA #$1C
  $CF9E  85 05     STA $05
  $CFA0  20 AC D3  JSR $D3AC
  $CFA3  20 D4 D7  JSR $D7D4
  $CFA6  20 96 D3  JSR $D396
  $CFA9  60        RTS 
  $CFAA  20 A1 D3  JSR $D3A1
  $CFAD  A9 24     LDA #$24
  $CFAF  85 05     STA $05
  $CFB1  20 AC D3  JSR $D3AC
  $CFB4  A2 1A     LDX #$1A
  $CFB6  86 56     STX $56
  $CFB8  A0 2E     LDY #$2E
  $CFBA  84 57     STY $57
  $CFBC  A9 D1     LDA #$D1
  $CFBE  85 14     STA $14
  $CFC0  A9 4F     LDA #$4F
  $CFC2  85 13     STA $13
  $CFC4  20 F7 D8  JSR $D8F7
  $CFC7  A2 3C     LDX #$3C
  $CFC9  86 56     STX $56
  $CFCB  A0 56     LDY #$56
  $CFCD  84 57     STY $57
  $CFCF  A9 D1     LDA #$D1
  $CFD1  85 14     STA $14
  $CFD3  A9 56     LDA #$56
  $CFD5  85 13     STA $13
  $CFD7  20 F7 D8  JSR $D8F7
  $CFDA  20 D4 D7  JSR $D7D4
  $CFDD  20 96 D3  JSR $D396
  $CFE0  A9 30     LDA #$30
  $CFE2  85 60     STA $60
  $CFE4  A9 D1     LDA #$D1
  $CFE6  85 12     STA $12
  $CFE8  A9 5B     LDA #$5B
  $CFEA  85 11     STA $11
  $CFEC  A2 02     LDX #$02
  $CFEE  A0 03     LDY #$03
  $CFF0  20 D3 D6  JSR $D6D3
  $CFF3  A0 16     LDY #$16
  $CFF5  A2 04     LDX #$04
  $CFF7  20 A7 D9  JSR $D9A7
  $CFFA  A0 03     LDY #$03
  $CFFC  20 FD D6  JSR $D6FD
  $CFFF  A9 D1     LDA #$D1
  $D001  85 12     STA $12
  $D003  A9 67     LDA #$67
  $D005  85 11     STA $11
  $D007  A2 0B     LDX #$0B
  $D009  A0 03     LDY #$03
  $D00B  20 D3 D6  JSR $D6D3
  $D00E  A0 3E     LDY #$3E
  $D010  A2 0E     LDX #$0E
  $D012  20 A7 D9  JSR $D9A7
  $D015  A0 03     LDY #$03
  $D017  20 FD D6  JSR $D6FD
  $D01A  A5 83     LDA $83
  $D01C  F0 1B     BEQ $D039
  $D01E  A9 D1     LDA #$D1
  $D020  85 12     STA $12
  $D022  A9 5E     LDA #$5E
  $D024  85 11     STA $11
  $D026  A2 15     LDX #$15
  $D028  A0 03     LDY #$03
  $D02A  20 D3 D6  JSR $D6D3
  $D02D  A0 1E     LDY #$1E
  $D02F  A2 17     LDX #$17
  $D031  20 A7 D9  JSR $D9A7
  $D034  A0 03     LDY #$03
  $D036  20 FD D6  JSR $D6FD
  $D039  A9 00     LDA #$00
  $D03B  85 60     STA $60
  $D03D  20 5F D9  JSR $D95F
  $D040  A9 D1     LDA #$D1
  $D042  85 12     STA $12
  $D044  A9 45     LDA #$45
  $D046  85 11     STA $11
  $D048  A2 0D     LDX #$0D
  $D04A  A0 17     LDY #$17
  $D04C  20 D3 D6  JSR $D6D3
  $D04F  A9 D1     LDA #$D1
  $D051  85 12     STA $12
  $D053  A9 E7     LDA #$E7
  $D055  85 11     STA $11
  $D057  A2 05     LDX #$05
  $D059  A0 19     LDY #$19
  $D05B  20 D3 D6  JSR $D6D3
  $D05E  20 5F D9  JSR $D95F
  $D061  A9 D1     LDA #$D1
  $D063  85 12     STA $12
  $D065  A9 FE     LDA #$FE
  $D067  85 11     STA $11
  $D069  A2 07     LDX #$07
  $D06B  A0 1B     LDY #$1B
  $D06D  20 D3 D6  JSR $D6D3
  $D070  60        RTS 
  $D071  A9 00     LDA #$00
  $D073  85 0C     STA $0C
  $D075  20 A1 D3  JSR $D3A1
  $D078  A9 24     LDA #$24
  $D07A  85 05     STA $05
  $D07C  20 AC D3  JSR $D3AC
  $D07F  20 D4 D7  JSR $D7D4
  $D082  20 96 D3  JSR $D396
  $D085  A9 30     LDA #$30
  $D087  85 60     STA $60
  $D089  A9 D1     LDA #$D1
  $D08B  85 12     STA $12
  $D08D  A9 5B     LDA #$5B
  $D08F  85 11     STA $11
  $D091  A2 02     LDX #$02
  $D093  A0 03     LDY #$03
  $D095  20 D3 D6  JSR $D6D3
  $D098  A0 16     LDY #$16
  $D09A  A2 04     LDX #$04
  $D09C  20 A7 D9  JSR $D9A7
  $D09F  A0 03     LDY #$03
  $D0A1  20 FD D6  JSR $D6FD
  $D0A4  A9 D1     LDA #$D1
  $D0A6  85 12     STA $12
  $D0A8  A9 67     LDA #$67
  $D0AA  85 11     STA $11
  $D0AC  A2 0B     LDX #$0B
  $D0AE  A0 03     LDY #$03
  $D0B0  20 D3 D6  JSR $D6D3
  $D0B3  A0 3E     LDY #$3E
  $D0B5  A2 0E     LDX #$0E
  $D0B7  20 A7 D9  JSR $D9A7
  $D0BA  A0 03     LDY #$03
  $D0BC  20 FD D6  JSR $D6FD
  $D0BF  A5 83     LDA $83
  $D0C1  F0 1B     BEQ $D0DE
  $D0C3  A9 D1     LDA #$D1
  $D0C5  85 12     STA $12
  $D0C7  A9 5E     LDA #$5E
  $D0C9  85 11     STA $11
  $D0CB  A2 15     LDX #$15
  $D0CD  A0 03     LDY #$03
  $D0CF  20 D3 D6  JSR $D6D3
  $D0D2  A0 1E     LDY #$1E
  $D0D4  A2 17     LDX #$17
  $D0D6  20 A7 D9  JSR $D9A7
  $D0D9  A0 03     LDY #$03
  $D0DB  20 FD D6  JSR $D6FD
  $D0DE  A9 00     LDA #$00
  $D0E0  85 60     STA $60
  $D0E2  20 5F D9  JSR $D95F
  $D0E5  A9 D1     LDA #$D1
  $D0E7  85 12     STA $12
  $D0E9  A9 8E     LDA #$8E
  $D0EB  85 11     STA $11
  $D0ED  A2 08     LDX #$08
  $D0EF  A0 11     LDY #$11
  $D0F1  20 D3 D6  JSR $D6D3
  $D0F4  A9 D1     LDA #$D1
  $D0F6  85 12     STA $12
  $D0F8  A9 A0     LDA #$A0
  $D0FA  85 11     STA $11
  $D0FC  A2 0C     LDX #$0C
  $D0FE  A0 15     LDY #$15
  $D100  20 D3 D6  JSR $D6D3
  $D103  20 5F D9  JSR $D95F
  $D106  A9 D1     LDA #$D1
  $D108  85 12     STA $12
  $D10A  A9 45     LDA #$45
  $D10C  85 11     STA $11
  $D10E  A2 0D     LDX #$0D
  $D110  A0 17     LDY #$17
  $D112  20 D3 D6  JSR $D6D3
  $D115  A9 D1     LDA #$D1
  $D117  85 12     STA $12
  $D119  A9 E7     LDA #$E7
  $D11B  85 11     STA $11
  $D11D  A2 05     LDX #$05
  $D11F  A0 19     LDY #$19
  $D121  20 D3 D6  JSR $D6D3
  $D124  20 5F D9  JSR $D95F
  $D127  A9 D1     LDA #$D1
  $D129  85 12     STA $12
  $D12B  A9 FE     LDA #$FE
  $D12D  85 11     STA $11
  $D12F  A2 07     LDX #$07
  $D131  A0 1B     LDY #$1B
  $D133  20 D3 D6  JSR $D6D3
  $D136  60        RTS 
  $D137  20 5F D9  JSR $D95F
  $D13A  8A        TXA 
  $D13B  48        PHA 
  $D13C  20 C4 CE  JSR $CEC4
  $D13F  68        PLA 
  $D140  AA        TAX 
  $D141  CA        DEX 
  $D142  D0 F3     BNE $D137
  $D144  60        RTS 
  $D145  60        RTS 
  $D146  61 62     ADC ($62,X)
  $D148  63 64     RRA ($64,X)
  $D14A  65 66     ADC $66
  $D14C  67 68     RRA $68
  $D14E  FF 42 41  ISC $4142,X
  $D151  54 54     NOP $54,X
  $D153  4C 45 FF  JMP $FF45
  $D156  43 49     SRE ($49,X)
  $D158  54 59     NOP $59,X
  $D15A  FF 5E 6B  ISC $6B5E,X
  $D15D  FF 5F 6B  ISC $6B5F,X
  $D160  FF 58 13  ISC $1358,X
  $D163  FF 5A 13  ISC $135A,X
  $D166  FF 48 49  ISC $4948,X
  $D169  6B        ??? 
  $D16A  FF 48 49  ISC $4948,X
  $D16D  53 43     SRE ($43),Y
  $D16F  4F 52 45  SRE $4552
  $D172  FF 48 49  ISC $4948,X
  $D175  6B        ??? 
  $D176  53 43     SRE ($43),Y
  $D178  4F 52 45  SRE $4552
  $D17B  FF 5E 6B  ISC $6B5E,X
  $D17E  50 4C     BVC $D1CC
  $D180  41 59     EOR ($59,X)
  $D182  45 52     EOR $52
  $D184  FF 5F 6B  ISC $6B5F,X
  $D187  50 4C     BVC $D1D5
  $D189  41 59     EOR ($59,X)
  $D18B  45 52     EOR $52
  $D18D  FF 50 55  ISC $5550,X
  $D190  53 48     SRE ($48),Y
  $D192  20 53 54  JSR $5453
  $D195  41 52     EOR ($52,X)
  $D197  54 20     NOP $20,X
  $D199  42        ??? 
  $D19A  55 54     EOR $54,X
  $D19C  54 4F     NOP $4F,X
  $D19E  4E FF 43  LSR $43FF
  $D1A1  52        ??? 
  $D1A2  45 44     EOR $44
  $D1A4  49 54     EOR #$54
  $D1A6  FF 50 4C  ISC $4C50,X
  $D1A9  45 41     EOR $41
  $D1AB  53 45     SRE ($45),Y
  $D1AD  20 49 4E  JSR $4E49
  $D1B0  53 45     SRE ($45),Y
  $D1B2  52        ??? 
  $D1B3  54 20     NOP $20,X
  $D1B5  43 4F     SRE ($4F,X)
  $D1B7  49 4E     EOR #$4E
  $D1B9  FF 20 20  ISC $2020,X
  $D1BC  20 20 20  JSR $2020
  $D1BF  20 20 20  JSR $2020
  $D1C2  20 20 20  JSR $2020
  $D1C5  20 20 20  JSR $2020
  $D1C8  20 20 20  JSR $2020
  $D1CB  20 FF 23  JSR $23FF
  $D1CE  27 9E     RLA $9E
  $D1D0  27 9F     RLA $9F
  $D1D2  24 11     BIT $11
  $D1D4  3E 3F 51  ROL $513F,X
  $D1D7  4A        LSR 
  $D1D8  11 23     ORA ($23),Y
  $D1DA  24 25     BIT $25
  $D1DC  26 27     ROL $27
  $D1DE  FF 24 9D  ISC $9D24,X
  $D1E1  9C        ??? 
  $D1E2  27 11     RLA $11
  $D1E4  11 11     ORA ($11),Y
  $D1E6  FF 40 20  ISC $2040,X
  $D1E9  31 39     AND ($39),Y
  $D1EB  38        SEC 
  $D1EC  30 20     BMI $D20E
  $D1EE  31 39     AND ($39),Y
  $D1F0  38        SEC 
  $D1F1  35 20     AND $20,X
  $D1F3  4E 41 4D  LSR $4D41
  $D1F6  43 4F     SRE ($4F,X)
  $D1F8  20 4C 54  JSR $544C
  $D1FB  44 69     NOP $69
  $D1FD  FF 41 4C  ISC $4C41,X
  $D200  4C 20 52  JMP $5220
  $D203  49 47     EOR #$47
  $D205  48        PHA 
  $D206  54 53     NOP $53,X
  $D208  20 52 45  JSR $4552
  $D20B  53 45     SRE ($45),Y
  $D20D  52        ??? 
  $D20E  56 45     LSR $45,X
  $D210  44 FF     NOP $FF
  $D212  14 FF     NOP $FF,X
  $D214  47 41     SRE $41
  $D216  4D 45 FF  EOR $FF45
  $D219  4F 56 45  SRE $4556
  $D21C  52        ??? 
  $D21D  FF 50 54  ISC $5450,X
  $D220  53 FF     SRE ($FF),Y
  $D222  6A        ROR 
  $D223  6A        ROR 
  $D224  FF 6C FC  ISC $FC6C,X
  $D227  FF 6D FD  ISC $FD6D,X
  $D22A  FF 11 FF  ISC $FF11,X
  $D22D  00        BRK 
  $D22E  00        BRK 
  $D22F  00        BRK 
  $D230  00        BRK 
  $D231  00        BRK 
  $D232  00        BRK 
  $D233  FF 00 0F  ISC $0F00,X
  $D236  0F 0F 0F  SLO $0F0F
  $D239  00        BRK 
  $D23A  FF 00 0F  ISC $0F00,X
  $D23D  C8        INY 
  $D23E  CA        DEX 
  $D23F  0F 00 FF  SLO $FF00
  $D242  00        BRK 
  $D243  0F C9 CB  SLO $CBC9
  $D246  0F 00 FF  SLO $FF00
  $D249  00        BRK 
  $D24A  00        BRK 
  $D24B  00        BRK 
  $D24C  00        BRK 
  $D24D  00        BRK 
  $D24E  00        BRK 
  $D24F  FF 00 10  ISC $1000,X
  $D252  10 10     BPL $D264
  $D254  10 00     BPL $D256
  $D256  FF 00 10  ISC $1000,X
  $D259  C8        INY 
  $D25A  CA        DEX 
  $D25B  10 00     BPL $D25D
  $D25D  FF 00 10  ISC $1000,X
  $D260  C9 CB     CMP #$CB
  $D262  10 00     BPL $D264
  $D264  FF C8 CA  ISC $CAC8,X
  $D267  FF C9 CB  ISC $CBC9,X
  $D26A  FF CC CE  ISC $CECC,X
  $D26D  FF CD CF  ISC $CFCD,X
  $D270  FF 5B FF  ISC $FF5B,X
  $D273  5D FF 54  EOR $54FF,X
  $D276  4F 54 41  SRE $4154
  $D279  4C FF 5C  JMP $5CFF
  $D27C  5C 5C 5C  NOP $5C5C,X
  $D27F  5C 5C 5C  NOP $5C5C,X
  $D282  5C FF 42  NOP $42FF,X
  $D285  4F 4E 55  SRE $554E
  $D288  53 15     SRE ($15),Y
  $D28A  FF 53 54  ISC $5453,X
  $D28D  41 47     EOR ($47,X)
  $D28F  45 FF     EOR $FF
  $D291  50 45     BVC $D2D8
  $D293  41 43     EOR ($43,X)
  $D295  45 20     EOR $20
  $D297  42        ??? 
  $D298  45 20     EOR $20
  $D29A  57 49     SRE $49,X
  $D29C  54 48     NOP $48,X
  $D29E  20 59 4F  JSR $4F59
  $D2A1  55 15     EOR $15,X
  $D2A3  FF 4E 4F  ISC $4F4E,X
  $D2A6  57 20     SRE $20,X
  $D2A8  4C 4F 4E  JMP $4E4F
  $D2AB  47 20     SRE $20
  $D2AD  57 41     SRE $41,X
  $D2AF  52        ??? 
  $D2B0  FF 43 4F  ISC $4F43,X
  $D2B3  4D 45 53  EOR $5345
  $D2B6  20 54 4F  JSR $4F54
  $D2B9  FF 41 4E  ISC $4E41,X
  $D2BC  20 45 4E  JSR $4E45
  $D2BF  44 69     NOP $69
  $D2C1  FF 10 20  ISC $2010,X
  $D2C4  30 40     BMI $D306
  $D2C6  00        BRK 
  $D2C7  FF 00 01  ISC $0100,X
  $D2CA  FF 00 01  ISC $0100,X
  $D2CD  00        BRK 
  $D2CE  FF FF FF  ISC $FFFF,X
  $D2D1  FF FF FF  ISC $FFFF,X
  $D2D4  FF FF FF  ISC $FFFF,X
  $D2D7  FF FF FF  ISC $FFFF,X
  $D2DA  FF FF FF  ISC $FFFF,X
  $D2DD  FF FF FF  ISC $FFFF,X
  $D2E0  FF FF FF  ISC $FFFF,X
  $D2E3  FF FF FF  ISC $FFFF,X
  $D2E6  FF FF FF  ISC $FFFF,X
  $D2E9  FF FF FF  ISC $FFFF,X
  $D2EC  FF FF FF  ISC $FFFF,X
  $D2EF  FF FF FF  ISC $FFFF,X
  $D2F2  FF FF FF  ISC $FFFF,X
  $D2F5  FF FF FF  ISC $FFFF,X
  $D2F8  FF FF FF  ISC $FFFF,X
  $D2FB  FF FF FF  ISC $FFFF,X
  $D2FE  FF FF 48  ISC $48FF,X
  $D301  8A        TXA 
  $D302  48        PHA 
  $D303  98        TYA 
  $D304  48        PHA 
  $D305  08        PHP 
  $D306  A9 06     LDA #$06
  $D308  8D 01 20  STA $2001
  $D30B  20 52 D3  JSR $D352
  $D30E  A5 4D     LDA $4D
  $D310  D0 26     BNE $D338
  $D312  A9 1E     LDA #$1E
  $D314  8D 01 20  STA $2001
  $D317  A9 00     LDA #$00
  $D319  8D 03 20  STA $2003
  $D31C  A9 02     LDA #$02
  $D31E  8D 14 40  STA $4014
  $D321  AD 02 20  LDA $2002
  $D324  20 6D D9  JSR $D96D
  $D327  A5 50     LDA $50
  $D329  09 B0     ORA #$B0
  $D32B  8D 00 20  STA $2000
  $D32E  A9 00     LDA #$00
  $D330  8D 05 20  STA $2005
  $D333  A5 4F     LDA $4F
  $D335  8D 05 20  STA $2005
  $D338  20 8A D6  JSR $D68A
  $D33B  20 23 EC  JSR $EC23
  $D33E  20 22 DB  JSR $DB22
  $D341  E6 0B     INC $0B
  $D343  A5 0B     LDA $0B
  $D345  29 3F     AND #$3F
  $D347  D0 02     BNE $D34B
  $D349  E6 0A     INC $0A
  $D34B  28        PLP 
  $D34C  68        PLA 
  $D34D  A8        TAY 
  $D34E  68        PLA 
  $D34F  AA        TAX 
  $D350  68        PLA 
  $D351  40        RTI 
  $D352  AD 16 40  LDA $4016
  $D355  2D 16 40  AND $4016
  $D358  48        PHA 
  $D359  2A        ROL 
  $D35A  2A        ROL 
  $D35B  2A        ROL 
  $D35C  2A        ROL 
  $D35D  29 01     AND #$01
  $D35F  8D 20 40  STA $4020
  $D362  68        PLA 
  $D363  29 24     AND #$24
  $D365  F0 05     BEQ $D36C
  $D367  E6 4A     INC $4A
  $D369  4C 7B D3  JMP $D37B
  $D36C  A5 4A     LDA $4A
  $D36E  F0 0B     BEQ $D37B
  $D370  E6 4B     INC $4B
  $D372  A9 01     LDA #$01
  $D374  8D 00 03  STA $0300
  $D377  A9 00     LDA #$00
  $D379  85 4A     STA $4A
  $D37B  60        RTS 
  $D37C  8A        TXA 
  $D37D  48        PHA 
  $D37E  A5 0F     LDA $0F
  $D380  0A        ASL 
  $D381  0A        ASL 
  $D382  0A        ASL 
  $D383  38        SEC 
  $D384  E5 0F     SBC $0F
  $D386  18        CLC 
  $D387  65 0A     ADC $0A
  $D389  E6 10     INC $10
  $D38B  A6 10     LDX $10
  $D38D  75 00     ADC $00,X
  $D38F  85 0F     STA $0F
  $D391  68        PLA 
  $D392  AA        TAX 
  $D393  A5 0F     LDA $0F
  $D395  60        RTS 
  $D396  A9 00     LDA #$00
  $D398  85 4D     STA $4D
  $D39A  20 22 DB  JSR $DB22
  $D39D  20 5F D9  JSR $D95F
  $D3A0  60        RTS 
  $D3A1  A9 01     LDA #$01
  $D3A3  85 4D     STA $4D
  $D3A5  20 22 DB  JSR $DB22
  $D3A8  20 5F D9  JSR $D95F
  $D3AB  60        RTS 
  $D3AC  A9 00     LDA #$00
  $D3AE  AA        TAX 
  $D3AF  9D 00 04  STA $0400,X
  $D3B2  9D 00 05  STA $0500,X
  $D3B5  9D 00 06  STA $0600,X
  $D3B8  9D 00 07  STA $0700,X
  $D3BB  E8        INX 
  $D3BC  D0 F1     BNE $D3AF
  $D3BE  60        RTS 
  $D3BF  A9 00     LDA #$00
  $D3C1  85 60     STA $60
  $D3C3  85 6B     STA $6B
  $D3C5  85 0C     STA $0C
  $D3C7  85 0D     STA $0D
  $D3C9  85 6D     STA $6D
  $D3CB  85 4A     STA $4A
  $D3CD  85 4D     STA $4D
  $D3CF  AD 17 40  LDA $4017
  $D3D2  29 C0     AND #$C0
  $D3D4  85 4E     STA $4E
  $D3D6  20 1E D4  JSR $D41E
  $D3D9  A9 04     LDA #$04
  $D3DB  85 0E     STA $0E
  $D3DD  A9 20     LDA #$20
  $D3DF  85 6E     STA $6E
  $D3E1  20 AC D3  JSR $D3AC
  $D3E4  20 22 DB  JSR $DB22
  $D3E7  A2 15     LDX #$15
  $D3E9  20 7F DA  JSR $DA7F
  $D3EC  A2 1D     LDX #$1D
  $D3EE  20 7F DA  JSR $DA7F
  $D3F1  A2 3D     LDX #$3D
  $D3F3  20 7F DA  JSR $DA7F
  $D3F6  A9 02     LDA #$02
  $D3F8  85 3F     STA $3F
  $D3FA  A9 00     LDA #$00
  $D3FC  85 83     STA $83
  $D3FE  A9 1C     LDA #$1C
  $D400  85 05     STA $05
  $D402  20 D4 D7  JSR $D7D4
  $D405  A9 20     LDA #$20
  $D407  85 05     STA $05
  $D409  20 D4 D7  JSR $D7D4
  $D40C  A9 24     LDA #$24
  $D40E  85 05     STA $05
  $D410  20 D4 D7  JSR $D7D4
  $D413  A9 28     LDA #$28
  $D415  85 05     STA $05
  $D417  20 D4 D7  JSR $D7D4
  $D41A  20 F6 EB  JSR $EBF6
  $D41D  60        RTS 
  $D41E  20 75 D5  JSR $D575
  $D421  A2 00     LDX #$00
  $D423  A9 3F     LDA #$3F
  $D425  8D 06 20  STA $2006
  $D428  8E 06 20  STX $2006
  $D42B  BD 4A D4  LDA $D44A,X
  $D42E  20 6A D4  JSR $D46A
  $D431  8D 07 20  STA $2007
  $D434  E8        INX 
  $D435  E0 20     CPX #$20
  $D437  D0 F2     BNE $D42B
  $D439  A9 3F     LDA #$3F
  $D43B  8D 06 20  STA $2006
  $D43E  A9 00     LDA #$00
  $D440  8D 06 20  STA $2006
  $D443  8D 06 20  STA $2006
  $D446  8D 06 20  STA $2006
  $D449  60        RTS 
  $D44A  0F 17 06  SLO $0617
  $D44D  00        BRK 
  $D44E  0F 3C 10  SLO $103C
  $D451  12        ??? 
  $D452  0F 29 09  SLO $0929
  $D455  0B        ??? 
  $D456  0F 00 10  SLO $1000
  $D459  20 0F 18  JSR $180F
  $D45C  27 38     RLA $38
  $D45E  0F 0A 1B  SLO $1B0A
  $D461  3B 0F 0C  RLA $0C0F,Y
  $D464  10 20     BPL $D486
  $D466  0F 04 16  SLO $1604
  $D469  20 84 00  JSR $0084
  $D46C  05 4E     ORA $4E
  $D46E  A8        TAY 
  $D46F  B9 75 D4  LDA $D475,Y
  $D472  A4 00     LDY $00
  $D474  60        RTS 
  $D475  09 1F     ORA #$1F
  $D477  2D 35 0C  AND $0C35
  $D47A  0B        ??? 
  $D47B  2B        ??? 
  $D47C  12        ??? 
  $D47D  0E 05 33  ASL $3305
  $D480  3A        NOP 
  $D481  25 1A     AND $1A
  $D483  1A        NOP 
  $D484  1A        NOP 
  $D485  1D 39 17  ORA $1739,X
  $D488  2C 27 07  BIT $0727
  $D48B  02        ??? 
  $D48C  37 3E     RLA $3E,X
  $D48E  31 3A     AND ($3A),Y
  $D490  26 04     ROL $04
  $D492  28        PLP 
  $D493  28        PLP 
  $D494  28        PLP 
  $D495  1C 10 03  NOP $0310,X
  $D498  01 1E     ORA ($1E,X)
  $D49A  3D 2E 0A  AND $0A2E,X
  $D49D  0D 13 23  ORA $2313
  $D4A0  19 24 2F  ORA $2F24,Y
  $D4A3  2F 2F 08  RLA $082F
  $D4A6  21 15     AND ($15,X)
  $D4A8  22        ??? 
  $D4A9  2A        ROL 
  $D4AA  00        BRK 
  $D4AB  11 36     ORA ($36),Y
  $D4AD  3C 34 3F  NOP $3F34,X
  $D4B0  19 14 30  ORA $3014,Y
  $D4B3  30 30     BMI $D4E5
  $D4B5  3F 35 27  RLA $2735,X
  $D4B8  09 20     ORA #$20
  $D4BA  3D 12 3A  AND $3A12,X
  $D4BD  1D 2B 3E  ORA $3E2B,X
  $D4C0  0F 34 00  SLO $0034
  $D4C3  00        BRK 
  $D4C4  00        BRK 
  $D4C5  13 24     SLO ($24),Y
  $D4C7  2C 09 28  BIT $2809
  $D4CA  36 08     ROL $08,X
  $D4CC  33 02     RLA ($02),Y
  $D4CE  37 0F     RLA $0F,X
  $D4D0  14 06     NOP $06,X
  $D4D2  1E 1E 1E  ASL $1E1E,X
  $D4D5  0C 11 17  NOP $1711
  $D4D8  0B        ??? 
  $D4D9  19 05 22  ORA $2205,Y
  $D4DC  01 2E     ORA ($2E,X)
  $D4DE  39 32 1B  AND $1B32,Y
  $D4E1  39 2D 2D  AND $2D2D,Y
  $D4E4  2D 2F 07  AND $072F
  $D4E7  1C 23 0B  NOP $0B23,X
  $D4EA  3C 21 2E  NOP $2E21,X
  $D4ED  0A        ASL 
  $D4EE  03 04     SLO ($04,X)
  $D4F0  1B 0E 38  SLO $380E,Y
  $D4F3  38        SEC 
  $D4F4  38        SEC 
  $D4F5  18        CLC 
  $D4F6  08        PHP 
  $D4F7  1B 19 29  SLO $2919,Y
  $D4FA  12        ??? 
  $D4FB  1D 34 0B  ORA $0B34,X
  $D4FE  07 38     SLO $38
  $D500  04 3F     NOP $3F
  $D502  09 09     ORA #$09
  $D504  09 03     ORA #$03
  $D506  2C 13 3C  BIT $3C13
  $D509  00        BRK 
  $D50A  0C 1C 16  NOP $161C
  $D50D  15 14     ORA $14,X
  $D50F  04 17     NOP $17
  $D511  11 1A     ORA ($1A),Y
  $D513  1A        NOP 
  $D514  1A        NOP 
  $D515  27 2A     RLA $2A
  $D517  10 20     BPL $D539
  $D519  2B        ??? 
  $D51A  01 26     ORA ($26,X)
  $D51C  25 36     AND $36
  $D51E  28        PLP 
  $D51F  35 3D     AND $3D,X
  $D521  30 2E     BMI $D551
  $D523  2E 2E 27  ROL $272E
  $D526  06 3A     ASL $3A
  $D528  33 1E     RLA ($1E),Y
  $D52A  1F 0A 23  SLO $230A,X
  $D52D  3B 32 02  RLA $0232,Y
  $D530  3D 0F 39  AND $390F,X
  $D533  39 39 26  AND $2639,Y
  $D536  06 23     ASL $23
  $D538  01 1C     ORA ($1C,X)
  $D53A  20 16 22  JSR $2216
  $D53D  32        ??? 
  $D53E  2B        ??? 
  $D53F  21 1B     AND ($1B,X)
  $D541  28        PLP 
  $D542  04 04     NOP $04
  $D544  04 08     NOP $08
  $D546  2A        ROL 
  $D547  12        ??? 
  $D548  24 25     BIT $25
  $D54A  27 33     RLA $33
  $D54C  07 00     SLO $00
  $D54E  0E 0E 19  ASL $190E
  $D551  02        ??? 
  $D552  14 14     NOP $14,X
  $D554  14 31     NOP $31,X
  $D556  1F 1A 3A  SLO $3A1A,X
  $D559  2F 10 17  RLA $1710
  $D55C  39 03 3C  AND $3C03,Y
  $D55F  0A        ASL 
  $D560  35 3E     AND $3E,X
  $D562  1D 1D 1D  ORA $1D1D,X
  $D565  36 3B     ROL $3B,X
  $D567  3D 30 13  AND $1330,X
  $D56A  05 0C     ORA $0C
  $D56C  0D 2D 0F  ORA $0F2D
  $D56F  1E 35 37  ASL $3735,X
  $D572  38        SEC 
  $D573  38        SEC 
  $D574  38        SEC 
  $D575  AD 02 20  LDA $2002
  $D578  10 FB     BPL $D575
  $D57A  60        RTS 
  $D57B  20 5F D9  JSR $D95F
  $D57E  A0 07     LDY #$07
  $D580  20 8E D5  JSR $D58E
  $D583  A0 0B     LDY #$0B
  $D585  20 8E D5  JSR $D58E
  $D588  A0 0F     LDY #$0F
  $D58A  20 8E D5  JSR $D58E
  $D58D  60        RTS 
  $D58E  AD 4D D4  LDA $D44D
  $D591  20 3E DB  JSR $DB3E
  $D594  60        RTS 
  $D595  20 5F D9  JSR $D95F
  $D598  A0 07     LDY #$07
  $D59A  20 A8 D5  JSR $D5A8
  $D59D  A0 0B     LDY #$0B
  $D59F  20 A8 D5  JSR $D5A8
  $D5A2  A0 0F     LDY #$0F
  $D5A4  20 A8 D5  JSR $D5A8
  $D5A7  60        RTS 
  $D5A8  B9 4A D4  LDA $D44A,Y
  $D5AB  20 3E DB  JSR $DB3E
  $D5AE  60        RTS 
  $D5AF  A9 16     LDA #$16
  $D5B1  A0 01     LDY #$01
  $D5B3  20 3E DB  JSR $DB3E
  $D5B6  A9 16     LDA #$16
  $D5B8  A0 02     LDY #$02
  $D5BA  20 3E DB  JSR $DB3E
  $D5BD  A9 30     LDA #$30
  $D5BF  A0 03     LDY #$03
  $D5C1  20 3E DB  JSR $DB3E
  $D5C4  A9 16     LDA #$16
  $D5C6  A0 07     LDY #$07
  $D5C8  20 3E DB  JSR $DB3E
  $D5CB  A9 27     LDA #$27
  $D5CD  A0 0B     LDY #$0B
  $D5CF  20 3E DB  JSR $DB3E
  $D5D2  60        RTS 
  $D5D3  A0 01     LDY #$01
  $D5D5  B9 4A D4  LDA $D44A,Y
  $D5D8  20 3E DB  JSR $DB3E
  $D5DB  A0 02     LDY #$02
  $D5DD  B9 4A D4  LDA $D44A,Y
  $D5E0  20 3E DB  JSR $DB3E
  $D5E3  A0 03     LDY #$03
  $D5E5  B9 4A D4  LDA $D44A,Y
  $D5E8  20 3E DB  JSR $DB3E
  $D5EB  A0 07     LDY #$07
  $D5ED  B9 4A D4  LDA $D44A,Y
  $D5F0  20 3E DB  JSR $DB3E
  $D5F3  A0 0B     LDY #$0B
  $D5F5  B9 4A D4  LDA $D44A,Y
  $D5F8  20 3E DB  JSR $DB3E
  $D5FB  60        RTS 
  $D5FC  A9 00     LDA #$00
  $D5FE  85 00     STA $00
  $D600  98        TYA 
  $D601  4A        LSR 
  $D602  66 00     ROR $00
  $D604  4A        LSR 
  $D605  66 00     ROR $00
  $D607  4A        LSR 
  $D608  66 00     ROR $00
  $D60A  48        PHA 
  $D60B  8A        TXA 
  $D60C  05 00     ORA $00
  $D60E  A8        TAY 
  $D60F  68        PLA 
  $D610  09 04     ORA #$04
  $D612  60        RTS 
  $D613  20 36 D6  JSR $D636
  $D616  A6 0C     LDX $0C
  $D618  A9 23     LDA #$23
  $D61A  9D 80 01  STA $0180,X
  $D61D  E8        INX 
  $D61E  98        TYA 
  $D61F  18        CLC 
  $D620  69 C0     ADC #$C0
  $D622  9D 80 01  STA $0180,X
  $D625  E8        INX 
  $D626  B9 C0 07  LDA $07C0,Y
  $D629  9D 80 01  STA $0180,X
  $D62C  E8        INX 
  $D62D  A9 FF     LDA #$FF
  $D62F  9D 80 01  STA $0180,X
  $D632  E8        INX 
  $D633  86 0C     STX $0C
  $D635  60        RTS 
  $D636  A5 04     LDA $04
  $D638  20 85 D6  JSR $D685
  $D63B  20 85 D6  JSR $D685
  $D63E  20 85 D6  JSR $D685
  $D641  85 02     STA $02
  $D643  98        TYA 
  $D644  29 02     AND #$02
  $D646  D0 0F     BNE $D657
  $D648  8A        TXA 
  $D649  29 02     AND #$02
  $D64B  F0 05     BEQ $D652
  $D64D  A9 F3     LDA #$F3
  $D64F  4C 63 D6  JMP $D663
  $D652  A9 FC     LDA #$FC
  $D654  4C 63 D6  JMP $D663
  $D657  8A        TXA 
  $D658  29 02     AND #$02
  $D65A  F0 05     BEQ $D661
  $D65C  A9 3F     LDA #$3F
  $D65E  4C 63 D6  JMP $D663
  $D661  A9 CF     LDA #$CF
  $D663  85 01     STA $01
  $D665  98        TYA 
  $D666  0A        ASL 
  $D667  29 F8     AND #$F8
  $D669  85 00     STA $00
  $D66B  8A        TXA 
  $D66C  4A        LSR 
  $D66D  4A        LSR 
  $D66E  18        CLC 
  $D66F  65 00     ADC $00
  $D671  A8        TAY 
  $D672  A5 01     LDA $01
  $D674  49 FF     EOR #$FF
  $D676  25 02     AND $02
  $D678  85 02     STA $02
  $D67A  B9 C0 07  LDA $07C0,Y
  $D67D  25 01     AND $01
  $D67F  05 02     ORA $02
  $D681  99 C0 07  STA $07C0,Y
  $D684  60        RTS 
  $D685  0A        ASL 
  $D686  0A        ASL 
  $D687  05 04     ORA $04
  $D689  60        RTS 
  $D68A  A6 06     LDX $06
  $D68C  A4 07     LDY $07
  $D68E  86 07     STX $07
  $D690  84 06     STY $06
  $D692  A2 01     LDX #$01
  $D694  8E 16 40  STX $4016
  $D697  A0 00     LDY #$00
  $D699  8C 16 40  STY $4016
  $D69C  94 00     STY $00,X
  $D69E  A0 08     LDY #$08
  $D6A0  BD 16 40  LDA $4016,X
  $D6A3  29 03     AND #$03
  $D6A5  C9 01     CMP #$01
  $D6A7  76 00     ROR $00,X
  $D6A9  EA        NOP 
  $D6AA  EA        NOP 
  $D6AB  88        DEY 
  $D6AC  D0 F2     BNE $D6A0
  $D6AE  CA        DEX 
  $D6AF  10 EB     BPL $D69C
  $D6B1  A2 01     LDX #$01
  $D6B3  B5 06     LDA $06,X
  $D6B5  49 FF     EOR #$FF
  $D6B7  35 00     AND $00,X
  $D6B9  95 08     STA $08,X
  $D6BB  B5 00     LDA $00,X
  $D6BD  95 06     STA $06,X
  $D6BF  CA        DEX 
  $D6C0  10 F1     BPL $D6B3
  $D6C2  A6 06     LDX $06
  $D6C4  A4 07     LDY $07
  $D6C6  86 07     STX $07
  $D6C8  84 06     STY $06
  $D6CA  A6 08     LDX $08
  $D6CC  A4 09     LDY $09
  $D6CE  86 09     STX $09
  $D6D0  84 08     STY $08
  $D6D2  60        RTS 
  $D6D3  20 FC D5  JSR $D5FC
  $D6D6  85 14     STA $14
  $D6D8  18        CLC 
  $D6D9  65 05     ADC $05
  $D6DB  A6 0C     LDX $0C
  $D6DD  9D 80 01  STA $0180,X
  $D6E0  E8        INX 
  $D6E1  98        TYA 
  $D6E2  9D 80 01  STA $0180,X
  $D6E5  E8        INX 
  $D6E6  85 13     STA $13
  $D6E8  A0 00     LDY #$00
  $D6EA  B1 11     LDA ($11),Y
  $D6EC  9D 80 01  STA $0180,X
  $D6EF  E8        INX 
  $D6F0  C9 FF     CMP #$FF
  $D6F2  F0 06     BEQ $D6FA
  $D6F4  91 13     STA ($13),Y
  $D6F6  C8        INY 
  $D6F7  4C EA D6  JMP $D6EA
  $D6FA  86 0C     STX $0C
  $D6FC  60        RTS 
  $D6FD  20 FC D5  JSR $D5FC
  $D700  18        CLC 
  $D701  65 05     ADC $05
  $D703  A6 0C     LDX $0C
  $D705  9D 80 01  STA $0180,X
  $D708  E8        INX 
  $D709  98        TYA 
  $D70A  9D 80 01  STA $0180,X
  $D70D  E8        INX 
  $D70E  A0 00     LDY #$00
  $D710  B1 11     LDA ($11),Y
  $D712  30 03     BMI $D717
  $D714  18        CLC 
  $D715  65 60     ADC $60
  $D717  9D 80 01  STA $0180,X
  $D71A  E8        INX 
  $D71B  C9 FF     CMP #$FF
  $D71D  F0 04     BEQ $D723
  $D71F  C8        INY 
  $D720  4C 10 D7  JMP $D710
  $D723  86 0C     STX $0C
  $D725  60        RTS 
  $D726  20 33 D7  JSR $D733
  $D729  20 FC D5  JSR $D5FC
  $D72C  85 12     STA $12
  $D72E  84 11     STY $11
  $D730  A0 00     LDY #$00
  $D732  60        RTS 
  $D733  98        TYA 
  $D734  4A        LSR 
  $D735  4A        LSR 
  $D736  4A        LSR 
  $D737  A8        TAY 
  $D738  8A        TXA 
  $D739  4A        LSR 
  $D73A  4A        LSR 
  $D73B  4A        LSR 
  $D73C  AA        TAX 
  $D73D  60        RTS 
  $D73E  86 47     STX $47
  $D740  84 48     STY $48
  $D742  20 26 D7  JSR $D726
  $D745  A9 01     LDA #$01
  $D747  85 00     STA $00
  $D749  A5 48     LDA $48
  $D74B  29 04     AND #$04
  $D74D  F0 04     BEQ $D753
  $D74F  06 00     ASL $00
  $D751  06 00     ASL $00
  $D753  A5 47     LDA $47
  $D755  29 04     AND #$04
  $D757  F0 02     BEQ $D75B
  $D759  06 00     ASL $00
  $D75B  60        RTS 
  $D75C  A5 00     LDA $00
  $D75E  09 F0     ORA #$F0
  $D760  31 11     AND ($11),Y
  $D762  60        RTS 
  $D763  A5 00     LDA $00
  $D765  49 FF     EOR #$FF
  $D767  31 11     AND ($11),Y
  $D769  20 A4 D7  JSR $D7A4
  $D76C  60        RTS 
  $D76D  B1 11     LDA ($11),Y
  $D76F  29 F0     AND #$F0
  $D771  D0 08     BNE $D77B
  $D773  A5 00     LDA $00
  $D775  49 FF     EOR #$FF
  $D777  31 11     AND ($11),Y
  $D779  91 11     STA ($11),Y
  $D77B  60        RTS 
  $D77C  A5 00     LDA $00
  $D77E  11 11     ORA ($11),Y
  $D780  20 A4 D7  JSR $D7A4
  $D783  60        RTS 
  $D784  B1 11     LDA ($11),Y
  $D786  29 F0     AND #$F0
  $D788  D0 06     BNE $D790
  $D78A  A5 00     LDA $00
  $D78C  11 11     ORA ($11),Y
  $D78E  91 11     STA ($11),Y
  $D790  60        RTS 
  $D791  A5 12     LDA $12
  $D793  18        CLC 
  $D794  65 05     ADC $05
  $D796  8D 06 20  STA $2006
  $D799  A5 11     LDA $11
  $D79B  8D 06 20  STA $2006
  $D79E  B1 11     LDA ($11),Y
  $D7A0  8D 07 20  STA $2007
  $D7A3  60        RTS 
  $D7A4  91 11     STA ($11),Y
  $D7A6  86 47     STX $47
  $D7A8  A6 0C     LDX $0C
  $D7AA  A5 12     LDA $12
  $D7AC  18        CLC 
  $D7AD  69 1C     ADC #$1C
  $D7AF  9D 80 01  STA $0180,X
  $D7B2  E8        INX 
  $D7B3  A5 11     LDA $11
  $D7B5  9D 80 01  STA $0180,X
  $D7B8  E8        INX 
  $D7B9  B1 11     LDA ($11),Y
  $D7BB  9D 80 01  STA $0180,X
  $D7BE  E8        INX 
  $D7BF  A9 FF     LDA #$FF
  $D7C1  9D 80 01  STA $0180,X
  $D7C4  E8        INX 
  $D7C5  86 0C     STX $0C
  $D7C7  A6 47     LDX $47
  $D7C9  60        RTS 
  $D7CA  18        CLC 
  $D7CB  65 11     ADC $11
  $D7CD  85 11     STA $11
  $D7CF  90 02     BCC $D7D3
  $D7D1  E6 12     INC $12
  $D7D3  60        RTS 
  $D7D4  A9 00     LDA #$00
  $D7D6  85 11     STA $11
  $D7D8  A8        TAY 
  $D7D9  A9 04     LDA #$04
  $D7DB  85 12     STA $12
  $D7DD  20 91 D7  JSR $D791
  $D7E0  A9 01     LDA #$01
  $D7E2  20 CA D7  JSR $D7CA
  $D7E5  A5 12     LDA $12
  $D7E7  C9 08     CMP #$08
  $D7E9  D0 F2     BNE $D7DD
  $D7EB  60        RTS 
  $D7EC  A2 00     LDX #$00
  $D7EE  A9 11     LDA #$11
  $D7F0  9D 00 04  STA $0400,X
  $D7F3  9D 00 05  STA $0500,X
  $D7F6  9D 00 06  STA $0600,X
  $D7F9  9D 00 07  STA $0700,X
  $D7FC  E8        INX 
  $D7FD  D0 F1     BNE $D7F0
  $D7FF  A9 00     LDA #$00
  $D801  A2 C0     LDX #$C0
  $D803  9D 00 07  STA $0700,X
  $D806  E8        INX 
  $D807  D0 FA     BNE $D803
  $D809  A6 56     LDX $56
  $D80B  A4 57     LDY $57
  $D80D  20 FC D5  JSR $D5FC
  $D810  85 12     STA $12
  $D812  84 11     STY $11
  $D814  A4 5B     LDY $5B
  $D816  88        DEY 
  $D817  A9 00     LDA #$00
  $D819  91 11     STA ($11),Y
  $D81B  88        DEY 
  $D81C  10 F9     BPL $D817
  $D81E  C6 5A     DEC $5A
  $D820  F0 08     BEQ $D82A
  $D822  A9 20     LDA #$20
  $D824  20 CA D7  JSR $D7CA
  $D827  4C 14 D8  JMP $D814
  $D82A  60        RTS 
  $D82B  48        PHA 
  $D82C  85 00     STA $00
  $D82E  20 33 D7  JSR $D733
  $D831  86 47     STX $47
  $D833  84 48     STY $48
  $D835  A4 00     LDY $00
  $D837  B9 69 DB  LDA $DB69,Y
  $D83A  85 04     STA $04
  $D83C  A4 48     LDY $48
  $D83E  20 13 D6  JSR $D613
  $D841  A5 48     LDA $48
  $D843  29 FE     AND #$FE
  $D845  A8        TAY 
  $D846  A5 47     LDA $47
  $D848  29 FE     AND #$FE
  $D84A  AA        TAX 
  $D84B  20 29 D7  JSR $D729
  $D84E  68        PLA 
  $D84F  0A        ASL 
  $D850  0A        ASL 
  $D851  AA        TAX 
  $D852  BD 79 DB  LDA $DB79,X
  $D855  E8        INX 
  $D856  20 A4 D7  JSR $D7A4
  $D859  A9 01     LDA #$01
  $D85B  20 CA D7  JSR $D7CA
  $D85E  BD 79 DB  LDA $DB79,X
  $D861  E8        INX 
  $D862  20 A4 D7  JSR $D7A4
  $D865  A9 1F     LDA #$1F
  $D867  20 CA D7  JSR $D7CA
  $D86A  BD 79 DB  LDA $DB79,X
  $D86D  E8        INX 
  $D86E  20 A4 D7  JSR $D7A4
  $D871  A9 01     LDA #$01
  $D873  20 CA D7  JSR $D7CA
  $D876  BD 79 DB  LDA $DB79,X
  $D879  E8        INX 
  $D87A  20 A4 D7  JSR $D7A4
  $D87D  60        RTS 
  $D87E  48        PHA 
  $D87F  20 5F D9  JSR $D95F
  $D882  68        PLA 
  $D883  86 5D     STX $5D
  $D885  AA        TAX 
  $D886  98        TYA 
  $D887  18        CLC 
  $D888  69 20     ADC #$20
  $D88A  85 5E     STA $5E
  $D88C  A9 00     LDA #$00
  $D88E  85 11     STA $11
  $D890  A9 10     LDA #$10
  $D892  85 12     STA $12
  $D894  CA        DEX 
  $D895  30 08     BMI $D89F
  $D897  A9 10     LDA #$10
  $D899  20 CA D7  JSR $D7CA
  $D89C  4C 94 D8  JMP $D894
  $D89F  A5 12     LDA $12
  $D8A1  8D 06 20  STA $2006
  $D8A4  A5 11     LDA $11
  $D8A6  8D 06 20  STA $2006
  $D8A9  AD 07 20  LDA $2007
  $D8AC  A9 08     LDA #$08
  $D8AE  85 5A     STA $5A
  $D8B0  AD 07 20  LDA $2007
  $D8B3  48        PHA 
  $D8B4  C6 5A     DEC $5A
  $D8B6  D0 F8     BNE $D8B0
  $D8B8  A9 08     LDA #$08
  $D8BA  85 5A     STA $5A
  $D8BC  68        PLA 
  $D8BD  85 02     STA $02
  $D8BF  A9 80     LDA #$80
  $D8C1  85 03     STA $03
  $D8C3  A6 5D     LDX $5D
  $D8C5  A4 5E     LDY $5E
  $D8C7  20 3E D7  JSR $D73E
  $D8CA  A5 02     LDA $02
  $D8CC  25 03     AND $03
  $D8CE  F0 06     BEQ $D8D6
  $D8D0  20 84 D7  JSR $D784
  $D8D3  4C D9 D8  JMP $D8D9
  $D8D6  20 6D D7  JSR $D76D
  $D8D9  A5 5D     LDA $5D
  $D8DB  18        CLC 
  $D8DC  69 04     ADC #$04
  $D8DE  85 5D     STA $5D
  $D8E0  46 03     LSR $03
  $D8E2  90 DF     BCC $D8C3
  $D8E4  A5 5D     LDA $5D
  $D8E6  38        SEC 
  $D8E7  E9 20     SBC #$20
  $D8E9  85 5D     STA $5D
  $D8EB  A5 5E     LDA $5E
  $D8ED  38        SEC 
  $D8EE  E9 04     SBC #$04
  $D8F0  85 5E     STA $5E
  $D8F2  C6 5A     DEC $5A
  $D8F4  D0 C6     BNE $D8BC
  $D8F6  60        RTS 
  $D8F7  A0 00     LDY #$00
  $D8F9  84 5F     STY $5F
  $D8FB  B1 13     LDA ($13),Y
  $D8FD  C9 FF     CMP #$FF
  $D8FF  F0 19     BEQ $D91A
  $D901  C8        INY 
  $D902  84 5F     STY $5F
  $D904  A6 56     LDX $56
  $D906  A4 57     LDY $57
  $D908  18        CLC 
  $D909  65 60     ADC $60
  $D90B  20 7E D8  JSR $D87E
  $D90E  A5 56     LDA $56
  $D910  18        CLC 
  $D911  69 20     ADC #$20
  $D913  85 56     STA $56
  $D915  A4 5F     LDY $5F
  $D917  4C FB D8  JMP $D8FB
  $D91A  60        RTS 
  $D91B  A0 00     LDY #$00
  $D91D  84 5F     STY $5F
  $D91F  A4 5F     LDY $5F
  $D921  B1 13     LDA ($13),Y
  $D923  C9 FF     CMP #$FF
  $D925  F0 37     BEQ $D95E
  $D927  48        PHA 
  $D928  A6 5D     LDX $5D
  $D92A  A4 5E     LDY $5E
  $D92C  20 FC D5  JSR $D5FC
  $D92F  18        CLC 
  $D930  65 05     ADC $05
  $D932  A6 0C     LDX $0C
  $D934  9D 80 01  STA $0180,X
  $D937  E8        INX 
  $D938  98        TYA 
  $D939  9D 80 01  STA $0180,X
  $D93C  E8        INX 
  $D93D  68        PLA 
  $D93E  9D 80 01  STA $0180,X
  $D941  E8        INX 
  $D942  A9 FF     LDA #$FF
  $D944  9D 80 01  STA $0180,X
  $D947  E8        INX 
  $D948  86 0C     STX $0C
  $D94A  A9 01     LDA #$01
  $D94C  8D 13 03  STA $0313
  $D94F  8D 14 03  STA $0314
  $D952  A2 0C     LDX #$0C
  $D954  20 66 D9  JSR $D966
  $D957  E6 5D     INC $5D
  $D959  E6 5F     INC $5F
  $D95B  4C 1F D9  JMP $D91F
  $D95E  60        RTS 
  $D95F  A5 0B     LDA $0B
  $D961  C5 0B     CMP $0B
  $D963  F0 FC     BEQ $D961
  $D965  60        RTS 
  $D966  20 5F D9  JSR $D95F
  $D969  CA        DEX 
  $D96A  D0 FA     BNE $D966
  $D96C  60        RTS 
  $D96D  A6 0C     LDX $0C
  $D96F  A9 00     LDA #$00
  $D971  9D 80 01  STA $0180,X
  $D974  AA        TAX 
  $D975  E4 0C     CPX $0C
  $D977  F0 26     BEQ $D99F
  $D979  BD 80 01  LDA $0180,X
  $D97C  E8        INX 
  $D97D  8D 06 20  STA $2006
  $D980  BD 80 01  LDA $0180,X
  $D983  E8        INX 
  $D984  8D 06 20  STA $2006
  $D987  BD 80 01  LDA $0180,X
  $D98A  E8        INX 
  $D98B  C9 FF     CMP #$FF
  $D98D  D0 0A     BNE $D999
  $D98F  BD 80 01  LDA $0180,X
  $D992  C9 FF     CMP #$FF
  $D994  D0 DF     BNE $D975
  $D996  BD 7F 01  LDA $017F,X
  $D999  8D 07 20  STA $2007
  $D99C  4C 87 D9  JMP $D987
  $D99F  A9 00     LDA #$00
  $D9A1  85 0C     STA $0C
  $D9A3  20 39 D4  JSR $D439
  $D9A6  60        RTS 
  $D9A7  B9 00 00  LDA $0000,Y
  $D9AA  D0 05     BNE $D9B1
  $D9AC  C8        INY 
  $D9AD  E8        INX 
  $D9AE  4C A7 D9  JMP $D9A7
  $D9B1  C9 FF     CMP #$FF
  $D9B3  D0 08     BNE $D9BD
  $D9B5  A5 6B     LDA $6B
  $D9B7  D0 02     BNE $D9BB
  $D9B9  CA        DEX 
  $D9BA  88        DEY 
  $D9BB  CA        DEX 
  $D9BC  88        DEY 
  $D9BD  A9 00     LDA #$00
  $D9BF  85 12     STA $12
  $D9C1  84 11     STY $11
  $D9C3  60        RTS 
  $D9C4  A9 30     LDA #$30
  $D9C6  85 56     STA $56
  $D9C8  A9 64     LDA #$64
  $D9CA  85 57     STA $57
  $D9CC  A9 30     LDA #$30
  $D9CE  85 60     STA $60
  $D9D0  A0 3E     LDY #$3E
  $D9D2  B9 00 00  LDA $0000,Y
  $D9D5  D0 0B     BNE $D9E2
  $D9D7  C8        INY 
  $D9D8  A5 56     LDA $56
  $D9DA  18        CLC 
  $D9DB  69 20     ADC #$20
  $D9DD  85 56     STA $56
  $D9DF  4C D2 D9  JMP $D9D2
  $D9E2  A9 00     LDA #$00
  $D9E4  85 14     STA $14
  $D9E6  84 13     STY $13
  $D9E8  20 F7 D8  JSR $D8F7
  $D9EB  A9 00     LDA #$00
  $D9ED  85 60     STA $60
  $D9EF  60        RTS 
  $D9F0  A2 00     LDX #$00
  $D9F2  A0 00     LDY #$00
  $D9F4  B5 15     LDA $15,X
  $D9F6  D5 3D     CMP $3D,X
  $D9F8  D0 08     BNE $DA02
  $D9FA  E8        INX 
  $D9FB  E0 07     CPX #$07
  $D9FD  F0 12     BEQ $DA11
  $D9FF  4C F4 D9  JMP $D9F4
  $DA02  30 0D     BMI $DA11
  $DA04  A2 00     LDX #$00
  $DA06  B5 15     LDA $15,X
  $DA08  95 3D     STA $3D,X
  $DA0A  E8        INX 
  $DA0B  E0 07     CPX #$07
  $DA0D  D0 F7     BNE $DA06
  $DA0F  A0 01     LDY #$01
  $DA11  A2 00     LDX #$00
  $DA13  B5 1D     LDA $1D,X
  $DA15  D5 3D     CMP $3D,X
  $DA17  D0 08     BNE $DA21
  $DA19  E8        INX 
  $DA1A  E0 07     CPX #$07
  $DA1C  F0 12     BEQ $DA30
  $DA1E  4C 13 DA  JMP $DA13
  $DA21  30 0D     BMI $DA30
  $DA23  A2 00     LDX #$00
  $DA25  B5 1D     LDA $1D,X
  $DA27  95 3D     STA $3D,X
  $DA29  E8        INX 
  $DA2A  E0 07     CPX #$07
  $DA2C  D0 F7     BNE $DA25
  $DA2E  A0 FF     LDY #$FF
  $DA30  60        RTS 
  $DA31  8A        TXA 
  $DA32  0A        ASL 
  $DA33  0A        ASL 
  $DA34  0A        ASL 
  $DA35  18        CLC 
  $DA36  69 06     ADC #$06
  $DA38  AA        TAX 
  $DA39  A0 06     LDY #$06
  $DA3B  18        CLC 
  $DA3C  B9 35 00  LDA $0035,Y
  $DA3F  75 15     ADC $15,X
  $DA41  C9 0A     CMP #$0A
  $DA43  30 07     BMI $DA4C
  $DA45  38        SEC 
  $DA46  E9 0A     SBC #$0A
  $DA48  38        SEC 
  $DA49  4C 4D DA  JMP $DA4D
  $DA4C  18        CLC 
  $DA4D  95 15     STA $15,X
  $DA4F  CA        DEX 
  $DA50  88        DEY 
  $DA51  10 E9     BPL $DA3C
  $DA53  B5 16     LDA $16,X
  $DA55  F0 0A     BEQ $DA61
  $DA57  A9 09     LDA #$09
  $DA59  95 17     STA $17,X
  $DA5B  95 18     STA $18,X
  $DA5D  95 19     STA $19,X
  $DA5F  95 1A     STA $1A,X
  $DA61  60        RTS 
  $DA62  85 00     STA $00
  $DA64  A2 35     LDX #$35
  $DA66  20 7F DA  JSR $DA7F
  $DA69  A5 00     LDA $00
  $DA6B  F0 0D     BEQ $DA7A
  $DA6D  29 0F     AND #$0F
  $DA6F  85 3A     STA $3A
  $DA71  A5 00     LDA $00
  $DA73  4A        LSR 
  $DA74  4A        LSR 
  $DA75  4A        LSR 
  $DA76  4A        LSR 
  $DA77  85 39     STA $39
  $DA79  60        RTS 
  $DA7A  A9 01     LDA #$01
  $DA7C  85 38     STA $38
  $DA7E  60        RTS 
  $DA7F  A9 00     LDA #$00
  $DA81  95 00     STA $00,X
  $DA83  95 01     STA $01,X
  $DA85  95 02     STA $02,X
  $DA87  95 03     STA $03,X
  $DA89  95 04     STA $04,X
  $DA8B  95 05     STA $05,X
  $DA8D  95 06     STA $06,X
  $DA8F  A9 FF     LDA #$FF
  $DA91  95 07     STA $07,X
  $DA93  60        RTS 
  $DA94  85 00     STA $00
  $DA96  A2 35     LDX #$35
  $DA98  20 7F DA  JSR $DA7F
  $DA9B  A5 00     LDA $00
  $DA9D  C9 0A     CMP #$0A
  $DA9F  90 08     BCC $DAA9
  $DAA1  38        SEC 
  $DAA2  E9 0A     SBC #$0A
  $DAA4  E6 3A     INC $3A
  $DAA6  4C 9D DA  JMP $DA9D
  $DAA9  85 3B     STA $3B
  $DAAB  A5 3A     LDA $3A
  $DAAD  C9 0A     CMP #$0A
  $DAAF  90 08     BCC $DAB9
  $DAB1  38        SEC 
  $DAB2  E9 0A     SBC #$0A
  $DAB4  85 3A     STA $3A
  $DAB6  4C AD DA  JMP $DAAD
  $DAB9  60        RTS 
  $DABA  8A        TXA 
  $DABB  85 47     STA $47
  $DABD  18        CLC 
  $DABE  69 03     ADC #$03
  $DAC0  AA        TAX 
  $DAC1  98        TYA 
  $DAC2  38        SEC 
  $DAC3  E9 08     SBC #$08
  $DAC5  85 48     STA $48
  $DAC7  20 26 D7  JSR $D726
  $DACA  B1 11     LDA ($11),Y
  $DACC  C9 22     CMP #$22
  $DACE  D0 06     BNE $DAD6
  $DAD0  A5 04     LDA $04
  $DAD2  05 6E     ORA $6E
  $DAD4  85 04     STA $04
  $DAD6  A6 0D     LDX $0D
  $DAD8  A5 48     LDA $48
  $DADA  9D 00 02  STA $0200,X
  $DADD  A5 53     LDA $53
  $DADF  9D 01 02  STA $0201,X
  $DAE2  A5 04     LDA $04
  $DAE4  9D 02 02  STA $0202,X
  $DAE7  A5 47     LDA $47
  $DAE9  9D 03 02  STA $0203,X
  $DAEC  8A        TXA 
  $DAED  18        CLC 
  $DAEE  65 0E     ADC $0E
  $DAF0  85 0D     STA $0D
  $DAF2  60        RTS 
  $DAF3  0A        ASL 
  $DAF4  18        CLC 
  $DAF5  65 53     ADC $53
  $DAF7  85 53     STA $53
  $DAF9  8A        TXA 
  $DAFA  38        SEC 
  $DAFB  E9 05     SBC #$05
  $DAFD  AA        TAX 
  $DAFE  20 BA DA  JSR $DABA
  $DB01  60        RTS 
  $DB02  0A        ASL 
  $DB03  0A        ASL 
  $DB04  0A        ASL 
  $DB05  18        CLC 
  $DB06  65 53     ADC $53
  $DB08  85 53     STA $53
  $DB0A  86 54     STX $54
  $DB0C  84 55     STY $55
  $DB0E  8A        TXA 
  $DB0F  38        SEC 
  $DB10  E9 08     SBC #$08
  $DB12  AA        TAX 
  $DB13  20 BA DA  JSR $DABA
  $DB16  E6 53     INC $53
  $DB18  E6 53     INC $53
  $DB1A  A6 54     LDX $54
  $DB1C  A4 55     LDY $55
  $DB1E  20 BA DA  JSR $DABA
  $DB21  60        RTS 
  $DB22  A6 0D     LDX $0D
  $DB24  A5 0E     LDA $0E
  $DB26  49 FF     EOR #$FF
  $DB28  18        CLC 
  $DB29  69 01     ADC #$01
  $DB2B  85 0E     STA $0E
  $DB2D  8A        TXA 
  $DB2E  18        CLC 
  $DB2F  65 0E     ADC $0E
  $DB31  AA        TAX 
  $DB32  A9 F0     LDA #$F0
  $DB34  9D 00 02  STA $0200,X
  $DB37  E0 04     CPX #$04
  $DB39  D0 F2     BNE $DB2D
  $DB3B  86 0D     STX $0D
  $DB3D  60        RTS 
  $DB3E  20 6A D4  JSR $D46A
  $DB41  A6 0C     LDX $0C
  $DB43  48        PHA 
  $DB44  A9 3F     LDA #$3F
  $DB46  9D 80 01  STA $0180,X
  $DB49  E8        INX 
  $DB4A  98        TYA 
  $DB4B  9D 80 01  STA $0180,X
  $DB4E  E8        INX 
  $DB4F  68        PLA 
  $DB50  9D 80 01  STA $0180,X
  $DB53  E8        INX 
  $DB54  A9 FF     LDA #$FF
  $DB56  9D 80 01  STA $0180,X
  $DB59  E8        INX 
  $DB5A  86 0C     STX $0C
  $DB5C  60        RTS 
  $DB5D  F0 09     BEQ $DB68
  $DB5F  B0 05     BCS $DB66
  $DB61  A9 FF     LDA #$FF
  $DB63  4C 68 DB  JMP $DB68
  $DB66  A9 01     LDA #$01
  $DB68  60        RTS 
  $DB69  00        BRK 
  $DB6A  00        BRK 
  $DB6B  00        BRK 
  $DB6C  00        BRK 
  $DB6D  00        BRK 
  $DB6E  03 03     SLO ($03,X)
  $DB70  03 03     SLO ($03,X)
  $DB72  03 01     SLO ($01,X)
  $DB74  02        ??? 
  $DB75  03 00     SLO ($00,X)
  $DB77  00        BRK 
  $DB78  00        BRK 
  $DB79  00        BRK 
  $DB7A  0F 00 0F  SLO $0F00
  $DB7D  00        BRK 
  $DB7E  00        BRK 
  $DB7F  0F 0F 0F  SLO $0F0F
  $DB82  00        BRK 
  $DB83  0F 00 0F  SLO $0F00
  $DB86  0F 00 00  SLO $0000
  $DB89  0F 0F 0F  SLO $0F0F
  $DB8C  0F 20 10  SLO $1020
  $DB8F  20 10 20  JSR $2010
  $DB92  20 10 10  JSR $1010
  $DB95  10 20     BPL $DBB7
  $DB97  10 20     BPL $DBB9
  $DB99  10 10     BPL $DBAB
  $DB9B  20 20 10  JSR $1020
  $DB9E  10 10     BPL $DBB0
  $DBA0  10 12     BPL $DBB4
  $DBA2  12        ??? 
  $DBA3  12        ??? 
  $DBA4  12        ??? 
  $DBA5  22        ??? 
  $DBA6  22        ??? 
  $DBA7  22        ??? 
  $DBA8  22        ??? 
  $DBA9  21 21     AND ($21,X)
  $DBAB  21 21     AND ($21,X)
  $DBAD  00        BRK 
  $DBAE  00        BRK 
  $DBAF  00        BRK 
  $DBB0  00        BRK 
  $DBB1  00        BRK 
  $DBB2  00        BRK 
  $DBB3  00        BRK 
  $DBB4  00        BRK 
  $DBB5  00        BRK 
  $DBB6  00        BRK 
  $DBB7  00        BRK 
  $DBB8  00        BRK 
  $DBB9  AD 11 03  LDA $0311
  $DBBC  F0 14     BEQ $DBD2
  $DBBE  A2 00     LDX #$00
  $DBC0  20 E6 DB  JSR $DBE6
  $DBC3  D0 20     BNE $DBE5
  $DBC5  A2 01     LDX #$01
  $DBC7  20 E6 DB  JSR $DBE6
  $DBCA  D0 19     BNE $DBE5
  $DBCC  A9 00     LDA #$00
  $DBCE  8D 11 03  STA $0311
  $DBD1  60        RTS 
  $DBD2  A2 00     LDX #$00
  $DBD4  20 E6 DB  JSR $DBE6
  $DBD7  D0 07     BNE $DBE0
  $DBD9  A2 01     LDX #$01
  $DBDB  20 E6 DB  JSR $DBE6
  $DBDE  F0 05     BEQ $DBE5
  $DBE0  A9 01     LDA #$01
  $DBE2  8D 11 03  STA $0311
  $DBE5  60        RTS 
  $DBE6  B5 06     LDA $06,X
  $DBE8  29 F0     AND #$F0
  $DBEA  F0 07     BEQ $DBF3
  $DBEC  B5 A0     LDA $A0,X
  $DBEE  F0 03     BEQ $DBF3
  $DBF0  A9 01     LDA #$01
  $DBF2  60        RTS 
  $DBF3  A9 00     LDA #$00
  $DBF5  60        RTS 
  $DBF6  A5 82     LDA $82
  $DBF8  F0 03     BEQ $DBFD
  $DBFA  C6 82     DEC $82
  $DBFC  60        RTS 
  $DBFD  A5 7F     LDA $7F
  $DBFF  F0 21     BEQ $DC22
  $DC01  A5 6C     LDA $6C
  $DC03  85 5A     STA $5A
  $DC05  A6 5A     LDX $5A
  $DC07  B5 A0     LDA $A0,X
  $DC09  D0 0F     BNE $DC1A
  $DC0B  A5 84     LDA $84
  $DC0D  85 82     STA $82
  $DC0F  20 17 E4  JSR $E417
  $DC12  C6 7F     DEC $7F
  $DC14  A5 7F     LDA $7F
  $DC16  20 AE C7  JSR $C7AE
  $DC19  60        RTS 
  $DC1A  C6 5A     DEC $5A
  $DC1C  A5 5A     LDA $5A
  $DC1E  C9 01     CMP #$01
  $DC20  D0 E3     BNE $DC05
  $DC22  60        RTS 
  $DC23  A5 0B     LDA $0B
  $DC25  29 01     AND #$01
  $DC27  D0 06     BNE $DC2F
  $DC29  A5 0B     LDA $0B
  $DC2B  29 03     AND #$03
  $DC2D  D0 6F     BNE $DC9E
  $DC2F  A2 01     LDX #$01
  $DC31  B5 A0     LDA $A0,X
  $DC33  10 66     BPL $DC9B
  $DC35  C9 E0     CMP #$E0
  $DC37  B0 62     BCS $DC9B
  $DC39  B5 6F     LDA $6F,X
  $DC3B  F0 05     BEQ $DC42
  $DC3D  D6 6F     DEC $6F,X
  $DC3F  4C 54 DC  JMP $DC54
  $DC42  BD 03 01  LDA $0103,X
  $DC45  10 04     BPL $DC4B
  $DC47  29 10     AND #$10
  $DC49  D0 09     BNE $DC54
  $DC4B  B5 06     LDA $06,X
  $DC4D  20 0E E5  JSR $E50E
  $DC50  85 00     STA $00
  $DC52  10 0E     BPL $DC62
  $DC54  A9 80     LDA #$80
  $DC56  20 DD E4  JSR $E4DD
  $DC59  A9 08     LDA #$08
  $DC5B  15 A0     ORA $A0,X
  $DC5D  95 A0     STA $A0,X
  $DC5F  4C 9B DC  JMP $DC9B
  $DC62  BD 03 01  LDA $0103,X
  $DC65  10 0E     BPL $DC75
  $DC67  29 1F     AND #$1F
  $DC69  D0 0A     BNE $DC75
  $DC6B  A9 9C     LDA #$9C
  $DC6D  9D 03 01  STA $0103,X
  $DC70  A9 01     LDA #$01
  $DC72  8D 10 03  STA $0310
  $DC75  B5 A0     LDA $A0,X
  $DC77  29 03     AND #$03
  $DC79  C5 00     CMP $00
  $DC7B  F0 18     BEQ $DC95
  $DC7D  49 02     EOR #$02
  $DC7F  C5 00     CMP $00
  $DC81  F0 12     BEQ $DC95
  $DC83  B5 90     LDA $90,X
  $DC85  18        CLC 
  $DC86  69 04     ADC #$04
  $DC88  29 F8     AND #$F8
  $DC8A  95 90     STA $90,X
  $DC8C  B5 98     LDA $98,X
  $DC8E  18        CLC 
  $DC8F  69 04     ADC #$04
  $DC91  29 F8     AND #$F8
  $DC93  95 98     STA $98,X
  $DC95  A5 00     LDA $00
  $DC97  09 A0     ORA #$A0
  $DC99  95 A0     STA $A0,X
  $DC9B  CA        DEX 
  $DC9C  10 93     BPL $DC31
  $DC9E  60        RTS 
  $DC9F  A9 07     LDA #$07
  $DCA1  85 5A     STA $5A
  $DCA3  AD 00 01  LDA $0100
  $DCA6  F0 09     BEQ $DCB1
  $DCA8  A5 0B     LDA $0B
  $DCAA  29 3F     AND #$3F
  $DCAC  D0 03     BNE $DCB1
  $DCAE  CE 00 01  DEC $0100
  $DCB1  A6 5A     LDX $5A
  $DCB3  E0 02     CPX #$02
  $DCB5  B0 0F     BCS $DCC6
  $DCB7  A5 0B     LDA $0B
  $DCB9  29 01     AND #$01
  $DCBB  D0 2C     BNE $DCE9
  $DCBD  A5 0B     LDA $0B
  $DCBF  29 03     AND #$03
  $DCC1  D0 29     BNE $DCEC
  $DCC3  4C E9 DC  JMP $DCE9
  $DCC6  AD 00 01  LDA $0100
  $DCC9  F0 08     BEQ $DCD3
  $DCCB  B5 A0     LDA $A0,X
  $DCCD  10 04     BPL $DCD3
  $DCCF  C9 E0     CMP #$E0
  $DCD1  90 19     BCC $DCEC
  $DCD3  B5 A8     LDA $A8,X
  $DCD5  29 F0     AND #$F0
  $DCD7  C9 A0     CMP #$A0
  $DCD9  F0 0E     BEQ $DCE9
  $DCDB  A5 85     LDA $85
  $DCDD  C9 41     CMP #$41
  $DCDF  B0 08     BCS $DCE9
  $DCE1  A5 5A     LDA $5A
  $DCE3  45 0B     EOR $0B
  $DCE5  29 01     AND #$01
  $DCE7  F0 03     BEQ $DCEC
  $DCE9  20 F1 DC  JSR $DCF1
  $DCEC  C6 5A     DEC $5A
  $DCEE  10 C1     BPL $DCB1
  $DCF0  60        RTS 
  $DCF1  B5 A0     LDA $A0,X
  $DCF3  4A        LSR 
  $DCF4  4A        LSR 
  $DCF5  4A        LSR 
  $DCF6  29 FE     AND #$FE
  $DCF8  A8        TAY 
  $DCF9  B9 55 E5  LDA $E555,Y
  $DCFC  85 11     STA $11
  $DCFE  B9 56 E5  LDA $E556,Y
  $DD01  85 12     STA $12
  $DD03  6C 11 00  JMP ($0011)
  $DD06  E0 02     CPX #$02
  $DD08  B0 15     BCS $DD1F
  $DD0A  BD 03 01  LDA $0103,X
  $DD0D  10 10     BPL $DD1F
  $DD0F  29 7F     AND #$7F
  $DD11  F0 0C     BEQ $DD1F
  $DD13  DE 03 01  DEC $0103,X
  $DD16  B5 B0     LDA $B0,X
  $DD18  49 04     EOR #$04
  $DD1A  95 B0     STA $B0,X
  $DD1C  4C 4B DD  JMP $DD4B
  $DD1F  B5 A0     LDA $A0,X
  $DD21  38        SEC 
  $DD22  E9 04     SBC #$04
  $DD24  95 A0     STA $A0,X
  $DD26  29 0C     AND #$0C
  $DD28  D0 05     BNE $DD2F
  $DD2A  A9 A0     LDA #$A0
  $DD2C  20 DD E4  JSR $E4DD
  $DD2F  60        RTS 
  $DD30  E0 02     CPX #$02
  $DD32  90 17     BCC $DD4B
  $DD34  B5 90     LDA $90,X
  $DD36  29 07     AND #$07
  $DD38  D0 11     BNE $DD4B
  $DD3A  B5 98     LDA $98,X
  $DD3C  29 07     AND #$07
  $DD3E  D0 0B     BNE $DD4B
  $DD40  20 7C D3  JSR $D37C
  $DD43  29 0F     AND #$0F
  $DD45  D0 04     BNE $DD4B
  $DD47  20 26 DF  JSR $DF26
  $DD4A  60        RTS 
  $DD4B  B5 A0     LDA $A0,X
  $DD4D  29 03     AND #$03
  $DD4F  A8        TAY 
  $DD50  B9 2D E5  LDA $E52D,Y
  $DD53  0A        ASL 
  $DD54  0A        ASL 
  $DD55  0A        ASL 
  $DD56  85 59     STA $59
  $DD58  B9 2D E5  LDA $E52D,Y
  $DD5B  18        CLC 
  $DD5C  75 98     ADC $98,X
  $DD5E  85 57     STA $57
  $DD60  B9 29 E5  LDA $E529,Y
  $DD63  0A        ASL 
  $DD64  0A        ASL 
  $DD65  0A        ASL 
  $DD66  85 58     STA $58
  $DD68  B9 29 E5  LDA $E529,Y
  $DD6B  18        CLC 
  $DD6C  75 90     ADC $90,X
  $DD6E  85 56     STA $56
  $DD70  18        CLC 
  $DD71  65 58     ADC $58
  $DD73  18        CLC 
  $DD74  65 59     ADC $59
  $DD76  20 22 DE  JSR $DE22
  $DD79  AA        TAX 
  $DD7A  A5 57     LDA $57
  $DD7C  18        CLC 
  $DD7D  65 58     ADC $58
  $DD7F  18        CLC 
  $DD80  65 59     ADC $59
  $DD82  20 2A DE  JSR $DE2A
  $DD85  A8        TAY 
  $DD86  20 26 D7  JSR $D726
  $DD89  B1 11     LDA ($11),Y
  $DD8B  30 38     BMI $DDC5
  $DD8D  F0 04     BEQ $DD93
  $DD8F  C9 20     CMP #$20
  $DD91  90 32     BCC $DDC5
  $DD93  A5 56     LDA $56
  $DD95  18        CLC 
  $DD96  65 58     ADC $58
  $DD98  38        SEC 
  $DD99  E5 59     SBC $59
  $DD9B  20 22 DE  JSR $DE22
  $DD9E  AA        TAX 
  $DD9F  A5 57     LDA $57
  $DDA1  18        CLC 
  $DDA2  65 59     ADC $59
  $DDA4  38        SEC 
  $DDA5  E5 58     SBC $58
  $DDA7  20 2A DE  JSR $DE2A
  $DDAA  A8        TAY 
  $DDAB  20 26 D7  JSR $D726
  $DDAE  B1 11     LDA ($11),Y
  $DDB0  30 13     BMI $DDC5
  $DDB2  F0 04     BEQ $DDB8
  $DDB4  C9 20     CMP #$20
  $DDB6  90 0D     BCC $DDC5
  $DDB8  A6 5A     LDX $5A
  $DDBA  A5 56     LDA $56
  $DDBC  95 90     STA $90,X
  $DDBE  A5 57     LDA $57
  $DDC0  95 98     STA $98,X
  $DDC2  4C DD DD  JMP $DDDD
  $DDC5  A6 5A     LDX $5A
  $DDC7  E0 02     CPX #$02
  $DDC9  90 12     BCC $DDDD
  $DDCB  20 7C D3  JSR $D37C
  $DDCE  29 03     AND #$03
  $DDD0  F0 12     BEQ $DDE4
  $DDD2  A9 80     LDA #$80
  $DDD4  20 DD E4  JSR $E4DD
  $DDD7  A9 08     LDA #$08
  $DDD9  15 A0     ORA $A0,X
  $DDDB  95 A0     STA $A0,X
  $DDDD  B5 B0     LDA $B0,X
  $DDDF  49 04     EOR #$04
  $DDE1  95 B0     STA $B0,X
  $DDE3  60        RTS 
  $DDE4  B5 90     LDA $90,X
  $DDE6  29 07     AND #$07
  $DDE8  D0 0B     BNE $DDF5
  $DDEA  B5 98     LDA $98,X
  $DDEC  29 07     AND #$07
  $DDEE  D0 05     BNE $DDF5
  $DDF0  A9 90     LDA #$90
  $DDF2  20 DD E4  JSR $E4DD
  $DDF5  B5 A0     LDA $A0,X
  $DDF7  49 02     EOR #$02
  $DDF9  95 A0     STA $A0,X
  $DDFB  60        RTS 
  $DDFC  20 7C D3  JSR $D37C
  $DDFF  29 01     AND #$01
  $DE01  F0 1B     BEQ $DE1E
  $DE03  20 7C D3  JSR $D37C
  $DE06  29 01     AND #$01
  $DE08  F0 08     BEQ $DE12
  $DE0A  B5 A0     LDA $A0,X
  $DE0C  18        CLC 
  $DE0D  69 01     ADC #$01
  $DE0F  4C 17 DE  JMP $DE17
  $DE12  B5 A0     LDA $A0,X
  $DE14  38        SEC 
  $DE15  E9 01     SBC #$01
  $DE17  29 03     AND #$03
  $DE19  09 A0     ORA #$A0
  $DE1B  95 A0     STA $A0,X
  $DE1D  60        RTS 
  $DE1E  20 26 DF  JSR $DF26
  $DE21  60        RTS 
  $DE22  C5 56     CMP $56
  $DE24  90 03     BCC $DE29
  $DE26  38        SEC 
  $DE27  E9 01     SBC #$01
  $DE29  60        RTS 
  $DE2A  C5 57     CMP $57
  $DE2C  90 03     BCC $DE31
  $DE2E  38        SEC 
  $DE2F  E9 01     SBC #$01
  $DE31  60        RTS 
  $DE32  A5 90     LDA $90
  $DE34  85 71     STA $71
  $DE36  A5 98     LDA $98
  $DE38  85 72     STA $72
  $DE3A  4C 50 DE  JMP $DE50
  $DE3D  A5 91     LDA $91
  $DE3F  85 71     STA $71
  $DE41  A5 99     LDA $99
  $DE43  85 72     STA $72
  $DE45  4C 50 DE  JMP $DE50
  $DE48  A9 78     LDA #$78
  $DE4A  85 71     STA $71
  $DE4C  A9 D8     LDA #$D8
  $DE4E  85 72     STA $72
  $DE50  20 56 DE  JSR $DE56
  $DE53  95 A0     STA $A0,X
  $DE55  60        RTS 
  $DE56  A5 71     LDA $71
  $DE58  38        SEC 
  $DE59  F5 90     SBC $90,X
  $DE5B  20 5D DB  JSR $DB5D
  $DE5E  18        CLC 
  $DE5F  69 01     ADC #$01
  $DE61  85 64     STA $64
  $DE63  A5 72     LDA $72
  $DE65  38        SEC 
  $DE66  F5 98     SBC $98,X
  $DE68  20 5D DB  JSR $DB5D
  $DE6B  18        CLC 
  $DE6C  69 01     ADC #$01
  $DE6E  85 65     STA $65
  $DE70  0A        ASL 
  $DE71  18        CLC 
  $DE72  65 65     ADC $65
  $DE74  18        CLC 
  $DE75  65 64     ADC $64
  $DE77  85 64     STA $64
  $DE79  E0 02     CPX #$02
  $DE7B  B0 0B     BCS $DE88
  $DE7D  8A        TXA 
  $DE7E  0A        ASL 
  $DE7F  45 0A     EOR $0A
  $DE81  29 02     AND #$02
  $DE83  F0 13     BEQ $DE98
  $DE85  4C 8F DE  JMP $DE8F
  $DE88  20 7C D3  JSR $D37C
  $DE8B  29 01     AND #$01
  $DE8D  F0 09     BEQ $DE98
  $DE8F  A9 09     LDA #$09
  $DE91  18        CLC 
  $DE92  65 64     ADC $64
  $DE94  A8        TAY 
  $DE95  4C 9A DE  JMP $DE9A
  $DE98  A4 64     LDY $64
  $DE9A  B9 43 E5  LDA $E543,Y
  $DE9D  60        RTS 
  $DE9E  D6 A0     DEC $A0,X
  $DEA0  B5 A0     LDA $A0,X
  $DEA2  29 0F     AND #$0F
  $DEA4  D0 53     BNE $DEF9
  $DEA6  B5 A0     LDA $A0,X
  $DEA8  38        SEC 
  $DEA9  E9 10     SBC #$10
  $DEAB  F0 0E     BEQ $DEBB
  $DEAD  C9 10     CMP #$10
  $DEAF  D0 05     BNE $DEB6
  $DEB1  09 06     ORA #$06
  $DEB3  4C B8 DE  JMP $DEB8
  $DEB6  09 03     ORA #$03
  $DEB8  95 A0     STA $A0,X
  $DEBA  60        RTS 
  $DEBB  95 A0     STA $A0,X
  $DEBD  E0 02     CPX #$02
  $DEBF  B0 08     BCS $DEC9
  $DEC1  D6 51     DEC $51,X
  $DEC3  F0 07     BEQ $DECC
  $DEC5  20 17 E4  JSR $E417
  $DEC8  60        RTS 
  $DEC9  C6 80     DEC $80
  $DECB  60        RTS 
  $DECC  A5 68     LDA $68
  $DECE  C9 80     CMP #$80
  $DED0  D0 27     BNE $DEF9
  $DED2  E0 01     CPX #$01
  $DED4  F0 12     BEQ $DEE8
  $DED6  A5 52     LDA $52
  $DED8  F0 1F     BEQ $DEF9
  $DEDA  A9 03     LDA #$03
  $DEDC  8D 07 01  STA $0107
  $DEDF  A9 20     LDA #$20
  $DEE1  8D 05 01  STA $0105
  $DEE4  20 FA DE  JSR $DEFA
  $DEE7  60        RTS 
  $DEE8  A5 51     LDA $51
  $DEEA  F0 0D     BEQ $DEF9
  $DEEC  A9 01     LDA #$01
  $DEEE  8D 07 01  STA $0107
  $DEF1  A9 C0     LDA #$C0
  $DEF3  8D 05 01  STA $0105
  $DEF6  20 FA DE  JSR $DEFA
  $DEF9  60        RTS 
  $DEFA  A9 0D     LDA #$0D
  $DEFC  8D 08 01  STA $0108
  $DEFF  A9 D8     LDA #$D8
  $DF01  8D 06 01  STA $0106
  $DF04  A9 00     LDA #$00
  $DF06  85 0B     STA $0B
  $DF08  60        RTS 
  $DF09  F6 A0     INC $A0,X
  $DF0B  B5 A0     LDA $A0,X
  $DF0D  29 0F     AND #$0F
  $DF0F  C9 0E     CMP #$0E
  $DF11  D0 04     BNE $DF17
  $DF13  A9 E0     LDA #$E0
  $DF15  95 A0     STA $A0,X
  $DF17  60        RTS 
  $DF18  F6 A0     INC $A0,X
  $DF1A  B5 A0     LDA $A0,X
  $DF1C  29 0F     AND #$0F
  $DF1E  C9 0E     CMP #$0E
  $DF20  D0 03     BNE $DF25
  $DF22  20 6C E4  JSR $E46C
  $DF25  60        RTS 
  $DF26  A5 84     LDA $84
  $DF28  4A        LSR 
  $DF29  4A        LSR 
  $DF2A  C5 0A     CMP $0A
  $DF2C  B0 05     BCS $DF33
  $DF2E  A9 B0     LDA #$B0
  $DF30  4C 56 DF  JMP $DF56
  $DF33  4A        LSR 
  $DF34  C5 0A     CMP $0A
  $DF36  90 0A     BCC $DF42
  $DF38  20 7C D3  JSR $D37C
  $DF3B  29 03     AND #$03
  $DF3D  09 A0     ORA #$A0
  $DF3F  95 A0     STA $A0,X
  $DF41  60        RTS 
  $DF42  A5 A0     LDA $A0
  $DF44  F0 09     BEQ $DF4F
  $DF46  8A        TXA 
  $DF47  29 01     AND #$01
  $DF49  F0 09     BEQ $DF54
  $DF4B  A5 A1     LDA $A1
  $DF4D  F0 05     BEQ $DF54
  $DF4F  A9 C0     LDA #$C0
  $DF51  4C 56 DF  JMP $DF56
  $DF54  A9 D0     LDA #$D0
  $DF56  20 DD E4  JSR $E4DD
  $DF59  60        RTS 
  $DF5A  A9 00     LDA #$00
  $DF5C  85 5A     STA $5A
  $DF5E  A6 5A     LDX $5A
  $DF60  20 6C DF  JSR $DF6C
  $DF63  E6 5A     INC $5A
  $DF65  A5 5A     LDA $5A
  $DF67  C9 08     CMP #$08
  $DF69  D0 F3     BNE $DF5E
  $DF6B  60        RTS 
  $DF6C  B5 A0     LDA $A0,X
  $DF6E  4A        LSR 
  $DF6F  4A        LSR 
  $DF70  4A        LSR 
  $DF71  29 FE     AND #$FE
  $DF73  A8        TAY 
  $DF74  B9 75 E5  LDA $E575,Y
  $DF77  85 11     STA $11
  $DF79  B9 76 E5  LDA $E576,Y
  $DF7C  85 12     STA $12
  $DF7E  6C 11 00  JMP ($0011)
  $DF81  A9 00     LDA #$00
  $DF83  85 6E     STA $6E
  $DF85  B5 A0     LDA $A0,X
  $DF87  48        PHA 
  $DF88  B4 98     LDY $98,X
  $DF8A  B5 90     LDA $90,X
  $DF8C  AA        TAX 
  $DF8D  68        PLA 
  $DF8E  20 96 DF  JSR $DF96
  $DF91  A9 20     LDA #$20
  $DF93  85 6E     STA $6E
  $DF95  60        RTS 
  $DF96  4A        LSR 
  $DF97  4A        LSR 
  $DF98  4A        LSR 
  $DF99  4A        LSR 
  $DF9A  38        SEC 
  $DF9B  E9 07     SBC #$07
  $DF9D  49 FF     EOR #$FF
  $DF9F  18        CLC 
  $DFA0  69 01     ADC #$01
  $DFA2  0A        ASL 
  $DFA3  0A        ASL 
  $DFA4  18        CLC 
  $DFA5  69 F1     ADC #$F1
  $DFA7  85 53     STA $53
  $DFA9  A9 03     LDA #$03
  $DFAB  85 04     STA $04
  $DFAD  20 0A DB  JSR $DB0A
  $DFB0  60        RTS 
  $DFB1  A9 00     LDA #$00
  $DFB3  85 6E     STA $6E
  $DFB5  B5 A8     LDA $A8,X
  $DFB7  F0 1E     BEQ $DFD7
  $DFB9  B5 A8     LDA $A8,X
  $DFBB  4A        LSR 
  $DFBC  4A        LSR 
  $DFBD  4A        LSR 
  $DFBE  29 FC     AND #$FC
  $DFC0  38        SEC 
  $DFC1  E9 10     SBC #$10
  $DFC3  18        CLC 
  $DFC4  69 B9     ADC #$B9
  $DFC6  85 53     STA $53
  $DFC8  A9 03     LDA #$03
  $DFCA  85 04     STA $04
  $DFCC  B4 98     LDY $98,X
  $DFCE  B5 90     LDA $90,X
  $DFD0  AA        TAX 
  $DFD1  20 0A DB  JSR $DB0A
  $DFD4  4C E2 DF  JMP $DFE2
  $DFD7  B5 98     LDA $98,X
  $DFD9  A8        TAY 
  $DFDA  B5 90     LDA $90,X
  $DFDC  AA        TAX 
  $DFDD  A9 00     LDA #$00
  $DFDF  20 A4 DF  JSR $DFA4
  $DFE2  A9 20     LDA #$20
  $DFE4  85 6E     STA $6E
  $DFE6  60        RTS 
  $DFE7  A9 00     LDA #$00
  $DFE9  85 6E     STA $6E
  $DFEB  B4 98     LDY $98,X
  $DFED  B5 90     LDA $90,X
  $DFEF  AA        TAX 
  $DFF0  A9 08     LDA #$08
  $DFF2  20 A4 DF  JSR $DFA4
  $DFF5  A9 20     LDA #$20
  $DFF7  85 6E     STA $6E
  $DFF9  60        RTS 
  $DFFA  A9 03     LDA #$03
  $DFFC  85 04     STA $04
  $DFFE  A9 00     LDA #$00
  $E000  85 6E     STA $6E
  $E002  20 4D E0  JSR $E04D
  $E005  8A        TXA 
  $E006  38        SEC 
  $E007  E9 08     SBC #$08
  $E009  AA        TAX 
  $E00A  98        TYA 
  $E00B  38        SEC 
  $E00C  E9 08     SBC #$08
  $E00E  A8        TAY 
  $E00F  20 0A DB  JSR $DB0A
  $E012  A9 01     LDA #$01
  $E014  20 4D E0  JSR $E04D
  $E017  8A        TXA 
  $E018  18        CLC 
  $E019  69 08     ADC #$08
  $E01B  AA        TAX 
  $E01C  98        TYA 
  $E01D  38        SEC 
  $E01E  E9 08     SBC #$08
  $E020  A8        TAY 
  $E021  20 0A DB  JSR $DB0A
  $E024  A9 02     LDA #$02
  $E026  20 4D E0  JSR $E04D
  $E029  8A        TXA 
  $E02A  38        SEC 
  $E02B  E9 08     SBC #$08
  $E02D  AA        TAX 
  $E02E  98        TYA 
  $E02F  18        CLC 
  $E030  69 08     ADC #$08
  $E032  A8        TAY 
  $E033  20 0A DB  JSR $DB0A
  $E036  A9 03     LDA #$03
  $E038  20 4D E0  JSR $E04D
  $E03B  8A        TXA 
  $E03C  18        CLC 
  $E03D  69 08     ADC #$08
  $E03F  AA        TAX 
  $E040  98        TYA 
  $E041  18        CLC 
  $E042  69 08     ADC #$08
  $E044  A8        TAY 
  $E045  20 0A DB  JSR $DB0A
  $E048  A9 20     LDA #$20
  $E04A  85 6E     STA $6E
  $E04C  60        RTS 
  $E04D  A6 5A     LDX $5A
  $E04F  0A        ASL 
  $E050  0A        ASL 
  $E051  18        CLC 
  $E052  69 D1     ADC #$D1
  $E054  85 00     STA $00
  $E056  B5 A0     LDA $A0,X
  $E058  29 F0     AND #$F0
  $E05A  38        SEC 
  $E05B  E9 30     SBC #$30
  $E05D  49 10     EOR #$10
  $E05F  18        CLC 
  $E060  65 00     ADC $00
  $E062  85 53     STA $53
  $E064  B4 98     LDY $98,X
  $E066  B5 90     LDA $90,X
  $E068  AA        TAX 
  $E069  60        RTS 
  $E06A  E0 02     CPX #$02
  $E06C  90 23     BCC $E091
  $E06E  B5 A8     LDA $A8,X
  $E070  29 04     AND #$04
  $E072  F0 0D     BEQ $E081
  $E074  A5 0B     LDA $0B
  $E076  4A        LSR 
  $E077  4A        LSR 
  $E078  4A        LSR 
  $E079  29 01     AND #$01
  $E07B  18        CLC 
  $E07C  69 02     ADC #$02
  $E07E  4C 9D E0  JMP $E09D
  $E081  A5 0B     LDA $0B
  $E083  0A        ASL 
  $E084  0A        ASL 
  $E085  18        CLC 
  $E086  75 A8     ADC $A8,X
  $E088  29 07     AND #$07
  $E08A  A8        TAY 
  $E08B  B9 B7 E0  LDA $E0B7,Y
  $E08E  4C 9D E0  JMP $E09D
  $E091  B5 6F     LDA $6F,X
  $E093  F0 07     BEQ $E09C
  $E095  A5 0B     LDA $0B
  $E097  29 08     AND #$08
  $E099  F0 01     BEQ $E09C
  $E09B  60        RTS 
  $E09C  8A        TXA 
  $E09D  85 04     STA $04
  $E09F  B5 A0     LDA $A0,X
  $E0A1  29 03     AND #$03
  $E0A3  48        PHA 
  $E0A4  B5 A8     LDA $A8,X
  $E0A6  29 F0     AND #$F0
  $E0A8  18        CLC 
  $E0A9  75 B0     ADC $B0,X
  $E0AB  85 53     STA $53
  $E0AD  B4 98     LDY $98,X
  $E0AF  B5 90     LDA $90,X
  $E0B1  AA        TAX 
  $E0B2  68        PLA 
  $E0B3  20 02 DB  JSR $DB02
  $E0B6  60        RTS 
  $E0B7  02        ??? 
  $E0B8  00        BRK 
  $E0B9  00        BRK 
  $E0BA  01 02     ORA ($02,X)
  $E0BC  01 02     ORA ($02,X)
  $E0BE  02        ??? 
  $E0BF  B5 A0     LDA $A0,X
  $E0C1  29 0F     AND #$0F
  $E0C3  38        SEC 
  $E0C4  E9 07     SBC #$07
  $E0C6  10 05     BPL $E0CD
  $E0C8  49 FF     EOR #$FF
  $E0CA  18        CLC 
  $E0CB  69 01     ADC #$01
  $E0CD  0A        ASL 
  $E0CE  29 FC     AND #$FC
  $E0D0  18        CLC 
  $E0D1  69 A1     ADC #$A1
  $E0D3  85 53     STA $53
  $E0D5  A9 03     LDA #$03
  $E0D7  85 04     STA $04
  $E0D9  B4 98     LDY $98,X
  $E0DB  B5 90     LDA $90,X
  $E0DD  AA        TAX 
  $E0DE  20 0A DB  JSR $DB0A
  $E0E1  60        RTS 
  $E0E2  A9 09     LDA #$09
  $E0E4  85 5A     STA $5A
  $E0E6  A6 5A     LDX $5A
  $E0E8  20 F0 E0  JSR $E0F0
  $E0EB  C6 5A     DEC $5A
  $E0ED  10 F7     BPL $E0E6
  $E0EF  60        RTS 
  $E0F0  B5 CC     LDA $CC,X
  $E0F2  4A        LSR 
  $E0F3  4A        LSR 
  $E0F4  4A        LSR 
  $E0F5  29 FE     AND #$FE
  $E0F7  A8        TAY 
  $E0F8  B9 95 E5  LDA $E595,Y
  $E0FB  85 11     STA $11
  $E0FD  B9 96 E5  LDA $E596,Y
  $E100  85 12     STA $12
  $E102  6C 11 00  JMP ($0011)
  $E105  B5 CC     LDA $CC,X
  $E107  29 03     AND #$03
  $E109  A8        TAY 
  $E10A  20 17 E1  JSR $E117
  $E10D  B5 D6     LDA $D6,X
  $E10F  29 01     AND #$01
  $E111  F0 03     BEQ $E116
  $E113  20 17 E1  JSR $E117
  $E116  60        RTS 
  $E117  B9 29 E5  LDA $E529,Y
  $E11A  0A        ASL 
  $E11B  18        CLC 
  $E11C  75 B8     ADC $B8,X
  $E11E  95 B8     STA $B8,X
  $E120  B9 2D E5  LDA $E52D,Y
  $E123  0A        ASL 
  $E124  18        CLC 
  $E125  75 C2     ADC $C2,X
  $E127  95 C2     STA $C2,X
  $E129  60        RTS 
  $E12A  D6 CC     DEC $CC,X
  $E12C  B5 CC     LDA $CC,X
  $E12E  29 0F     AND #$0F
  $E130  D0 0D     BNE $E13F
  $E132  B5 CC     LDA $CC,X
  $E134  29 F0     AND #$F0
  $E136  38        SEC 
  $E137  E9 10     SBC #$10
  $E139  F0 02     BEQ $E13D
  $E13B  09 03     ORA #$03
  $E13D  95 CC     STA $CC,X
  $E13F  60        RTS 
  $E140  B5 CC     LDA $CC,X
  $E142  D0 47     BNE $E18B
  $E144  E0 02     CPX #$02
  $E146  B0 05     BCS $E14D
  $E148  A9 01     LDA #$01
  $E14A  8D 0F 03  STA $030F
  $E14D  B5 A0     LDA $A0,X
  $E14F  29 03     AND #$03
  $E151  A8        TAY 
  $E152  09 40     ORA #$40
  $E154  95 CC     STA $CC,X
  $E156  B9 29 E5  LDA $E529,Y
  $E159  0A        ASL 
  $E15A  0A        ASL 
  $E15B  0A        ASL 
  $E15C  18        CLC 
  $E15D  75 90     ADC $90,X
  $E15F  95 B8     STA $B8,X
  $E161  B9 2D E5  LDA $E52D,Y
  $E164  0A        ASL 
  $E165  0A        ASL 
  $E166  0A        ASL 
  $E167  18        CLC 
  $E168  75 98     ADC $98,X
  $E16A  95 C2     STA $C2,X
  $E16C  A9 00     LDA #$00
  $E16E  95 D6     STA $D6,X
  $E170  B5 A8     LDA $A8,X
  $E172  29 F0     AND #$F0
  $E174  F0 15     BEQ $E18B
  $E176  C9 C0     CMP #$C0
  $E178  F0 08     BEQ $E182
  $E17A  C9 60     CMP #$60
  $E17C  F0 09     BEQ $E187
  $E17E  29 80     AND #$80
  $E180  D0 09     BNE $E18B
  $E182  A9 01     LDA #$01
  $E184  95 D6     STA $D6,X
  $E186  60        RTS 
  $E187  A9 03     LDA #$03
  $E189  95 D6     STA $D6,X
  $E18B  60        RTS 
  $E18C  A9 09     LDA #$09
  $E18E  85 5A     STA $5A
  $E190  A6 5A     LDX $5A
  $E192  20 9A E1  JSR $E19A
  $E195  C6 5A     DEC $5A
  $E197  10 F7     BPL $E190
  $E199  60        RTS 
  $E19A  B5 CC     LDA $CC,X
  $E19C  4A        LSR 
  $E19D  4A        LSR 
  $E19E  4A        LSR 
  $E19F  29 FE     AND #$FE
  $E1A1  A8        TAY 
  $E1A2  B9 9F E5  LDA $E59F,Y
  $E1A5  85 11     STA $11
  $E1A7  B9 A0 E5  LDA $E5A0,Y
  $E1AA  85 12     STA $12
  $E1AC  6C 11 00  JMP ($0011)
  $E1AF  B5 CC     LDA $CC,X
  $E1B1  29 03     AND #$03
  $E1B3  48        PHA 
  $E1B4  B4 C2     LDY $C2,X
  $E1B6  B5 B8     LDA $B8,X
  $E1B8  AA        TAX 
  $E1B9  A9 02     LDA #$02
  $E1BB  85 04     STA $04
  $E1BD  A9 B1     LDA #$B1
  $E1BF  85 53     STA $53
  $E1C1  68        PLA 
  $E1C2  20 F3 DA  JSR $DAF3
  $E1C5  60        RTS 
  $E1C6  B5 CC     LDA $CC,X
  $E1C8  48        PHA 
  $E1C9  B4 C2     LDY $C2,X
  $E1CB  B5 B8     LDA $B8,X
  $E1CD  AA        TAX 
  $E1CE  68        PLA 
  $E1CF  18        CLC 
  $E1D0  69 40     ADC #$40
  $E1D2  20 96 DF  JSR $DF96
  $E1D5  60        RTS 
  $E1D6  A9 01     LDA #$01
  $E1D8  85 5A     STA $5A
  $E1DA  A6 5A     LDX $5A
  $E1DC  B5 A0     LDA $A0,X
  $E1DE  10 31     BPL $E211
  $E1E0  C9 E0     CMP #$E0
  $E1E2  B0 2D     BCS $E211
  $E1E4  B5 08     LDA $08,X
  $E1E6  29 03     AND #$03
  $E1E8  F0 27     BEQ $E211
  $E1EA  B5 A8     LDA $A8,X
  $E1EC  29 C0     AND #$C0
  $E1EE  C9 40     CMP #$40
  $E1F0  D0 1C     BNE $E20E
  $E1F2  B5 CC     LDA $CC,X
  $E1F4  F0 18     BEQ $E20E
  $E1F6  B5 D4     LDA $D4,X
  $E1F8  D0 17     BNE $E211
  $E1FA  B5 CC     LDA $CC,X
  $E1FC  95 D4     STA $D4,X
  $E1FE  B5 B8     LDA $B8,X
  $E200  95 C0     STA $C0,X
  $E202  B5 C2     LDA $C2,X
  $E204  95 CA     STA $CA,X
  $E206  B5 D6     LDA $D6,X
  $E208  95 DE     STA $DE,X
  $E20A  A9 00     LDA #$00
  $E20C  95 CC     STA $CC,X
  $E20E  20 40 E1  JSR $E140
  $E211  C6 5A     DEC $5A
  $E213  10 C5     BPL $E1DA
  $E215  60        RTS 
  $E216  AD 00 01  LDA $0100
  $E219  D0 19     BNE $E234
  $E21B  A2 07     LDX #$07
  $E21D  B5 A0     LDA $A0,X
  $E21F  10 0E     BPL $E22F
  $E221  C9 E0     CMP #$E0
  $E223  B0 0A     BCS $E22F
  $E225  20 7C D3  JSR $D37C
  $E228  29 1F     AND #$1F
  $E22A  D0 03     BNE $E22F
  $E22C  20 40 E1  JSR $E140
  $E22F  CA        DEX 
  $E230  E0 01     CPX #$01
  $E232  D0 E9     BNE $E21D
  $E234  60        RTS 
  $E235  A9 07     LDA #$07
  $E237  85 5A     STA $5A
  $E239  A6 5A     LDX $5A
  $E23B  B5 A0     LDA $A0,X
  $E23D  10 63     BPL $E2A2
  $E23F  C9 E0     CMP #$E0
  $E241  B0 5F     BCS $E2A2
  $E243  B5 98     LDA $98,X
  $E245  38        SEC 
  $E246  E9 08     SBC #$08
  $E248  A8        TAY 
  $E249  B5 90     LDA $90,X
  $E24B  38        SEC 
  $E24C  E9 08     SBC #$08
  $E24E  AA        TAX 
  $E24F  20 26 D7  JSR $D726
  $E252  A6 5A     LDX $5A
  $E254  A5 11     LDA $11
  $E256  95 E0     STA $E0,X
  $E258  A5 12     LDA $12
  $E25A  29 03     AND #$03
  $E25C  95 E8     STA $E8,X
  $E25E  A0 21     LDY #$21
  $E260  E0 02     CPX #$02
  $E262  B0 19     BCS $E27D
  $E264  B1 11     LDA ($11),Y
  $E266  C9 21     CMP #$21
  $E268  D0 0B     BNE $E275
  $E26A  A9 80     LDA #$80
  $E26C  1D 03 01  ORA $0103,X
  $E26F  9D 03 01  STA $0103,X
  $E272  4C 7D E2  JMP $E27D
  $E275  BD 03 01  LDA $0103,X
  $E278  29 7F     AND #$7F
  $E27A  9D 03 01  STA $0103,X
  $E27D  20 A7 E2  JSR $E2A7
  $E280  B5 90     LDA $90,X
  $E282  29 07     AND #$07
  $E284  D0 0B     BNE $E291
  $E286  B5 E8     LDA $E8,X
  $E288  09 80     ORA #$80
  $E28A  95 E8     STA $E8,X
  $E28C  A0 20     LDY #$20
  $E28E  20 A7 E2  JSR $E2A7
  $E291  B5 98     LDA $98,X
  $E293  29 07     AND #$07
  $E295  D0 0B     BNE $E2A2
  $E297  B5 E8     LDA $E8,X
  $E299  09 40     ORA #$40
  $E29B  95 E8     STA $E8,X
  $E29D  A0 01     LDY #$01
  $E29F  20 A7 E2  JSR $E2A7
  $E2A2  C6 5A     DEC $5A
  $E2A4  10 93     BPL $E239
  $E2A6  60        RTS 
  $E2A7  B1 11     LDA ($11),Y
  $E2A9  09 80     ORA #$80
  $E2AB  91 11     STA ($11),Y
  $E2AD  60        RTS 
  $E2AE  A9 07     LDA #$07
  $E2B0  85 5A     STA $5A
  $E2B2  A6 5A     LDX $5A
  $E2B4  B5 A0     LDA $A0,X
  $E2B6  10 2B     BPL $E2E3
  $E2B8  C9 E0     CMP #$E0
  $E2BA  B0 27     BCS $E2E3
  $E2BC  B5 E0     LDA $E0,X
  $E2BE  85 11     STA $11
  $E2C0  B5 E8     LDA $E8,X
  $E2C2  29 03     AND #$03
  $E2C4  09 04     ORA #$04
  $E2C6  85 12     STA $12
  $E2C8  A0 21     LDY #$21
  $E2CA  20 E8 E2  JSR $E2E8
  $E2CD  B5 E8     LDA $E8,X
  $E2CF  29 80     AND #$80
  $E2D1  F0 05     BEQ $E2D8
  $E2D3  A0 20     LDY #$20
  $E2D5  20 E8 E2  JSR $E2E8
  $E2D8  B5 E8     LDA $E8,X
  $E2DA  29 40     AND #$40
  $E2DC  F0 05     BEQ $E2E3
  $E2DE  A0 01     LDY #$01
  $E2E0  20 E8 E2  JSR $E2E8
  $E2E3  C6 5A     DEC $5A
  $E2E5  10 CB     BPL $E2B2
  $E2E7  60        RTS 
  $E2E8  B1 11     LDA ($11),Y
  $E2EA  29 7F     AND #$7F
  $E2EC  91 11     STA ($11),Y
  $E2EE  60        RTS 
  $E2EF  A5 86     LDA $86
  $E2F1  F0 3C     BEQ $E32F
  $E2F3  A5 62     LDA $62
  $E2F5  F0 16     BEQ $E30D
  $E2F7  C6 62     DEC $62
  $E2F9  D0 07     BNE $E302
  $E2FB  A9 00     LDA #$00
  $E2FD  85 86     STA $86
  $E2FF  4C 2F E3  JMP $E32F
  $E302  A9 02     LDA #$02
  $E304  85 04     STA $04
  $E306  A9 3B     LDA #$3B
  $E308  85 53     STA $53
  $E30A  4C 20 E3  JMP $E320
  $E30D  A5 0B     LDA $0B
  $E30F  29 08     AND #$08
  $E311  F0 1C     BEQ $E32F
  $E313  A9 02     LDA #$02
  $E315  85 04     STA $04
  $E317  A5 88     LDA $88
  $E319  0A        ASL 
  $E31A  0A        ASL 
  $E31B  18        CLC 
  $E31C  69 81     ADC #$81
  $E31E  85 53     STA $53
  $E320  A6 86     LDX $86
  $E322  A4 87     LDY $87
  $E324  A9 00     LDA #$00
  $E326  85 6E     STA $6E
  $E328  20 0A DB  JSR $DB0A
  $E32B  A9 20     LDA #$20
  $E32D  85 6E     STA $6E
  $E32F  60        RTS 
  $E330  A9 01     LDA #$01
  $E332  85 5A     STA $5A
  $E334  A6 5A     LDX $5A
  $E336  B5 89     LDA $89,X
  $E338  F0 1E     BEQ $E358
  $E33A  A5 0B     LDA $0B
  $E33C  29 3F     AND #$3F
  $E33E  D0 02     BNE $E342
  $E340  D6 89     DEC $89,X
  $E342  A9 02     LDA #$02
  $E344  85 04     STA $04
  $E346  B4 98     LDY $98,X
  $E348  B5 90     LDA $90,X
  $E34A  AA        TAX 
  $E34B  A5 0B     LDA $0B
  $E34D  29 02     AND #$02
  $E34F  0A        ASL 
  $E350  18        CLC 
  $E351  69 29     ADC #$29
  $E353  85 53     STA $53
  $E355  20 0A DB  JSR $DB0A
  $E358  C6 5A     DEC $5A
  $E35A  10 D8     BPL $E334
  $E35C  60        RTS 
  $E35D  A5 45     LDA $45
  $E35F  F0 25     BEQ $E386
  $E361  A5 0B     LDA $0B
  $E363  29 0F     AND #$0F
  $E365  D0 1F     BNE $E386
  $E367  A5 0B     LDA $0B
  $E369  29 3F     AND #$3F
  $E36B  D0 04     BNE $E371
  $E36D  C6 45     DEC $45
  $E36F  F0 12     BEQ $E383
  $E371  A5 45     LDA $45
  $E373  C9 04     CMP #$04
  $E375  B0 0F     BCS $E386
  $E377  A5 0B     LDA $0B
  $E379  29 10     AND #$10
  $E37B  F0 06     BEQ $E383
  $E37D  20 BB C9  JSR $C9BB
  $E380  4C 86 E3  JMP $E386
  $E383  20 12 C9  JSR $C912
  $E386  A5 68     LDA $68
  $E388  F0 2F     BEQ $E3B9
  $E38A  30 2D     BMI $E3B9
  $E38C  A9 03     LDA #$03
  $E38E  85 04     STA $04
  $E390  C6 68     DEC $68
  $E392  A5 68     LDA $68
  $E394  4A        LSR 
  $E395  4A        LSR 
  $E396  38        SEC 
  $E397  E9 05     SBC #$05
  $E399  10 05     BPL $E3A0
  $E39B  49 FF     EOR #$FF
  $E39D  18        CLC 
  $E39E  69 01     ADC #$01
  $E3A0  38        SEC 
  $E3A1  E9 05     SBC #$05
  $E3A3  10 05     BPL $E3AA
  $E3A5  49 FF     EOR #$FF
  $E3A7  18        CLC 
  $E3A8  69 01     ADC #$01
  $E3AA  0A        ASL 
  $E3AB  A8        TAY 
  $E3AC  B9 BA E3  LDA $E3BA,Y
  $E3AF  85 11     STA $11
  $E3B1  B9 BB E3  LDA $E3BB,Y
  $E3B4  85 12     STA $12
  $E3B6  6C 11 00  JMP ($0011)
  $E3B9  60        RTS 
  $E3BA  9E        ??? 
  $E3BB  DC C6 E3  NOP $E3C6,X
  $E3BE  CB        ??? 
  $E3BF  E3 D0     ISC ($D0,X)
  $E3C1  E3 E2     ISC ($E2,X)
  $E3C3  E3 EA     ISC ($EA,X)
  $E3C5  E3 A9     ISC ($A9,X)
  $E3C7  F1 4C     SBC ($4C),Y
  $E3C9  D2        ??? 
  $E3CA  E3 A9     ISC ($A9,X)
  $E3CC  F5 4C     SBC $4C,X
  $E3CE  D2        ??? 
  $E3CF  E3 A9     ISC ($A9,X)
  $E3D1  F9 A2 78  SBC $78A2,Y
  $E3D4  A0 D8     LDY #$D8
  $E3D6  85 53     STA $53
  $E3D8  20 0A DB  JSR $DB0A
  $E3DB  60        RTS 
  $E3DC  18        CLC 
  $E3DD  65 69     ADC $69
  $E3DF  4C D6 E3  JMP $E3D6
  $E3E2  A9 00     LDA #$00
  $E3E4  85 69     STA $69
  $E3E6  20 F2 E3  JSR $E3F2
  $E3E9  60        RTS 
  $E3EA  A9 10     LDA #$10
  $E3EC  85 69     STA $69
  $E3EE  20 F2 E3  JSR $E3F2
  $E3F1  60        RTS 
  $E3F2  A2 70     LDX #$70
  $E3F4  A0 D0     LDY #$D0
  $E3F6  A9 D1     LDA #$D1
  $E3F8  20 DC E3  JSR $E3DC
  $E3FB  A2 80     LDX #$80
  $E3FD  A0 D0     LDY #$D0
  $E3FF  A9 D5     LDA #$D5
  $E401  20 DC E3  JSR $E3DC
  $E404  A2 70     LDX #$70
  $E406  A0 E0     LDY #$E0
  $E408  A9 D9     LDA #$D9
  $E40A  20 DC E3  JSR $E3DC
  $E40D  A2 80     LDX #$80
  $E40F  A0 E0     LDY #$E0
  $E411  A9 DD     LDA #$DD
  $E413  20 DC E3  JSR $E3DC
  $E416  60        RTS 
  $E417  A9 00     LDA #$00
  $E419  95 A8     STA $A8,X
  $E41B  E0 02     CPX #$02
  $E41D  B0 11     BCS $E430
  $E41F  BD 37 E5  LDA $E537,X
  $E422  95 90     STA $90,X
  $E424  BD 39 E5  LDA $E539,X
  $E427  95 98     STA $98,X
  $E429  A9 00     LDA #$00
  $E42B  95 6F     STA $6F,X
  $E42D  4C 5D E4  JMP $E45D
  $E430  E6 6A     INC $6A
  $E432  A4 6A     LDY $6A
  $E434  C0 03     CPY #$03
  $E436  D0 05     BNE $E43D
  $E438  A9 00     LDA #$00
  $E43A  85 6A     STA $6A
  $E43C  A8        TAY 
  $E43D  B9 31 E5  LDA $E531,Y
  $E440  95 90     STA $90,X
  $E442  B9 34 E5  LDA $E534,Y
  $E445  95 98     STA $98,X
  $E447  A5 7F     LDA $7F
  $E449  C9 03     CMP #$03
  $E44B  F0 08     BEQ $E455
  $E44D  C9 0A     CMP #$0A
  $E44F  F0 04     BEQ $E455
  $E451  C9 11     CMP #$11
  $E453  D0 08     BNE $E45D
  $E455  A9 04     LDA #$04
  $E457  95 A8     STA $A8,X
  $E459  A9 00     LDA #$00
  $E45B  85 86     STA $86
  $E45D  A9 F0     LDA #$F0
  $E45F  95 A0     STA $A0,X
  $E461  B4 98     LDY $98,X
  $E463  B5 90     LDA $90,X
  $E465  AA        TAX 
  $E466  A9 0F     LDA #$0F
  $E468  20 2B D8  JSR $D82B
  $E46B  60        RTS 
  $E46C  BD 3B E5  LDA $E53B,X
  $E46F  95 A0     STA $A0,X
  $E471  E0 02     CPX #$02
  $E473  B0 0A     BCS $E47F
  $E475  A9 03     LDA #$03
  $E477  95 89     STA $89,X
  $E479  BD 01 01  LDA $0101,X
  $E47C  4C B7 E4  JMP $E4B7
  $E47F  A4 8F     LDY $8F
  $E481  B9 8B 00  LDA $008B,Y
  $E484  D0 05     BNE $E48B
  $E486  E6 8F     INC $8F
  $E488  4C 7F E4  JMP $E47F
  $E48B  38        SEC 
  $E48C  E9 01     SBC #$01
  $E48E  99 8B 00  STA $008B,Y
  $E491  A5 46     LDA $46
  $E493  F0 05     BEQ $E49A
  $E495  A9 23     LDA #$23
  $E497  4C A5 E4  JMP $E4A5
  $E49A  A5 85     LDA $85
  $E49C  C9 41     CMP #$41
  $E49E  90 05     BCC $E4A5
  $E4A0  A9 E3     LDA #$E3
  $E4A2  4C B7 E4  JMP $E4B7
  $E4A5  38        SEC 
  $E4A6  E9 01     SBC #$01
  $E4A8  0A        ASL 
  $E4A9  0A        ASL 
  $E4AA  18        CLC 
  $E4AB  65 8F     ADC $8F
  $E4AD  A8        TAY 
  $E4AE  B9 A9 E5  LDA $E5A9,Y
  $E4B1  C9 E0     CMP #$E0
  $E4B3  D0 02     BNE $E4B7
  $E4B5  09 03     ORA #$03
  $E4B7  15 A8     ORA $A8,X
  $E4B9  C9 E7     CMP #$E7
  $E4BB  D0 02     BNE $E4BF
  $E4BD  A9 E4     LDA #$E4
  $E4BF  95 A8     STA $A8,X
  $E4C1  A9 00     LDA #$00
  $E4C3  95 B0     STA $B0,X
  $E4C5  60        RTS 
  $E4C6  A2 09     LDX #$09
  $E4C8  A9 00     LDA #$00
  $E4CA  95 CC     STA $CC,X
  $E4CC  CA        DEX 
  $E4CD  10 FB     BPL $E4CA
  $E4CF  60        RTS 
  $E4D0  A9 00     LDA #$00
  $E4D2  A2 07     LDX #$07
  $E4D4  95 A0     STA $A0,X
  $E4D6  9D 03 01  STA $0103,X
  $E4D9  CA        DEX 
  $E4DA  10 F8     BPL $E4D4
  $E4DC  60        RTS 
  $E4DD  85 00     STA $00
  $E4DF  B5 A0     LDA $A0,X
  $E4E1  29 0F     AND #$0F
  $E4E3  05 00     ORA $00
  $E4E5  95 A0     STA $A0,X
  $E4E7  60        RTS 
  $E4E8  A5 46     LDA $46
  $E4EA  F0 05     BEQ $E4F1
  $E4EC  A9 23     LDA #$23
  $E4EE  4C F3 E4  JMP $E4F3
  $E4F1  A5 85     LDA $85
  $E4F3  38        SEC 
  $E4F4  E9 01     SBC #$01
  $E4F6  0A        ASL 
  $E4F7  0A        ASL 
  $E4F8  A8        TAY 
  $E4F9  B9 A9 E6  LDA $E6A9,Y
  $E4FC  85 8B     STA $8B
  $E4FE  B9 AA E6  LDA $E6AA,Y
  $E501  85 8C     STA $8C
  $E503  B9 AB E6  LDA $E6AB,Y
  $E506  85 8D     STA $8D
  $E508  B9 AC E6  LDA $E6AC,Y
  $E50B  85 8E     STA $8E
  $E50D  60        RTS 
  $E50E  0A        ASL 
  $E50F  90 03     BCC $E514
  $E511  A9 03     LDA #$03
  $E513  60        RTS 
  $E514  0A        ASL 
  $E515  90 03     BCC $E51A
  $E517  A9 01     LDA #$01
  $E519  60        RTS 
  $E51A  0A        ASL 
  $E51B  90 03     BCC $E520
  $E51D  A9 02     LDA #$02
  $E51F  60        RTS 
  $E520  0A        ASL 
  $E521  90 03     BCC $E526
  $E523  A9 00     LDA #$00
  $E525  60        RTS 
  $E526  A9 FF     LDA #$FF
  $E528  60        RTS 
  $E529  00        BRK 
  $E52A  FF 00 01  ISC $0100,X
  $E52D  FF 00 01  ISC $0100,X
  $E530  00        BRK 
  $E531  18        CLC 
  $E532  78        SEI 
  $E533  D8        CLD 
  $E534  18        CLC 
  $E535  18        CLC 
  $E536  18        CLC 
  $E537  58        CLI 
  $E538  98        TYA 
  $E539  D8        CLD 
  $E53A  D8        CLD 
  $E53B  A0 A0     LDY #$A0
  $E53D  A2 A2     LDX #$A2
  $E53F  A2 A2     LDX #$A2
  $E541  A2 A2     LDX #$A2
  $E543  A0 A0     LDY #$A0
  $E545  A0 A1     LDY #$A1
  $E547  A0 A3     LDY #$A3
  $E549  A2 A2     LDX #$A2
  $E54B  A2 A1     LDX #$A1
  $E54D  A0 A3     LDY #$A3
  $E54F  A1 A0     LDA ($A0,X)
  $E551  A3 A1     LAX ($A1,X)
  $E553  A2 A3     LDX #$A3
  $E555  9E        ??? 
  $E556  DC 9E DE  NOP $DE9E,X
  $E559  9E        ??? 
  $E55A  DE 9E DE  DEC $DE9E,X
  $E55D  9E        ??? 
  $E55E  DE 9E DE  DEC $DE9E,X
  $E561  9E        ??? 
  $E562  DE 9E DE  DEC $DE9E,X
  $E565  06 DD     ASL $DD
  $E567  FC DD 30  NOP $30DD,X
  $E56A  DD 48 DE  CMP $DE48,X
  $E56D  3D DE 32  AND $32DE,X
  $E570  DE 18 DF  DEC $DF18,X
  $E573  09 DF     ORA #$DF
  $E575  9E        ??? 
  $E576  DC B1 DF  NOP $DFB1,X
  $E579  E7 DF     ISC $DF
  $E57B  FA        NOP 
  $E57C  DF FA DF  DCP $DFFA,X
  $E57F  81 DF     STA ($DF,X)
  $E581  81 DF     STA ($DF,X)
  $E583  81 DF     STA ($DF,X)
  $E585  6A        ROR 
  $E586  E0 6A     CPX #$6A
  $E588  E0 6A     CPX #$6A
  $E58A  E0 6A     CPX #$6A
  $E58C  E0 6A     CPX #$6A
  $E58E  E0 6A     CPX #$6A
  $E590  E0 BF     CPX #$BF
  $E592  E0 BF     CPX #$BF
  $E594  E0 9E     CPX #$9E
  $E596  DC 2A E1  NOP $E12A,X
  $E599  2A        ROL 
  $E59A  E1 2A     SBC ($2A,X)
  $E59C  E1 05     SBC ($05,X)
  $E59E  E1 9E     SBC ($9E,X)
  $E5A0  DC C6 E1  NOP $E1C6,X
  $E5A3  C6 E1     DEC $E1
  $E5A5  C6 E1     DEC $E1
  $E5A7  AF E1 80  LAX $80E1
  $E5AA  A0 C0     LDY #$C0
  $E5AC  E0 80     CPX #$80
  $E5AE  A0 C0     LDY #$C0
  $E5B0  E0 A0     CPX #$A0
  $E5B2  C0 E0     CPY #$E0
  $E5B4  80 C0     NOP #$C0
  $E5B6  A0 80     LDY #$80
  $E5B8  E0 C0     CPX #$C0
  $E5BA  E0 80     CPX #$80
  $E5BC  A0 E0     LDY #$E0
  $E5BE  A0 C0     LDY #$C0
  $E5C0  80 80     NOP #$80
  $E5C2  A0 C0     LDY #$C0
  $E5C4  E0 C0     CPX #$C0
  $E5C6  E0 A0     CPX #$A0
  $E5C8  80 C0     NOP #$C0
  $E5CA  A0 80     LDY #$80
  $E5CC  E0 A0     CPX #$A0
  $E5CE  E0 C0     CPX #$C0
  $E5D0  A0 C0     LDY #$C0
  $E5D2  A0 80     LDY #$80
  $E5D4  E0 C0     CPX #$C0
  $E5D6  A0 80     LDY #$80
  $E5D8  E0 C0     CPX #$C0
  $E5DA  E0 A0     CPX #$A0
  $E5DC  80 80     NOP #$80
  $E5DE  A0 C0     LDY #$C0
  $E5E0  E0 80     CPX #$80
  $E5E2  C0 A0     CPY #$A0
  $E5E4  E0 80     CPX #$80
  $E5E6  C0 A0     CPY #$A0
  $E5E8  E0 E0     CPX #$E0
  $E5EA  A0 C0     LDY #$C0
  $E5EC  80 E0     NOP #$E0
  $E5EE  80 C0     NOP #$C0
  $E5F0  A0 A0     LDY #$A0
  $E5F2  E0 80     CPX #$80
  $E5F4  C0 A0     CPY #$A0
  $E5F6  E0 C0     CPX #$C0
  $E5F8  A0 C0     LDY #$C0
  $E5FA  A0 80     LDY #$80
  $E5FC  E0 A0     CPX #$A0
  $E5FE  80 C0     NOP #$C0
  $E600  E0 E0     CPX #$E0
  $E602  80 C0     NOP #$C0
  $E604  A0 C0     LDY #$C0
  $E606  E0 A0     CPX #$A0
  $E608  80 C0     NOP #$C0
  $E60A  A0 80     LDY #$80
  $E60C  E0 A0     CPX #$A0
  $E60E  E0 80     CPX #$80
  $E610  C0 C0     CPY #$C0
  $E612  E0 A0     CPX #$A0
  $E614  80 A0     NOP #$A0
  $E616  E0 80     CPX #$80
  $E618  C0 C0     CPY #$C0
  $E61A  A0 80     LDY #$80
  $E61C  E0 80     CPX #$80
  $E61E  A0 C0     LDY #$C0
  $E620  E0 C0     CPX #$C0
  $E622  A0 E0     LDY #$E0
  $E624  C0 E0     CPY #$E0
  $E626  80 C0     NOP #$C0
  $E628  A0 A0     LDY #$A0
  $E62A  E0 C0     CPX #$C0
  $E62C  A0 C0     LDY #$C0
  $E62E  A0 E0     LDY #$E0
  $E630  80 C0     NOP #$C0
  $E632  A0 80     LDY #$80
  $E634  E0 C0     CPX #$C0
  $E636  A0 80     LDY #$80
  $E638  E0 C0     CPX #$C0
  $E63A  A0 80     LDY #$80
  $E63C  E0 C0     CPX #$C0
  $E63E  A0 80     LDY #$80
  $E640  E0 C0     CPX #$C0
  $E642  A0 80     LDY #$80
  $E644  E0 A0     CPX #$A0
  $E646  E0 A0     CPX #$A0
  $E648  E0 C0     CPX #$C0
  $E64A  A0 80     LDY #$80
  $E64C  E0 C0     CPX #$C0
  $E64E  A0 80     LDY #$80
  $E650  E0 C0     CPX #$C0
  $E652  A0 80     LDY #$80
  $E654  E0 C0     CPX #$C0
  $E656  A0 80     LDY #$80
  $E658  E0 A0     CPX #$A0
  $E65A  E0 A0     CPX #$A0
  $E65C  E0 C0     CPX #$C0
  $E65E  A0 80     LDY #$80
  $E660  E0 A0     CPX #$A0
  $E662  E0 A0     CPX #$A0
  $E664  E0 C0     CPX #$C0
  $E666  E0 80     CPX #$80
  $E668  A0 A0     LDY #$A0
  $E66A  E0 A0     CPX #$A0
  $E66C  E0 E0     CPX #$E0
  $E66E  A0 E0     LDY #$E0
  $E670  A0 C0     LDY #$C0
  $E672  A0 80     LDY #$80
  $E674  E0 C0     CPX #$C0
  $E676  A0 80     LDY #$80
  $E678  E0 C0     CPX #$C0
  $E67A  A0 80     LDY #$80
  $E67C  E0 E0     CPX #$E0
  $E67E  A0 E0     LDY #$E0
  $E680  A0 A0     LDY #$A0
  $E682  E0 A0     CPX #$A0
  $E684  E0 C0     CPX #$C0
  $E686  A0 80     LDY #$80
  $E688  E0 A0     CPX #$A0
  $E68A  80 C0     NOP #$C0
  $E68C  E0 A0     CPX #$A0
  $E68E  E0 A0     CPX #$A0
  $E690  E0 A0     CPX #$A0
  $E692  E0 A0     CPX #$A0
  $E694  E0 C0     CPX #$C0
  $E696  A0 80     LDY #$80
  $E698  E0 A0     CPX #$A0
  $E69A  E0 A0     CPX #$A0
  $E69C  E0 C0     CPX #$C0
  $E69E  A0 80     LDY #$80
  $E6A0  E0 A0     CPX #$A0
  $E6A2  E0 A0     CPX #$A0
  $E6A4  E0 C0     CPX #$C0
  $E6A6  A0 80     LDY #$80
  $E6A8  E0 12     CPX #$12
  $E6AA  02        ??? 
  $E6AB  00        BRK 
  $E6AC  00        BRK 
  $E6AD  10 02     BPL $E6B1
  $E6AF  00        BRK 
  $E6B0  02        ??? 
  $E6B1  05 05     ORA $05
  $E6B3  05 05     ORA $05
  $E6B5  08        PHP 
  $E6B6  05 04     ORA $04
  $E6B8  03 05     SLO ($05,X)
  $E6BA  02        ??? 
  $E6BB  08        PHP 
  $E6BC  05 03     ORA $03
  $E6BE  04 06     NOP $06
  $E6C0  07 08     SLO $08
  $E6C2  06 04     ASL $04
  $E6C4  02        ??? 
  $E6C5  07 02     SLO $02
  $E6C7  04 07     NOP $07
  $E6C9  08        PHP 
  $E6CA  06 00     ASL $00
  $E6CC  06 05     ASL $05
  $E6CE  04 06     NOP $06
  $E6D0  05 0C     ORA $0C
  $E6D2  04 00     NOP $00
  $E6D4  04 08     NOP $08
  $E6D6  08        PHP 
  $E6D7  00        BRK 
  $E6D8  04 08     NOP $08
  $E6DA  04 05     NOP $05
  $E6DC  03 08     SLO ($08,X)
  $E6DE  03 07     SLO ($07,X)
  $E6E0  02        ??? 
  $E6E1  02        ??? 
  $E6E2  00        BRK 
  $E6E3  0A        ASL 
  $E6E4  08        PHP 
  $E6E5  06 02     ASL $02
  $E6E7  08        PHP 
  $E6E8  04 02     NOP $02
  $E6EA  02        ??? 
  $E6EB  08        PHP 
  $E6EC  08        PHP 
  $E6ED  05 02     ORA $02
  $E6EF  04 09     NOP $09
  $E6F1  04 08     NOP $08
  $E6F3  04 04     NOP $04
  $E6F5  06 08     ASL $08
  $E6F7  02        ??? 
  $E6F8  04 07     NOP $07
  $E6FA  03 08     SLO ($08,X)
  $E6FC  02        ??? 
  $E6FD  09 02     ORA #$02
  $E6FF  05 04     ORA $04
  $E701  06 00     ASL $00
  $E703  04 0A     NOP $0A
  $E705  02        ??? 
  $E706  06 0C     ASL $0C
  $E708  00        BRK 
  $E709  02        ??? 
  $E70A  08        PHP 
  $E70B  00        BRK 
  $E70C  0A        ASL 
  $E70D  08        PHP 
  $E70E  08        PHP 
  $E70F  02        ??? 
  $E710  02        ??? 
  $E711  02        ??? 
  $E712  08        PHP 
  $E713  0A        ASL 
  $E714  00        BRK 
  $E715  07 04     SLO $04
  $E717  04 05     NOP $05
  $E719  0A        ASL 
  $E71A  04 00     NOP $00
  $E71C  06 02     ASL $02
  $E71E  08        PHP 
  $E71F  02        ??? 
  $E720  08        PHP 
  $E721  03 08     SLO ($08,X)
  $E723  06 03     ASL $03
  $E725  08        PHP 
  $E726  04 02     NOP $02
  $E728  06 08     ASL $08
  $E72A  04 00     NOP $00
  $E72C  08        PHP 
  $E72D  02        ??? 
  $E72E  0B        ??? 
  $E72F  07 00     SLO $00
  $E731  04 06     NOP $06
  $E733  00        BRK 
  $E734  0A        ASL 
  $E735  04 06     NOP $06
  $E737  00        BRK 
  $E738  0A        ASL 
  $E739  04 06     NOP $06
  $E73B  00        BRK 
  $E73C  0A        ASL 
  $E73D  04 06     NOP $06
  $E73F  00        BRK 
  $E740  0A        ASL 
  $E741  04 06     NOP $06
  $E743  00        BRK 
  $E744  0A        ASL 
  $E745  05 05     ORA $05
  $E747  05 05     ORA $05
  $E749  00        BRK 
  $E74A  14 00     NOP $00,X
  $E74C  00        BRK 
  $E74D  05 00     ORA $00
  $E74F  0F 00 00  SLO $0000
  $E752  0A        ASL 
  $E753  00        BRK 
  $E754  0A        ASL 
  $E755  00        BRK 
  $E756  0A        ASL 
  $E757  00        BRK 
  $E758  0A        ASL 
  $E759  05 05     ORA $05
  $E75B  05 05     ORA $05
  $E75D  02        ??? 
  $E75E  08        PHP 
  $E75F  00        BRK 
  $E760  0A        ASL 
  $E761  05 05     ORA $05
  $E763  05 05     ORA $05
  $E765  02        ??? 
  $E766  0A        ASL 
  $E767  00        BRK 
  $E768  08        PHP 
  $E769  05 05     ORA $05
  $E76B  05 05     ORA $05
  $E76D  05 05     ORA $05
  $E76F  05 05     ORA $05
  $E771  00        BRK 
  $E772  14 00     NOP $00,X
  $E774  00        BRK 
  $E775  04 06     NOP $06
  $E777  00        BRK 
  $E778  0A        ASL 
  $E779  00        BRK 
  $E77A  00        BRK 
  $E77B  00        BRK 
  $E77C  14 05     NOP $05,X
  $E77E  05 05     ORA $05
  $E780  05 05     ORA $05
  $E782  05 05     ORA $05
  $E784  05 0A     ORA $0A
  $E786  00        BRK 
  $E787  0A        ASL 
  $E788  00        BRK 
  $E789  0A        ASL 
  $E78A  00        BRK 
  $E78B  04 06     NOP $06
  $E78D  06 04     ASL $04
  $E78F  06 04     ASL $04
  $E791  07 03     SLO $03
  $E793  07 03     SLO $03
  $E795  0A        ASL 
  $E796  0A        ASL 
  $E797  00        BRK 
  $E798  00        BRK 
  $E799  06 04     ASL $04
  $E79B  06 04     ASL $04
  $E79D  00        BRK 
  $E79E  00        BRK 
  $E79F  00        BRK 
  $E7A0  14 04     NOP $04,X
  $E7A2  06 04     ASL $04
  $E7A4  06 0A     ASL $0A
  $E7A6  00        BRK 
  $E7A7  00        BRK 
  $E7A8  0A        ASL 
  $E7A9  A9 09     LDA #$09
  $E7AB  85 5A     STA $5A
  $E7AD  A6 5A     LDX $5A
  $E7AF  B5 CC     LDA $CC,X
  $E7B1  29 F0     AND #$F0
  $E7B3  C9 40     CMP #$40
  $E7B5  D0 79     BNE $E830
  $E7B7  B5 D6     LDA $D6,X
  $E7B9  D0 07     BNE $E7C2
  $E7BB  8A        TXA 
  $E7BC  45 0B     EOR $0B
  $E7BE  29 01     AND #$01
  $E7C0  F0 6E     BEQ $E830
  $E7C2  B5 CC     LDA $CC,X
  $E7C4  29 03     AND #$03
  $E7C6  A8        TAY 
  $E7C7  B9 EE EB  LDA $EBEE,Y
  $E7CA  10 05     BPL $E7D1
  $E7CC  49 FF     EOR #$FF
  $E7CE  18        CLC 
  $E7CF  69 01     ADC #$01
  $E7D1  85 54     STA $54
  $E7D3  0A        ASL 
  $E7D4  0A        ASL 
  $E7D5  85 64     STA $64
  $E7D7  B9 F2 EB  LDA $EBF2,Y
  $E7DA  10 05     BPL $E7E1
  $E7DC  49 FF     EOR #$FF
  $E7DE  18        CLC 
  $E7DF  69 01     ADC #$01
  $E7E1  85 55     STA $55
  $E7E3  0A        ASL 
  $E7E4  0A        ASL 
  $E7E5  85 65     STA $65
  $E7E7  B4 C2     LDY $C2,X
  $E7E9  B5 B8     LDA $B8,X
  $E7EB  AA        TAX 
  $E7EC  20 38 E8  JSR $E838
  $E7EF  F0 13     BEQ $E804
  $E7F1  A6 5A     LDX $5A
  $E7F3  B5 C2     LDA $C2,X
  $E7F5  18        CLC 
  $E7F6  65 64     ADC $64
  $E7F8  85 48     STA $48
  $E7FA  B5 B8     LDA $B8,X
  $E7FC  18        CLC 
  $E7FD  65 65     ADC $65
  $E7FF  85 47     STA $47
  $E801  20 3F E8  JSR $E83F
  $E804  A6 5A     LDX $5A
  $E806  B5 C2     LDA $C2,X
  $E808  38        SEC 
  $E809  E5 54     SBC $54
  $E80B  A8        TAY 
  $E80C  B5 B8     LDA $B8,X
  $E80E  38        SEC 
  $E80F  E5 55     SBC $55
  $E811  AA        TAX 
  $E812  20 38 E8  JSR $E838
  $E815  F0 19     BEQ $E830
  $E817  A6 5A     LDX $5A
  $E819  B5 C2     LDA $C2,X
  $E81B  38        SEC 
  $E81C  E5 64     SBC $64
  $E81E  38        SEC 
  $E81F  E5 54     SBC $54
  $E821  85 48     STA $48
  $E823  B5 B8     LDA $B8,X
  $E825  38        SEC 
  $E826  E5 65     SBC $65
  $E828  38        SEC 
  $E829  E5 55     SBC $55
  $E82B  85 47     STA $47
  $E82D  20 3F E8  JSR $E83F
  $E830  C6 5A     DEC $5A
  $E832  30 03     BMI $E837
  $E834  4C AD E7  JMP $E7AD
  $E837  60        RTS 
  $E838  86 47     STX $47
  $E83A  84 48     STY $48
  $E83C  20 26 D7  JSR $D726
  $E83F  20 45 D7  JSR $D745
  $E842  20 5C D7  JSR $D75C
  $E845  F0 67     BEQ $E8AE
  $E847  B1 11     LDA ($11),Y
  $E849  29 FC     AND #$FC
  $E84B  C9 C8     CMP #$C8
  $E84D  D0 1C     BNE $E86B
  $E84F  A5 68     LDA $68
  $E851  F0 18     BEQ $E86B
  $E853  A9 27     LDA #$27
  $E855  85 68     STA $68
  $E857  A9 01     LDA #$01
  $E859  8D 0B 03  STA $030B
  $E85C  8D 07 03  STA $0307
  $E85F  20 25 CA  JSR $CA25
  $E862  A6 5A     LDX $5A
  $E864  A9 33     LDA #$33
  $E866  95 CC     STA $CC,X
  $E868  4C AE E8  JMP $E8AE
  $E86B  B1 11     LDA ($11),Y
  $E86D  C9 12     CMP #$12
  $E86F  B0 3D     BCS $E8AE
  $E871  A6 5A     LDX $5A
  $E873  A9 33     LDA #$33
  $E875  95 CC     STA $CC,X
  $E877  B1 11     LDA ($11),Y
  $E879  C9 11     CMP #$11
  $E87B  F0 28     BEQ $E8A5
  $E87D  B5 D6     LDA $D6,X
  $E87F  29 02     AND #$02
  $E881  F0 0D     BEQ $E890
  $E883  A9 00     LDA #$00
  $E885  20 A4 D7  JSR $D7A4
  $E888  A9 01     LDA #$01
  $E88A  8D 0C 03  STA $030C
  $E88D  4C AE E8  JMP $E8AE
  $E890  B1 11     LDA ($11),Y
  $E892  C9 10     CMP #$10
  $E894  F0 0F     BEQ $E8A5
  $E896  E0 02     CPX #$02
  $E898  B0 05     BCS $E89F
  $E89A  A9 01     LDA #$01
  $E89C  8D 0C 03  STA $030C
  $E89F  20 63 D7  JSR $D763
  $E8A2  A9 01     LDA #$01
  $E8A4  60        RTS 
  $E8A5  E0 02     CPX #$02
  $E8A7  B0 05     BCS $E8AE
  $E8A9  A9 01     LDA #$01
  $E8AB  8D 0D 03  STA $030D
  $E8AE  A9 00     LDA #$00
  $E8B0  60        RTS 
  $E8B1  A9 01     LDA #$01
  $E8B3  85 5A     STA $5A
  $E8B5  A6 5A     LDX $5A
  $E8B7  B5 A0     LDA $A0,X
  $E8B9  10 04     BPL $E8BF
  $E8BB  C9 E0     CMP #$E0
  $E8BD  90 03     BCC $E8C2
  $E8BF  4C 1F E9  JMP $E91F
  $E8C2  A9 07     LDA #$07
  $E8C4  85 5B     STA $5B
  $E8C6  A4 5B     LDY $5B
  $E8C8  B9 CC 00  LDA $00CC,Y
  $E8CB  29 F0     AND #$F0
  $E8CD  C9 40     CMP #$40
  $E8CF  D0 46     BNE $E917
  $E8D1  B9 B8 00  LDA $00B8,Y
  $E8D4  38        SEC 
  $E8D5  F5 90     SBC $90,X
  $E8D7  10 05     BPL $E8DE
  $E8D9  49 FF     EOR #$FF
  $E8DB  18        CLC 
  $E8DC  69 01     ADC #$01
  $E8DE  C9 0A     CMP #$0A
  $E8E0  B0 35     BCS $E917
  $E8E2  B9 C2 00  LDA $00C2,Y
  $E8E5  38        SEC 
  $E8E6  F5 98     SBC $98,X
  $E8E8  10 05     BPL $E8EF
  $E8EA  49 FF     EOR #$FF
  $E8EC  18        CLC 
  $E8ED  69 01     ADC #$01
  $E8EF  C9 0A     CMP #$0A
  $E8F1  B0 24     BCS $E917
  $E8F3  A9 33     LDA #$33
  $E8F5  99 CC 00  STA $00CC,Y
  $E8F8  B5 89     LDA $89,X
  $E8FA  F0 08     BEQ $E904
  $E8FC  A9 00     LDA #$00
  $E8FE  99 CC 00  STA $00CC,Y
  $E901  4C 17 E9  JMP $E917
  $E904  A9 73     LDA #$73
  $E906  95 A0     STA $A0,X
  $E908  A9 01     LDA #$01
  $E90A  8D 07 03  STA $0307
  $E90D  A9 00     LDA #$00
  $E90F  9D 01 01  STA $0101,X
  $E912  95 A8     STA $A8,X
  $E914  4C 1F E9  JMP $E91F
  $E917  C6 5B     DEC $5B
  $E919  A5 5B     LDA $5B
  $E91B  C9 01     CMP #$01
  $E91D  D0 A7     BNE $E8C6
  $E91F  C6 5A     DEC $5A
  $E921  10 92     BPL $E8B5
  $E923  A9 07     LDA #$07
  $E925  85 5A     STA $5A
  $E927  A6 5A     LDX $5A
  $E929  B5 A0     LDA $A0,X
  $E92B  10 04     BPL $E931
  $E92D  C9 E0     CMP #$E0
  $E92F  90 03     BCC $E934
  $E931  4C D9 E9  JMP $E9D9
  $E934  A9 09     LDA #$09
  $E936  85 5B     STA $5B
  $E938  A5 5B     LDA $5B
  $E93A  29 06     AND #$06
  $E93C  F0 03     BEQ $E941
  $E93E  4C D2 E9  JMP $E9D2
  $E941  A4 5B     LDY $5B
  $E943  B9 CC 00  LDA $00CC,Y
  $E946  29 F0     AND #$F0
  $E948  C9 40     CMP #$40
  $E94A  F0 03     BEQ $E94F
  $E94C  4C D2 E9  JMP $E9D2
  $E94F  B9 B8 00  LDA $00B8,Y
  $E952  38        SEC 
  $E953  F5 90     SBC $90,X
  $E955  10 05     BPL $E95C
  $E957  49 FF     EOR #$FF
  $E959  18        CLC 
  $E95A  69 01     ADC #$01
  $E95C  C9 0A     CMP #$0A
  $E95E  B0 72     BCS $E9D2
  $E960  B9 C2 00  LDA $00C2,Y
  $E963  38        SEC 
  $E964  F5 98     SBC $98,X
  $E966  10 05     BPL $E96D
  $E968  49 FF     EOR #$FF
  $E96A  18        CLC 
  $E96B  69 01     ADC #$01
  $E96D  C9 0A     CMP #$0A
  $E96F  B0 61     BCS $E9D2
  $E971  A9 33     LDA #$33
  $E973  99 CC 00  STA $00CC,Y
  $E976  B5 A8     LDA $A8,X
  $E978  29 04     AND #$04
  $E97A  F0 0B     BEQ $E987
  $E97C  20 63 EA  JSR $EA63
  $E97F  B5 A8     LDA $A8,X
  $E981  C9 E4     CMP #$E4
  $E983  D0 02     BNE $E987
  $E985  D6 A8     DEC $A8,X
  $E987  B5 A8     LDA $A8,X
  $E989  29 03     AND #$03
  $E98B  F0 0A     BEQ $E997
  $E98D  D6 A8     DEC $A8,X
  $E98F  A9 01     LDA #$01
  $E991  8D 0E 03  STA $030E
  $E994  4C D2 E9  JMP $E9D2
  $E997  A9 73     LDA #$73
  $E999  95 A0     STA $A0,X
  $E99B  A9 01     LDA #$01
  $E99D  8D 0A 03  STA $030A
  $E9A0  B5 A8     LDA $A8,X
  $E9A2  4A        LSR 
  $E9A3  4A        LSR 
  $E9A4  4A        LSR 
  $E9A5  4A        LSR 
  $E9A6  4A        LSR 
  $E9A7  38        SEC 
  $E9A8  E9 04     SBC #$04
  $E9AA  AA        TAX 
  $E9AB  A5 5B     LDA $5B
  $E9AD  29 01     AND #$01
  $E9AF  85 47     STA $47
  $E9B1  D0 05     BNE $E9B8
  $E9B3  F6 73     INC $73,X
  $E9B5  4C BA E9  JMP $E9BA
  $E9B8  F6 77     INC $77,X
  $E9BA  A5 46     LDA $46
  $E9BC  C9 02     CMP #$02
  $E9BE  F0 19     BEQ $E9D9
  $E9C0  BD 5F EA  LDA $EA5F,X
  $E9C3  20 62 DA  JSR $DA62
  $E9C6  A5 47     LDA $47
  $E9C8  AA        TAX 
  $E9C9  20 31 DA  JSR $DA31
  $E9CC  20 44 CF  JSR $CF44
  $E9CF  4C D9 E9  JMP $E9D9
  $E9D2  C6 5B     DEC $5B
  $E9D4  30 03     BMI $E9D9
  $E9D6  4C 38 E9  JMP $E938
  $E9D9  C6 5A     DEC $5A
  $E9DB  A5 5A     LDA $5A
  $E9DD  C9 01     CMP #$01
  $E9DF  F0 03     BEQ $E9E4
  $E9E1  4C 27 E9  JMP $E927
  $E9E4  A9 01     LDA #$01
  $E9E6  85 5A     STA $5A
  $E9E8  A6 5A     LDX $5A
  $E9EA  B5 A0     LDA $A0,X
  $E9EC  10 04     BPL $E9F2
  $E9EE  C9 E0     CMP #$E0
  $E9F0  90 03     BCC $E9F5
  $E9F2  4C 5A EA  JMP $EA5A
  $E9F5  A9 09     LDA #$09
  $E9F7  85 5B     STA $5B
  $E9F9  A5 5B     LDA $5B
  $E9FB  29 06     AND #$06
  $E9FD  D0 57     BNE $EA56
  $E9FF  A4 5B     LDY $5B
  $EA01  B9 CC 00  LDA $00CC,Y
  $EA04  29 F0     AND #$F0
  $EA06  C9 40     CMP #$40
  $EA08  D0 4C     BNE $EA56
  $EA0A  A5 5A     LDA $5A
  $EA0C  45 5B     EOR $5B
  $EA0E  29 01     AND #$01
  $EA10  F0 44     BEQ $EA56
  $EA12  B9 B8 00  LDA $00B8,Y
  $EA15  38        SEC 
  $EA16  F5 90     SBC $90,X
  $EA18  10 05     BPL $EA1F
  $EA1A  49 FF     EOR #$FF
  $EA1C  18        CLC 
  $EA1D  69 01     ADC #$01
  $EA1F  C9 0A     CMP #$0A
  $EA21  B0 33     BCS $EA56
  $EA23  B9 C2 00  LDA $00C2,Y
  $EA26  38        SEC 
  $EA27  F5 98     SBC $98,X
  $EA29  10 05     BPL $EA30
  $EA2B  49 FF     EOR #$FF
  $EA2D  18        CLC 
  $EA2E  69 01     ADC #$01
  $EA30  C9 0A     CMP #$0A
  $EA32  B0 22     BCS $EA56
  $EA34  A9 33     LDA #$33
  $EA36  99 CC 00  STA $00CC,Y
  $EA39  B5 89     LDA $89,X
  $EA3B  F0 08     BEQ $EA45
  $EA3D  A9 00     LDA #$00
  $EA3F  99 CC 00  STA $00CC,Y
  $EA42  4C 56 EA  JMP $EA56
  $EA45  B5 6F     LDA $6F,X
  $EA47  D0 0D     BNE $EA56
  $EA49  A5 46     LDA $46
  $EA4B  C9 02     CMP #$02
  $EA4D  F0 07     BEQ $EA56
  $EA4F  A9 C8     LDA #$C8
  $EA51  95 6F     STA $6F,X
  $EA53  4C 5A EA  JMP $EA5A
  $EA56  C6 5B     DEC $5B
  $EA58  10 9F     BPL $E9F9
  $EA5A  C6 5A     DEC $5A
  $EA5C  10 8A     BPL $E9E8
  $EA5E  60        RTS 
  $EA5F  10 20     BPL $EA81
  $EA61  30 40     BMI $EAA3
  $EA63  A9 01     LDA #$01
  $EA65  8D 09 03  STA $0309
  $EA68  20 7C D3  JSR $D37C
  $EA6B  29 03     AND #$03
  $EA6D  20 A7 EA  JSR $EAA7
  $EA70  85 86     STA $86
  $EA72  20 7C D3  JSR $D37C
  $EA75  29 03     AND #$03
  $EA77  20 A7 EA  JSR $EAA7
  $EA7A  85 87     STA $87
  $EA7C  A9 FF     LDA #$FF
  $EA7E  85 88     STA $88
  $EA80  A9 00     LDA #$00
  $EA82  85 62     STA $62
  $EA84  20 17 EB  JSR $EB17
  $EA87  A5 62     LDA $62
  $EA89  D0 DD     BNE $EA68
  $EA8B  20 7C D3  JSR $D37C
  $EA8E  29 07     AND #$07
  $EA90  A8        TAY 
  $EA91  B9 9F EA  LDA $EA9F,Y
  $EA94  85 88     STA $88
  $EA96  A9 00     LDA #$00
  $EA98  85 62     STA $62
  $EA9A  A6 5A     LDX $5A
  $EA9C  A4 5B     LDY $5B
  $EA9E  60        RTS 
  $EA9F  00        BRK 
  $EAA0  01 02     ORA ($02,X)
  $EAA2  03 04     SLO ($04,X)
  $EAA4  00        BRK 
  $EAA5  04 03     NOP $03
  $EAA7  85 00     STA $00
  $EAA9  0A        ASL 
  $EAAA  18        CLC 
  $EAAB  65 00     ADC $00
  $EAAD  0A        ASL 
  $EAAE  18        CLC 
  $EAAF  69 06     ADC #$06
  $EAB1  0A        ASL 
  $EAB2  0A        ASL 
  $EAB3  0A        ASL 
  $EAB4  60        RTS 
  $EAB5  A9 09     LDA #$09
  $EAB7  85 5A     STA $5A
  $EAB9  A5 5A     LDA $5A
  $EABB  29 06     AND #$06
  $EABD  D0 53     BNE $EB12
  $EABF  A6 5A     LDX $5A
  $EAC1  B5 CC     LDA $CC,X
  $EAC3  29 F0     AND #$F0
  $EAC5  C9 40     CMP #$40
  $EAC7  D0 49     BNE $EB12
  $EAC9  A9 09     LDA #$09
  $EACB  85 5B     STA $5B
  $EACD  A5 5B     LDA $5B
  $EACF  A8        TAY 
  $EAD0  29 07     AND #$07
  $EAD2  85 00     STA $00
  $EAD4  A5 5A     LDA $5A
  $EAD6  29 07     AND #$07
  $EAD8  C5 00     CMP $00
  $EADA  F0 32     BEQ $EB0E
  $EADC  B9 CC 00  LDA $00CC,Y
  $EADF  29 F0     AND #$F0
  $EAE1  C9 40     CMP #$40
  $EAE3  D0 29     BNE $EB0E
  $EAE5  B9 B8 00  LDA $00B8,Y
  $EAE8  38        SEC 
  $EAE9  F5 B8     SBC $B8,X
  $EAEB  10 05     BPL $EAF2
  $EAED  49 FF     EOR #$FF
  $EAEF  18        CLC 
  $EAF0  69 01     ADC #$01
  $EAF2  C9 06     CMP #$06
  $EAF4  B0 18     BCS $EB0E
  $EAF6  B9 C2 00  LDA $00C2,Y
  $EAF9  38        SEC 
  $EAFA  F5 C2     SBC $C2,X
  $EAFC  10 05     BPL $EB03
  $EAFE  49 FF     EOR #$FF
  $EB00  18        CLC 
  $EB01  69 01     ADC #$01
  $EB03  C9 06     CMP #$06
  $EB05  B0 07     BCS $EB0E
  $EB07  A9 00     LDA #$00
  $EB09  95 CC     STA $CC,X
  $EB0B  99 CC 00  STA $00CC,Y
  $EB0E  C6 5B     DEC $5B
  $EB10  10 BB     BPL $EACD
  $EB12  C6 5A     DEC $5A
  $EB14  10 A3     BPL $EAB9
  $EB16  60        RTS 
  $EB17  A5 86     LDA $86
  $EB19  F0 6B     BEQ $EB86
  $EB1B  A5 62     LDA $62
  $EB1D  D0 67     BNE $EB86
  $EB1F  A9 01     LDA #$01
  $EB21  85 49     STA $49
  $EB23  A6 49     LDX $49
  $EB25  B5 A0     LDA $A0,X
  $EB27  10 59     BPL $EB82
  $EB29  C9 E0     CMP #$E0
  $EB2B  B0 55     BCS $EB82
  $EB2D  B5 90     LDA $90,X
  $EB2F  38        SEC 
  $EB30  E5 86     SBC $86
  $EB32  10 05     BPL $EB39
  $EB34  49 FF     EOR #$FF
  $EB36  18        CLC 
  $EB37  69 01     ADC #$01
  $EB39  C9 0C     CMP #$0C
  $EB3B  B0 45     BCS $EB82
  $EB3D  B5 98     LDA $98,X
  $EB3F  38        SEC 
  $EB40  E5 87     SBC $87
  $EB42  10 05     BPL $EB49
  $EB44  49 FF     EOR #$FF
  $EB46  18        CLC 
  $EB47  69 01     ADC #$01
  $EB49  C9 0C     CMP #$0C
  $EB4B  B0 35     BCS $EB82
  $EB4D  A9 32     LDA #$32
  $EB4F  85 62     STA $62
  $EB51  A5 88     LDA $88
  $EB53  30 31     BMI $EB86
  $EB55  A5 46     LDA $46
  $EB57  C9 02     CMP #$02
  $EB59  F0 14     BEQ $EB6F
  $EB5B  A9 50     LDA #$50
  $EB5D  20 62 DA  JSR $DA62
  $EB60  A6 49     LDX $49
  $EB62  20 31 DA  JSR $DA31
  $EB65  20 44 CF  JSR $CF44
  $EB68  A6 49     LDX $49
  $EB6A  A9 01     LDA #$01
  $EB6C  8D 06 03  STA $0306
  $EB6F  A5 88     LDA $88
  $EB71  0A        ASL 
  $EB72  A8        TAY 
  $EB73  B9 87 EB  LDA $EB87,Y
  $EB76  85 11     STA $11
  $EB78  B9 88 EB  LDA $EB88,Y
  $EB7B  85 12     STA $12
  $EB7D  68        PLA 
  $EB7E  68        PLA 
  $EB7F  6C 11 00  JMP ($0011)
  $EB82  C6 49     DEC $49
  $EB84  10 9D     BPL $EB23
  $EB86  60        RTS 
  $EB87  95 EB     STA $EB,X
  $EB89  9A        TXS 
  $EB8A  EB        ??? 
  $EB8B  A0 EB     LDY #$EB
  $EB8D  AC EB BC  LDY $BCEB
  $EB90  EB        ??? 
  $EB91  E3 EB     ISC ($EB,X)
  $EB93  ED EB A9  SBC $A9EB
  $EB96  0A        ASL 
  $EB97  95 89     STA $89,X
  $EB99  60        RTS 
  $EB9A  A9 0A     LDA #$0A
  $EB9C  8D 00 01  STA $0100
  $EB9F  60        RTS 
  $EBA0  A5 68     LDA $68
  $EBA2  10 07     BPL $EBAB
  $EBA4  20 BB C9  JSR $C9BB
  $EBA7  A9 14     LDA #$14
  $EBA9  85 45     STA $45
  $EBAB  60        RTS 
  $EBAC  BD 01 01  LDA $0101,X
  $EBAF  C9 60     CMP #$60
  $EBB1  F0 08     BEQ $EBBB
  $EBB3  18        CLC 
  $EBB4  69 20     ADC #$20
  $EBB6  9D 01 01  STA $0101,X
  $EBB9  95 A8     STA $A8,X
  $EBBB  60        RTS 
  $EBBC  A9 07     LDA #$07
  $EBBE  85 5A     STA $5A
  $EBC0  A9 01     LDA #$01
  $EBC2  8D 0A 03  STA $030A
  $EBC5  A4 5A     LDY $5A
  $EBC7  B9 A0 00  LDA $00A0,Y
  $EBCA  10 0E     BPL $EBDA
  $EBCC  C9 E0     CMP #$E0
  $EBCE  B0 0A     BCS $EBDA
  $EBD0  A9 73     LDA #$73
  $EBD2  99 A0 00  STA $00A0,Y
  $EBD5  A9 00     LDA #$00
  $EBD7  99 A8 00  STA $00A8,Y
  $EBDA  C6 5A     DEC $5A
  $EBDC  A5 5A     LDA $5A
  $EBDE  C9 01     CMP #$01
  $EBE0  D0 E3     BNE $EBC5
  $EBE2  60        RTS 
  $EBE3  F6 51     INC $51,X
  $EBE5  A9 01     LDA #$01
  $EBE7  8D 04 03  STA $0304
  $EBEA  8D 05 03  STA $0305
  $EBED  60        RTS 
  $EBEE  00        BRK 
  $EBEF  FF 00 01  ISC $0100,X
  $EBF2  FF 00 01  ISC $0100,X
  $EBF5  00        BRK 
  $EBF6  A9 0F     LDA #$0F
  $EBF8  8D 15 40  STA $4015
  $EBFB  A9 C0     LDA #$C0
  $EBFD  8D 17 40  STA $4017
  $EC00  A9 1C     LDA #$1C
  $EC02  85 F0     STA $F0
  $EC04  A9 03     LDA #$03
  $EC06  85 F1     STA $F1
  $EC08  A2 00     LDX #$00
  $EC0A  A0 00     LDY #$00
  $EC0C  98        TYA 
  $EC0D  91 F0     STA ($F0),Y
  $EC0F  9D 00 03  STA $0300,X
  $EC12  18        CLC 
  $EC13  A5 F0     LDA $F0
  $EC15  69 08     ADC #$08
  $EC17  85 F0     STA $F0
  $EC19  90 02     BCC $EC1D
  $EC1B  E6 F1     INC $F1
  $EC1D  E8        INX 
  $EC1E  E0 1C     CPX #$1C
  $EC20  D0 EA     BNE $EC0C
  $EC22  60        RTS 
  $EC23  A5 6D     LDA $6D
  $EC25  D0 06     BNE $EC2D
  $EC27  A9 1C     LDA #$1C
  $EC29  85 F5     STA $F5
  $EC2B  10 04     BPL $EC31
  $EC2D  A9 01     LDA #$01
  $EC2F  85 F5     STA $F5
  $EC31  A9 00     LDA #$00
  $EC33  A2 03     LDX #$03
  $EC35  95 F9     STA $F9,X
  $EC37  CA        DEX 
  $EC38  10 FB     BPL $EC35
  $EC3A  A9 00     LDA #$00
  $EC3C  85 F4     STA $F4
  $EC3E  A9 1C     LDA #$1C
  $EC40  85 F0     STA $F0
  $EC42  A9 03     LDA #$03
  $EC44  85 F1     STA $F1
  $EC46  A6 F4     LDX $F4
  $EC48  BD 00 03  LDA $0300,X
  $EC4B  F0 3B     BEQ $EC88
  $EC4D  A0 00     LDY #$00
  $EC4F  B1 F0     LDA ($F0),Y
  $EC51  F0 35     BEQ $EC88
  $EC53  C9 05     CMP #$05
  $EC55  90 0B     BCC $EC62
  $EC57  38        SEC 
  $EC58  E9 05     SBC #$05
  $EC5A  AA        TAX 
  $EC5B  A9 01     LDA #$01
  $EC5D  95 F9     STA $F9,X
  $EC5F  4C 88 EC  JMP $EC88
  $EC62  AA        TAX 
  $EC63  CA        DEX 
  $EC64  B5 F9     LDA $F9,X
  $EC66  D0 20     BNE $EC88
  $EC68  A9 01     LDA #$01
  $EC6A  95 F9     STA $F9,X
  $EC6C  8A        TXA 
  $EC6D  A8        TAY 
  $EC6E  18        CLC 
  $EC6F  69 05     ADC #$05
  $EC71  A0 00     LDY #$00
  $EC73  91 F0     STA ($F0),Y
  $EC75  8A        TXA 
  $EC76  0A        ASL 
  $EC77  0A        ASL 
  $EC78  AA        TAX 
  $EC79  A9 04     LDA #$04
  $EC7B  85 FD     STA $FD
  $EC7D  C8        INY 
  $EC7E  B1 F0     LDA ($F0),Y
  $EC80  9D 00 40  STA $4000,X
  $EC83  E8        INX 
  $EC84  C6 FD     DEC $FD
  $EC86  D0 F5     BNE $EC7D
  $EC88  18        CLC 
  $EC89  A5 F0     LDA $F0
  $EC8B  69 08     ADC #$08
  $EC8D  85 F0     STA $F0
  $EC8F  90 02     BCC $EC93
  $EC91  E6 F1     INC $F1
  $EC93  E6 F4     INC $F4
  $EC95  A5 F4     LDA $F4
  $EC97  C5 F5     CMP $F5
  $EC99  90 AB     BCC $EC46
  $EC9B  A2 00     LDX #$00
  $EC9D  86 FD     STX $FD
  $EC9F  B5 F9     LDA $F9,X
  $ECA1  D0 0C     BNE $ECAF
  $ECA3  8A        TXA 
  $ECA4  0A        ASL 
  $ECA5  0A        ASL 
  $ECA6  AA        TAX 
  $ECA7  0A        ASL 
  $ECA8  29 10     AND #$10
  $ECAA  49 10     EOR #$10
  $ECAC  9D 00 40  STA $4000,X
  $ECAF  A6 FD     LDX $FD
  $ECB1  E8        INX 
  $ECB2  E0 04     CPX #$04
  $ECB4  90 E7     BCC $EC9D
  $ECB6  A0 00     LDY #$00
  $ECB8  84 F4     STY $F4
  $ECBA  A9 1C     LDA #$1C
  $ECBC  85 F0     STA $F0
  $ECBE  A9 03     LDA #$03
  $ECC0  85 F1     STA $F1
  $ECC2  A6 F4     LDX $F4
  $ECC4  BD 00 03  LDA $0300,X
  $ECC7  F0 0A     BEQ $ECD3
  $ECC9  C9 01     CMP #$01
  $ECCB  D0 1A     BNE $ECE7
  $ECCD  FE 00 03  INC $0300,X
  $ECD0  4C F4 EC  JMP $ECF4
  $ECD3  18        CLC 
  $ECD4  A5 F0     LDA $F0
  $ECD6  69 08     ADC #$08
  $ECD8  85 F0     STA $F0
  $ECDA  90 02     BCC $ECDE
  $ECDC  E6 F1     INC $F1
  $ECDE  E6 F4     INC $F4
  $ECE0  A5 F4     LDA $F4
  $ECE2  C5 F5     CMP $F5
  $ECE4  90 DC     BCC $ECC2
  $ECE6  60        RTS 
  $ECE7  A0 07     LDY #$07
  $ECE9  B1 F0     LDA ($F0),Y
  $ECEB  38        SEC 
  $ECEC  E9 01     SBC #$01
  $ECEE  91 F0     STA ($F0),Y
  $ECF0  F0 38     BEQ $ED2A
  $ECF2  D0 DF     BNE $ECD3
  $ECF4  A9 00     LDA #$00
  $ECF6  A0 05     LDY #$05
  $ECF8  91 F0     STA ($F0),Y
  $ECFA  20 54 EE  JSR $EE54
  $ECFD  20 63 EE  JSR $EE63
  $ED00  A0 00     LDY #$00
  $ED02  91 F0     STA ($F0),Y
  $ED04  20 63 EE  JSR $EE63
  $ED07  A0 01     LDY #$01
  $ED09  91 F0     STA ($F0),Y
  $ED0B  20 63 EE  JSR $EE63
  $ED0E  A0 02     LDY #$02
  $ED10  91 F0     STA ($F0),Y
  $ED12  20 63 EE  JSR $EE63
  $ED15  A0 04     LDY #$04
  $ED17  91 F0     STA ($F0),Y
  $ED19  A0 00     LDY #$00
  $ED1B  B1 F0     LDA ($F0),Y
  $ED1D  C9 04     CMP #$04
  $ED1F  D0 0C     BNE $ED2D
  $ED21  20 63 EE  JSR $EE63
  $ED24  A0 03     LDY #$03
  $ED26  91 F0     STA ($F0),Y
  $ED28  10 03     BPL $ED2D
  $ED2A  20 54 EE  JSR $EE54
  $ED2D  20 63 EE  JSR $EE63
  $ED30  C9 E8     CMP #$E8
  $ED32  B0 52     BCS $ED86
  $ED34  C9 60     CMP #$60
  $ED36  F0 44     BEQ $ED7C
  $ED38  90 09     BCC $ED43
  $ED3A  E9 60     SBC #$60
  $ED3C  A0 06     LDY #$06
  $ED3E  91 F0     STA ($F0),Y
  $ED40  4C 2D ED  JMP $ED2D
  $ED43  48        PHA 
  $ED44  29 F8     AND #$F8
  $ED46  4A        LSR 
  $ED47  4A        LSR 
  $ED48  AA        TAX 
  $ED49  BD 8B EE  LDA $EE8B,X
  $ED4C  85 FD     STA $FD
  $ED4E  BD 8C EE  LDA $EE8C,X
  $ED51  85 FE     STA $FE
  $ED53  68        PLA 
  $ED54  29 07     AND #$07
  $ED56  F0 08     BEQ $ED60
  $ED58  AA        TAX 
  $ED59  46 FD     LSR $FD
  $ED5B  66 FE     ROR $FE
  $ED5D  CA        DEX 
  $ED5E  D0 F9     BNE $ED59
  $ED60  A0 04     LDY #$04
  $ED62  B1 F0     LDA ($F0),Y
  $ED64  29 F8     AND #$F8
  $ED66  05 FD     ORA $FD
  $ED68  91 F0     STA ($F0),Y
  $ED6A  A5 FE     LDA $FE
  $ED6C  88        DEY 
  $ED6D  91 F0     STA ($F0),Y
  $ED6F  A0 00     LDY #$00
  $ED71  B1 F0     LDA ($F0),Y
  $ED73  C9 05     CMP #$05
  $ED75  90 05     BCC $ED7C
  $ED77  38        SEC 
  $ED78  E9 04     SBC #$04
  $ED7A  91 F0     STA ($F0),Y
  $ED7C  A0 06     LDY #$06
  $ED7E  B1 F0     LDA ($F0),Y
  $ED80  C8        INY 
  $ED81  91 F0     STA ($F0),Y
  $ED83  4C D3 EC  JMP $ECD3
  $ED86  E9 E8     SBC #$E8
  $ED88  20 75 EE  JSR $EE75
  $ED8B  AF ED C6  LAX $C6ED
  $ED8E  ED D8 ED  SBC $EDD8
  $ED91  EA        NOP 
  $ED92  ED FC ED  SBC $EDFC
  $ED95  06 EE     ASL $EE
  $ED97  10 EE     BPL $ED87
  $ED99  1A        NOP 
  $ED9A  EE 26 EE  INC $EE26
  $ED9D  2A        ROL 
  $ED9E  EE 2D EE  INC $EE2D
  $EDA1  3E EE 3E  ROL $3EEE,X
  $EDA4  EE 3E EE  INC $EE3E
  $EDA7  3E EE 3E  ROL $3EEE,X
  $EDAA  EE 3E EE  INC $EE3E
  $EDAD  4A        LSR 
  $EDAE  EE A6 F4  INC $F4A6
  $EDB1  A9 00     LDA #$00
  $EDB3  9D 00 03  STA $0300,X
  $EDB6  A0 00     LDY #$00
  $EDB8  91 F0     STA ($F0),Y
  $EDBA  A0 05     LDY #$05
  $EDBC  B1 F0     LDA ($F0),Y
  $EDBE  38        SEC 
  $EDBF  E9 01     SBC #$01
  $EDC1  91 F0     STA ($F0),Y
  $EDC3  4C D3 EC  JMP $ECD3
  $EDC6  20 63 EE  JSR $EE63
  $EDC9  85 FD     STA $FD
  $EDCB  A0 01     LDY #$01
  $EDCD  B1 F0     LDA ($F0),Y
  $EDCF  29 3F     AND #$3F
  $EDD1  05 FD     ORA $FD
  $EDD3  91 F0     STA ($F0),Y
  $EDD5  4C 2D ED  JMP $ED2D
  $EDD8  20 63 EE  JSR $EE63
  $EDDB  85 FD     STA $FD
  $EDDD  A0 01     LDY #$01
  $EDDF  B1 F0     LDA ($F0),Y
  $EDE1  29 C0     AND #$C0
  $EDE3  05 FD     ORA $FD
  $EDE5  91 F0     STA ($F0),Y
  $EDE7  4C 2D ED  JMP $ED2D
  $EDEA  20 63 EE  JSR $EE63
  $EDED  85 FD     STA $FD
  $EDEF  A0 01     LDY #$01
  $EDF1  B1 F0     LDA ($F0),Y
  $EDF3  29 F0     AND #$F0
  $EDF5  05 FD     ORA $FD
  $EDF7  91 F0     STA ($F0),Y
  $EDF9  4C 2D ED  JMP $ED2D
  $EDFC  20 63 EE  JSR $EE63
  $EDFF  A0 02     LDY #$02
  $EE01  91 F0     STA ($F0),Y
  $EE03  4C 2D ED  JMP $ED2D
  $EE06  20 63 EE  JSR $EE63
  $EE09  A0 04     LDY #$04
  $EE0B  91 F0     STA ($F0),Y
  $EE0D  4C 2D ED  JMP $ED2D
  $EE10  20 63 EE  JSR $EE63
  $EE13  A0 01     LDY #$01
  $EE15  91 F0     STA ($F0),Y
  $EE17  4C 2D ED  JMP $ED2D
  $EE1A  A9 00     LDA #$00
  $EE1C  A2 02     LDX #$02
  $EE1E  95 F6     STA $F6,X
  $EE20  CA        DEX 
  $EE21  10 FB     BPL $EE1E
  $EE23  4C 2D ED  JMP $ED2D
  $EE26  A2 00     LDX #$00
  $EE28  F0 05     BEQ $EE2F
  $EE2A  A2 01     LDX #$01
  $EE2C  2C A2 02  BIT $02A2
  $EE2F  20 63 EE  JSR $EE63
  $EE32  F6 F6     INC $F6,X
  $EE34  D5 F6     CMP $F6,X
  $EE36  D0 12     BNE $EE4A
  $EE38  A9 00     LDA #$00
  $EE3A  95 F6     STA $F6,X
  $EE3C  F0 00     BEQ $EE3E
  $EE3E  A0 05     LDY #$05
  $EE40  B1 F0     LDA ($F0),Y
  $EE42  18        CLC 
  $EE43  69 01     ADC #$01
  $EE45  91 F0     STA ($F0),Y
  $EE47  4C 2D ED  JMP $ED2D
  $EE4A  20 63 EE  JSR $EE63
  $EE4D  A0 05     LDY #$05
  $EE4F  91 F0     STA ($F0),Y
  $EE51  4C 2D ED  JMP $ED2D
  $EE54  A5 F4     LDA $F4
  $EE56  0A        ASL 
  $EE57  AA        TAX 
  $EE58  BD A3 EE  LDA $EEA3,X
  $EE5B  85 F2     STA $F2
  $EE5D  BD A4 EE  LDA $EEA4,X
  $EE60  85 F3     STA $F3
  $EE62  60        RTS 
  $EE63  A5 F4     LDA $F4
  $EE65  A0 05     LDY #$05
  $EE67  B1 F0     LDA ($F0),Y
  $EE69  A8        TAY 
  $EE6A  B1 F2     LDA ($F2),Y
  $EE6C  48        PHA 
  $EE6D  C8        INY 
  $EE6E  98        TYA 
  $EE6F  A0 05     LDY #$05
  $EE71  91 F0     STA ($F0),Y
  $EE73  68        PLA 
  $EE74  60        RTS 
  $EE75  0A        ASL 
  $EE76  A8        TAY 
  $EE77  C8        INY 
  $EE78  68        PLA 
  $EE79  85 FD     STA $FD
  $EE7B  68        PLA 
  $EE7C  85 FE     STA $FE
  $EE7E  B1 FD     LDA ($FD),Y
  $EE80  AA        TAX 
  $EE81  C8        INY 
  $EE82  B1 FD     LDA ($FD),Y
  $EE84  85 FE     STA $FE
  $EE86  86 FD     STX $FD
  $EE88  6C FD 00  JMP ($00FD)
  $EE8B  07 F2     SLO $F2
  $EE8D  07 80     SLO $80
  $EE8F  07 14     SLO $14
  $EE91  06 AE     ASL $AE
  $EE93  06 43     ASL $43
  $EE95  05 F4     ORA $F4
  $EE97  05 9E     ORA $9E
  $EE99  05 4E     ORA $4E
  $EE9B  05 02     ORA $02
  $EE9D  04 BA     NOP $BA
  $EE9F  04 76     NOP $76
  $EEA1  04 36     NOP $36
  $EEA3  D1 EF     CMP ($EF),Y
  $EEA5  DB EE 02  DCP $02EE,Y
  $EEA8  EF 2D EF  ISC $EF2D
  $EEAB  44 F0     NOP $F0
  $EEAD  53 F0     SRE ($F0),Y
  $EEAF  BE EF 58  LDX $58EF,Y
  $EEB2  EF 7A EF  ISC $EF7A
  $EEB5  ED EF A8  SBC $A8EF
  $EEB8  EF 99 EF  ISC $EF99
  $EEBB  03 F0     SLO ($F0,X)
  $EEBD  FB EF 0C  ISC $0CEF,Y
  $EEC0  F0 B7     BEQ $EE79
  $EEC2  EF 3A F0  ISC $F03A
  $EEC5  31 F0     AND ($F0),Y
  $EEC7  27 F0     RLA $F0
  $EEC9  18        CLC 
  $EECA  F0 1F     BEQ $EEEB
  $EECC  F0 66     BEQ $EF34
  $EECE  F0 84     BEQ $EE54
  $EED0  F0 AF     BEQ $EE81
  $EED2  F0 E1     BEQ $EEB5
  $EED4  F0 F4     BEQ $EECA
  $EED6  F0 07     BEQ $EEDF
  $EED8  F1 DF     SBC ($DF),Y
  $EEDA  EF 01 81  ISC $8101
  $EEDD  7F 40 EF  RRA $EF40,X
  $EEE0  68        PLA 
  $EEE1  1B 2B 33  SLO $332B,Y
  $EEE4  F0 02     BEQ $EEE8
  $EEE6  06 33     ASL $33
  $EEE8  43 53     SRE ($53,X)
  $EEEA  F0 02     BEQ $EEEE
  $EEEC  0C 43 53  NOP $5343
  $EEEF  04 F0     NOP $F0
  $EEF1  02        ??? 
  $EEF2  12        ??? 
  $EEF3  5B 0C 1C  SRE $1C0C,Y
  $EEF6  F0 02     BEQ $EEFA
  $EEF8  18        CLC 
  $EEF9  78        SEI 
  $EEFA  1C 68 1C  NOP $1C68,X
  $EEFD  1C 1C 78  NOP $781C,X
  $EF00  1C E8 03  NOP $03E8,X
  $EF03  10 7F     BPL $EF84
  $EF05  08        PHP 
  $EF06  78        SEI 
  $EF07  1A        NOP 
  $EF08  68        PLA 
  $EF09  1A        NOP 
  $EF0A  F1 03     SBC ($03),Y
  $EF0C  07 78     SLO $78
  $EF0E  32        ??? 
  $EF0F  68        PLA 
  $EF10  32        ??? 
  $EF11  F1 03     SBC ($03),Y
  $EF13  0E 78 42  ASL $4278
  $EF16  68        PLA 
  $EF17  42        ??? 
  $EF18  F1 03     SBC ($03),Y
  $EF1A  15 5A     ORA $5A,X
  $EF1C  F1 03     SBC ($03),Y
  $EF1E  19 0B F1  ORA $F10B,Y
  $EF21  03 1D     SLO ($1D,X)
  $EF23  78        SEI 
  $EF24  52        ??? 
  $EF25  68        PLA 
  $EF26  52        ??? 
  $EF27  F1 03     SBC ($03),Y
  $EF29  24 78     BIT $78
  $EF2B  52        ??? 
  $EF2C  E8        INX 
  $EF2D  02        ??? 
  $EF2E  81 7F     STA ($7F,X)
  $EF30  40        RTI 
  $EF31  78        SEI 
  $EF32  51 68     EOR ($68),Y
  $EF34  51 F2     EOR ($F2),Y
  $EF36  03 07     SLO ($07,X)
  $EF38  78        SEI 
  $EF39  0A        ASL 
  $EF3A  68        PLA 
  $EF3B  0A        ASL 
  $EF3C  F2        ??? 
  $EF3D  03 0E     SLO ($0E,X)
  $EF3F  78        SEI 
  $EF40  1A        NOP 
  $EF41  68        PLA 
  $EF42  1A        NOP 
  $EF43  F2        ??? 
  $EF44  03 15     SLO ($15,X)
  $EF46  32        ??? 
  $EF47  F2        ??? 
  $EF48  03 19     SLO ($19,X)
  $EF4A  42        ??? 
  $EF4B  F2        ??? 
  $EF4C  03 1D     SLO ($1D,X)
  $EF4E  78        SEI 
  $EF4F  3A        NOP 
  $EF50  68        PLA 
  $EF51  3A        NOP 
  $EF52  F2        ??? 
  $EF53  03 24     SLO ($24,X)
  $EF55  78        SEI 
  $EF56  3A        NOP 
  $EF57  E8        INX 
  $EF58  04 1F     NOP $1F
  $EF5A  7F 30 0A  RRA $0A30,X
  $EF5D  62        ??? 
  $EF5E  49 49     EOR #$49
  $EF60  EA        NOP 
  $EF61  1E 49 49  ASL $4949,X
  $EF64  EA        NOP 
  $EF65  1D 49 49  ORA $4949,X
  $EF68  EA        NOP 
  $EF69  1C 49 49  NOP $4949,X
  $EF6C  EA        NOP 
  $EF6D  1B 49 49  SLO $4949,Y
  $EF70  EA        NOP 
  $EF71  1A        NOP 
  $EF72  49 EA     EOR #$EA
  $EF74  19 49 EA  ORA $EA49,Y
  $EF77  18        CLC 
  $EF78  49 E8     EOR #$E8
  $EF7A  02        ??? 
  $EF7B  1F 7F 30  SLO $307F,X
  $EF7E  62        ??? 
  $EF7F  00        BRK 
  $EF80  01 00     ORA ($00,X)
  $EF82  EA        NOP 
  $EF83  1E 01 00  ASL $0001,X
  $EF86  EA        NOP 
  $EF87  1D 01 00  ORA $0001,X
  $EF8A  01 00     ORA ($00,X)
  $EF8C  EA        NOP 
  $EF8D  1C 01 EA  NOP $EA01,X
  $EF90  1B 00 EA  SLO $EA00,Y
  $EF93  1A        NOP 
  $EF94  01 EA     ORA ($EA,X)
  $EF96  19 00 E8  ORA $E800,Y
  $EF99  02        ??? 
  $EF9A  20 7F 30  JSR $307F
  $EF9D  63 1A     RRA ($1A,X)
  $EF9F  12        ??? 
  $EFA0  51 31     EOR ($31),Y
  $EFA2  19 11 50  ORA $5011,Y
  $EFA5  30 18     BMI $EFBF
  $EFA7  E8        INX 
  $EFA8  04 1F     NOP $1F
  $EFAA  7F 40 0A  RRA $0A40,X
  $EFAD  62        ??? 
  $EFAE  51 EA     EOR ($EA),Y
  $EFB0  1E 51 EA  ASL $EA51,X
  $EFB3  08        PHP 
  $EFB4  6A        ROR 
  $EFB5  51 E8     EOR ($E8),Y
  $EFB7  01 8F     ORA ($8F,X)
  $EFB9  82 10     NOP #$10
  $EFBB  6F 2C E8  RRA $E82C
  $EFBE  02        ??? 
  $EFBF  80 7F     NOP #$7F
  $EFC1  40        RTI 
  $EFC2  63 52     RRA ($52,X)
  $EFC4  1B 3B 53  SLO $533B,Y
  $EFC7  4A        LSR 
  $EFC8  13 33     SLO ($33),Y
  $EFCA  4B        ??? 
  $EFCB  1B 3B 53  SLO $533B,Y
  $EFCE  1C 3C E8  NOP $E83C,X
  $EFD1  02        ??? 
  $EFD2  82 7F     NOP #$7F
  $EFD4  40        RTI 
  $EFD5  64 1B     NOP $1B
  $EFD7  2B        ??? 
  $EFD8  3B 1C 2C  RLA $2C1C,Y
  $EFDB  3C 6C 53  NOP $536C,X
  $EFDE  E8        INX 
  $EFDF  02        ??? 
  $EFE0  82 7F     NOP #$7F
  $EFE2  40        RTI 
  $EFE3  63 53     RRA ($53,X)
  $EFE5  1B 1C 3B  SLO $3B1C,Y
  $EFE8  3C 53 6A  NOP $6A53,X
  $EFEB  54 E8     NOP $E8,X
  $EFED  02        ??? 
  $EFEE  60        RTS 
  $EFEF  7F 40 64  RRA $6440,X
  $EFF2  52        ??? 
  $EFF3  3A        NOP 
  $EFF4  52        ??? 
  $EFF5  03 52     SLO ($52,X)
  $EFF7  03 13     SLO ($13,X)
  $EFF9  1B E8 02  SLO $02E8,Y
  $EFFC  D5 7F     CMP $7F,X
  $EFFE  00        BRK 
  $EFFF  62        ??? 
  $F000  1C 1D E8  NOP $E81D,X
  $F003  03 07     SLO ($07,X)
  $F005  7F 08 61  RRA $6108,X
  $F008  3A        NOP 
  $F009  13 22     SLO ($22),Y
  $F00B  E8        INX 
  $F00C  02        ??? 
  $F00D  40        RTI 
  $F00E  7F 00 61  RRA $6100,X
  $F011  3D 62 45  AND $4562,X
  $F014  EA        NOP 
  $F015  10 28     BPL $F03F
  $F017  E8        INX 
  $F018  02        ??? 
  $F019  80 7F     NOP #$7F
  $F01B  18        CLC 
  $F01C  61 39     ADC ($39,X)
  $F01E  E8        INX 
  $F01F  04 00     NOP $00
  $F021  7F 28 0A  RRA $0A28,X
  $F024  61 28     ADC ($28,X)
  $F026  E8        INX 
  $F027  02        ??? 
  $F028  8C 94 40  STY $4094
  $F02B  61 10     ADC ($10,X)
  $F02D  64 18     NOP $18
  $F02F  F9 05 02  SBC $0205,Y
  $F032  80 94     NOP #$94
  $F034  48        PHA 
  $F035  62        ??? 
  $F036  40        RTI 
  $F037  48        PHA 
  $F038  F9 05 01  SBC $0105,Y
  $F03B  1F 7F 28  SLO $287F,X
  $F03E  61 22     ADC ($22,X)
  $F040  42        ??? 
  $F041  5A        NOP 
  $F042  1B E8 01  SLO $01E8,Y
  $F045  A0 7F     LDY #$7F
  $F047  40        RTI 
  $F048  66 1C     ROR $1C
  $F04A  3C 1C 53  NOP $531C,X
  $F04D  1C 3C 05  NOP $053C,X
  $F050  72        ??? 
  $F051  54 E8     NOP $E8,X
  $F053  02        ??? 
  $F054  90 7F     BCC $F0D5
  $F056  40        RTI 
  $F057  62        ??? 
  $F058  38        SEC 
  $F059  66 EA     ROR $EA
  $F05B  20 3B 53  JSR $533B
  $F05E  3B 1B 3B  RLA $3B1B,Y
  $F061  53 1C     SRE ($1C),Y
  $F063  6A        ROR 
  $F064  14 E8     NOP $E8,X
  $F066  01 B8     ORA ($B8,X)
  $F068  7F 40 EF  RRA $EF40,X
  $F06B  65 0C     ADC $0C
  $F06D  53 F0     SRE ($F0),Y
  $F06F  0C 05 0C  NOP $0C05
  $F072  53 F0     SRE ($F0),Y
  $F074  0C 0B 34  NOP $340B
  $F077  24 F0     BIT $F0
  $F079  08        PHP 
  $F07A  10 EA     BPL $F066
  $F07C  30 B0     BMI $F02E
  $F07E  50 EA     BVC $F06A
  $F080  20 9C 54  JSR $549C
  $F083  E8        INX 
  $F084  02        ??? 
  $F085  B8        CLV 
  $F086  7F 40 65  RRA $6540,X
  $F089  43 33     SRE ($33,X)
  $F08B  F1 0C     SBC ($0C),Y
  $F08D  04 43     NOP $43
  $F08F  33 F1     RLA ($F1),Y
  $F091  0C 0A 14  NOP $140A
  $F094  4B        ??? 
  $F095  F1 08     SBC ($08),Y
  $F097  0F EA 3A  SLO $3AEA
  $F09A  30 50     BMI $F0EC
  $F09C  09 29     ORA #$29
  $F09E  31 51     AND ($51),Y
  $F0A0  0A        ASL 
  $F0A1  2A        ROL 
  $F0A2  32        ??? 
  $F0A3  52        ??? 
  $F0A4  0B        ??? 
  $F0A5  2B        ??? 
  $F0A6  33 53     RLA ($53),Y
  $F0A8  0C 2C 9C  NOP $9C2C
  $F0AB  EA        NOP 
  $F0AC  20 2C E8  JSR $E82C
  $F0AF  03 00     SLO ($00,X)
  $F0B1  7F 08 A1  RRA $A108,X
  $F0B4  01 01     ORA ($01,X)
  $F0B6  EE 15 6A  INC $6A15
  $F0B9  0B        ??? 
  $F0BA  0B        ??? 
  $F0BB  0B        ??? 
  $F0BC  EE 22 6F  INC $6F22
  $F0BF  33 65     RLA ($65),Y
  $F0C1  43 7E     SRE ($7E,X)
  $F0C3  EE 33 53  INC $5333
  $F0C6  6A        ROR 
  $F0C7  EE 15 43  INC $4315
  $F0CA  33 53     RLA ($53),Y
  $F0CC  6F EE 22  RRA $22EE
  $F0CF  13 65     SLO ($65),Y
  $F0D1  23 7E     RLA ($7E,X)
  $F0D3  EE 33 33  INC $3333
  $F0D6  6A        ROR 
  $F0D7  EE 15 23  INC $2315
  $F0DA  13 4A     SLO ($4A),Y
  $F0DC  9C        ??? 
  $F0DD  EE FF 32  INC $32FF
  $F0E0  E8        INX 
  $F0E1  01 42     ORA ($42,X)
  $F0E3  7F 40 66  RRA $6640,X
  $F0E6  1B 0B 78  SLO $780B,Y
  $F0E9  1B 68 52  SLO $5268,Y
  $F0EC  42        ??? 
  $F0ED  32        ??? 
  $F0EE  1A        NOP 
  $F0EF  1A        NOP 
  $F0F0  1A        NOP 
  $F0F1  78        SEI 
  $F0F2  1A        NOP 
  $F0F3  E8        INX 
  $F0F4  02        ??? 
  $F0F5  82 7F     NOP #$7F
  $F0F7  40        RTI 
  $F0F8  66 52     ROR $52
  $F0FA  52        ??? 
  $F0FB  78        SEI 
  $F0FC  52        ??? 
  $F0FD  68        PLA 
  $F0FE  32        ??? 
  $F0FF  2A        ROL 
  $F100  12        ??? 
  $F101  1A        NOP 
  $F102  1A        NOP 
  $F103  1A        NOP 
  $F104  78        SEI 
  $F105  1A        NOP 
  $F106  E8        INX 
  $F107  03 10     SLO ($10,X)
  $F109  7F 08 66  RRA $6608,X
  $F10C  3B 33 78  RLA $7833,Y
  $F10F  3B 68 1B  RLA $1B68,Y
  $F112  0B        ??? 
  $F113  52        ??? 
  $F114  52        ??? 
  $F115  52        ??? 
  $F116  52        ??? 
  $F117  78        SEI 
  $F118  52        ??? 
  $F119  E8        INX 
  $F11A  FF FF FF  ISC $FFFF,X
  $F11D  FF FF FF  ISC $FFFF,X
  $F120  FF FF FF  ISC $FFFF,X
  $F123  FF FF FF  ISC $FFFF,X
  $F126  FF FF FF  ISC $FFFF,X
  $F129  FF FF FF  ISC $FFFF,X
  $F12C  FF FF FF  ISC $FFFF,X
  $F12F  FF FF FF  ISC $FFFF,X
  $F132  FF FF FF  ISC $FFFF,X
  $F135  FF FF FF  ISC $FFFF,X
  $F138  FF FF FF  ISC $FFFF,X
  $F13B  FF FF FF  ISC $FFFF,X
  $F13E  FF FF FF  ISC $FFFF,X
  $F141  FF FF FF  ISC $FFFF,X
  $F144  FF FF FF  ISC $FFFF,X
  $F147  FF FF FF  ISC $FFFF,X
  $F14A  FF FF FF  ISC $FFFF,X
  $F14D  FF FF FF  ISC $FFFF,X
  $F150  FF FF FF  ISC $FFFF,X
  $F153  FF FF FF  ISC $FFFF,X
  $F156  FF FF FF  ISC $FFFF,X
  $F159  FF FF FF  ISC $FFFF,X
  $F15C  FF FF FF  ISC $FFFF,X
  $F15F  FF FF FF  ISC $FFFF,X
  $F162  FF FF FF  ISC $FFFF,X
  $F165  FF FF FF  ISC $FFFF,X
  $F168  FF FF FF  ISC $FFFF,X
  $F16B  FF FF FF  ISC $FFFF,X
  $F16E  FF FF FF  ISC $FFFF,X
  $F171  FF FF FF  ISC $FFFF,X
  $F174  FF FF FF  ISC $FFFF,X
  $F177  FF FF FF  ISC $FFFF,X
  $F17A  FF FF FF  ISC $FFFF,X
  $F17D  FF FF FF  ISC $FFFF,X
  $F180  FF FF FF  ISC $FFFF,X
  $F183  FF FF FF  ISC $FFFF,X
  $F186  FF FF FF  ISC $FFFF,X
  $F189  FF FF FF  ISC $FFFF,X
  $F18C  FF FF FF  ISC $FFFF,X
  $F18F  FF FF FF  ISC $FFFF,X
  $F192  FF FF FF  ISC $FFFF,X
  $F195  FF FF FF  ISC $FFFF,X
  $F198  FF FF FF  ISC $FFFF,X
  $F19B  FF FF FF  ISC $FFFF,X
  $F19E  FF FF FF  ISC $FFFF,X
  $F1A1  FF FF FF  ISC $FFFF,X
  $F1A4  FF FF FF  ISC $FFFF,X
  $F1A7  FF FF FF  ISC $FFFF,X
  $F1AA  FF FF FF  ISC $FFFF,X
  $F1AD  FF FF FF  ISC $FFFF,X
  $F1B0  FF FF FF  ISC $FFFF,X
  $F1B3  FF FF FF  ISC $FFFF,X
  $F1B6  FF FF FF  ISC $FFFF,X
  $F1B9  FF FF FF  ISC $FFFF,X
  $F1BC  FF FF FF  ISC $FFFF,X
  $F1BF  FF FF FF  ISC $FFFF,X
  $F1C2  FF FF FF  ISC $FFFF,X
  $F1C5  FF FF FF  ISC $FFFF,X
  $F1C8  FF FF FF  ISC $FFFF,X
  $F1CB  FF FF FF  ISC $FFFF,X
  $F1CE  FF FF FF  ISC $FFFF,X
  $F1D1  FF FF FF  ISC $FFFF,X
  $F1D4  FF FF FF  ISC $FFFF,X
  $F1D7  FF FF FF  ISC $FFFF,X
  $F1DA  FF FF FF  ISC $FFFF,X
  $F1DD  FF FF FF  ISC $FFFF,X
  $F1E0  FF FF FF  ISC $FFFF,X
  $F1E3  FF FF FF  ISC $FFFF,X
  $F1E6  FF FF FF  ISC $FFFF,X
  $F1E9  FF FF FF  ISC $FFFF,X
  $F1EC  FF FF FF  ISC $FFFF,X
  $F1EF  FF FF FF  ISC $FFFF,X
  $F1F2  FF FF FF  ISC $FFFF,X
  $F1F5  FF FF FF  ISC $FFFF,X
  $F1F8  FF FF FF  ISC $FFFF,X
  $F1FB  FF FF FF  ISC $FFFF,X
  $F1FE  FF FF C9  ISC $C9FF,X
  $F201  FF D0 05  ISC $05D0,X
  $F204  A9 24     LDA #$24
  $F206  4C 13 F2  JMP $F213
  $F209  C9 24     CMP #$24
  $F20B  90 06     BCC $F213
  $F20D  38        SEC 
  $F20E  E9 23     SBC #$23
  $F210  4C 09 F2  JMP $F209
  $F213  85 00     STA $00
  $F215  A9 F2     LDA #$F2
  $F217  85 12     STA $12
  $F219  A9 7D     LDA #$7D
  $F21B  85 11     STA $11
  $F21D  C6 00     DEC $00
  $F21F  F0 08     BEQ $F229
  $F221  A9 5B     LDA #$5B
  $F223  20 CA D7  JSR $D7CA
  $F226  4C 1D F2  JMP $F21D
  $F229  A9 00     LDA #$00
  $F22B  85 5A     STA $5A
  $F22D  A5 11     LDA $11
  $F22F  85 13     STA $13
  $F231  A5 12     LDA $12
  $F233  85 14     STA $14
  $F235  A9 10     LDA #$10
  $F237  85 57     STA $57
; ---------------------------------------------------------------------------
; Range $F239–$F27D (code) LevelTileLoader
; ---------------------------------------------------------------------------
  $F239  20 5F D9  JSR $D95F
  $F23C  A9 10     LDA #$10
  $F23E  85 56     STA $56
  $F240  A5 5A     LDA $5A
  $F242  4A        LSR 
  $F243  A8        TAY 
  $F244  A5 5A     LDA $5A
  $F246  29 01     AND #$01
  $F248  F0 07     BEQ $F251
  $F24A  B1 13     LDA ($13),Y
  $F24C  29 0F     AND #$0F
  $F24E  4C 57 F2  JMP $F257
  $F251  B1 13     LDA ($13),Y
  $F253  4A        LSR 
  $F254  4A        LSR 
  $F255  4A        LSR 
  $F256  4A        LSR 
  $F257  A6 56     LDX $56
  $F259  A4 57     LDY $57
  $F25B  20 2B D8  JSR $D82B
  $F25E  A9 00     LDA #$00
  $F260  85 0C     STA $0C
  $F262  E6 5A     INC $5A
  $F264  A5 56     LDA $56
  $F266  18        CLC 
  $F267  69 10     ADC #$10
  $F269  85 56     STA $56
  $F26B  C9 E0     CMP #$E0
  $F26D  D0 D1     BNE $F240
  $F26F  E6 5A     INC $5A
  $F271  A5 57     LDA $57
  $F273  18        CLC 
  $F274  69 10     ADC #$10
  $F276  85 57     STA $57
  $F278  C9 E0     CMP #$E0
  $F27A  D0 BD     BNE $F239
  $F27C  60        RTS 
; ---------------------------------------------------------------------------
; Range $F27D–$FFF0 (hex8) LevelMapData
; ---------------------------------------------------------------------------
  $F27D  DD        .byte $DD
  $F27E  DD        .byte $DD
  $F27F  DD        .byte $DD
  $F280  DD        .byte $DD
  $F281  DD        .byte $DD
  $F282  DD        .byte $DD
  $F283  DD        .byte $DD
  $F284  D4        .byte $D4
  $F285  D4        .byte $D4
  $F286  D4        .byte $D4
  $F287  D4        .byte $D4
  $F288  D4        .byte $D4
  $F289  D4        .byte $D4
  $F28A  DD        .byte $DD
  $F28B  D4        .byte $D4
  $F28C  D4        .byte $D4
  $F28D  D4        .byte $D4
  $F28E  D4        .byte $D4
  $F28F  D4        .byte $D4
  $F290  D4        .byte $D4
  $F291  DD        .byte $DD
  $F292  D4        .byte $D4
  $F293  D4        .byte $D4
  $F294  D4        .byte $D4
  $F295  94        .byte $94
  $F296  D4        .byte $D4
  $F297  D4        .byte $D4
  $F298  DD        .byte $DD
  $F299  D4        .byte $D4
  $F29A  D4        .byte $D4
  $F29B  D3        .byte $D3
  $F29C  D3        .byte $D3
  $F29D  D4        .byte $D4
  $F29E  D4        .byte $D4
  $F29F  DD        .byte $DD
  $F2A0  D3        .byte $D3
  $F2A1  D3        .byte $D3
  $F2A2  D1        .byte $D1
  $F2A3  D1        .byte $D1
  $F2A4  D3        .byte $D3
  $F2A5  D3        .byte $D3
  $F2A6  DD        .byte $DD
  $F2A7  1D        .byte $1D
  $F2A8  11        .byte $11
  $F2A9  D3        .byte $D3
  $F2AA  D3        .byte $D3
  $F2AB  D1        .byte $D1
  $F2AC  1D        .byte $1D
  $F2AD  1D        .byte $1D
  $F2AE  8D        .byte $8D
  $F2AF  33        .byte $33
  $F2B0  D1        .byte $D1
  $F2B1  D1        .byte $D1
  $F2B2  D3        .byte $D3
  $F2B3  3D        .byte $3D
  $F2B4  8D        .byte $8D
  $F2B5  D1        .byte $D1
  $F2B6  D1        .byte $D1
  $F2B7  D4        .byte $D4
  $F2B8  44        .byte $44
  $F2B9  D1        .byte $D1
  $F2BA  D1        .byte $D1
  $F2BB  DD        .byte $DD
  $F2BC  D4        .byte $D4
  $F2BD  D4        .byte $D4
  $F2BE  D4        .byte $D4
  $F2BF  D4        .byte $D4
  $F2C0  D4        .byte $D4
  $F2C1  D4        .byte $D4
  $F2C2  DD        .byte $DD
  $F2C3  D4        .byte $D4
  $F2C4  D4        .byte $D4
  $F2C5  D3        .byte $D3
  $F2C6  D3        .byte $D3
  $F2C7  D4        .byte $D4
  $F2C8  D4        .byte $D4
  $F2C9  DD        .byte $DD
  $F2CA  D4        .byte $D4
  $F2CB  D4        .byte $D4
  $F2CC  DD        .byte $DD
  $F2CD  DD        .byte $DD
  $F2CE  D4        .byte $D4
  $F2CF  D4        .byte $D4
  $F2D0  DD        .byte $DD
  $F2D1  DD        .byte $DD
  $F2D2  DD        .byte $DD
  $F2D3  DD        .byte $DD
  $F2D4  DD        .byte $DD
  $F2D5  DD        .byte $DD
  $F2D6  DD        .byte $DD
  $F2D7  DD        .byte $DD
  $F2D8  DD        .byte $DD
  $F2D9  DD        .byte $DD
  $F2DA  4D        .byte $4D
  $F2DB  DD        .byte $DD
  $F2DC  4D        .byte $4D
  $F2DD  DD        .byte $DD
  $F2DE  DD        .byte $DD
  $F2DF  DB        .byte $DB
  $F2E0  BB        .byte $BB
  $F2E1  4D        .byte $4D
  $F2E2  DD        .byte $DD
  $F2E3  DD        .byte $DD
  $F2E4  66        .byte $66
  $F2E5  6D        .byte $6D
  $F2E6  4B        .byte $4B
  $F2E7  BB        .byte $BB
  $F2E8  DD        .byte $DD
  $F2E9  DD        .byte $DD
  $F2EA  DD        .byte $DD
  $F2EB  DD        .byte $DD
  $F2EC  DD        .byte $DD
  $F2ED  BB        .byte $BB
  $F2EE  BB        .byte $BB
  $F2EF  DD        .byte $DD
  $F2F0  D4        .byte $D4
  $F2F1  D4        .byte $D4
  $F2F2  44        .byte $44
  $F2F3  2D        .byte $2D
  $F2F4  BB        .byte $BB
  $F2F5  BB        .byte $BB
  $F2F6  44        .byte $44
  $F2F7  43        .byte $43
  $F2F8  D4        .byte $D4
  $F2F9  D0        .byte $D0
  $F2FA  DD        .byte $DD
  $F2FB  BB        .byte $BB
  $F2FC  BB        .byte $BB
  $F2FD  DD        .byte $DD
  $F2FE  4D        .byte $4D
  $F2FF  DD        .byte $DD
  $F300  D0        .byte $D0
  $F301  DD        .byte $DD
  $F302  DB        .byte $DB
  $F303  DD        .byte $DD
  $F304  DD        .byte $DD
  $F305  99        .byte $99
  $F306  9D        .byte $9D
  $F307  DB        .byte $DB
  $F308  DD        .byte $DD
  $F309  D1        .byte $D1
  $F30A  D1        .byte $D1
  $F30B  DD        .byte $DD
  $F30C  DD        .byte $DD
  $F30D  DB        .byte $DB
  $F30E  BB        .byte $BB
  $F30F  BD        .byte $BD
  $F310  42        .byte $42
  $F311  04        .byte $04
  $F312  20        .byte $20
  $F313  33        .byte $33
  $F314  3B        .byte $3B
  $F315  BB        .byte $BB
  $F316  BD        .byte $BD
  $F317  DD        .byte $DD
  $F318  DD        .byte $DD
  $F319  D4        .byte $D4
  $F31A  D1        .byte $D1
  $F31B  1B        .byte $1B
  $F31C  BB        .byte $BB
  $F31D  BD        .byte $BD
  $F31E  4D        .byte $4D
  $F31F  D7        .byte $D7
  $F320  DD        .byte $DD
  $F321  D3        .byte $D3
  $F322  3B        .byte $3B
  $F323  BB        .byte $BB
  $F324  DD        .byte $DD
  $F325  44        .byte $44
  $F326  D7        .byte $D7
  $F327  DD        .byte $DD
  $F328  DD        .byte $DD
  $F329  DB        .byte $DB
  $F32A  BB        .byte $BB
  $F32B  DD        .byte $DD
  $F32C  94        .byte $94
  $F32D  4D        .byte $4D
  $F32E  DD        .byte $DD
  $F32F  DD        .byte $DD
  $F330  D4        .byte $D4
  $F331  DD        .byte $DD
  $F332  DD        .byte $DD
  $F333  DD        .byte $DD
  $F334  D9        .byte $D9
  $F335  DD        .byte $DD
  $F336  D9        .byte $D9
  $F337  DD        .byte $DD
  $F338  DD        .byte $DD
  $F339  DD        .byte $DD
  $F33A  D4        .byte $D4
  $F33B  D9        .byte $D9
  $F33C  DD        .byte $DD
  $F33D  D4        .byte $D4
  $F33E  D4        .byte $D4
  $F33F  D4        .byte $D4
  $F340  DD        .byte $DD
  $F341  D4        .byte $D4
  $F342  DD        .byte $DD
  $F343  DD        .byte $DD
  $F344  44        .byte $44
  $F345  D4        .byte $D4
  $F346  94        .byte $94
  $F347  DD        .byte $DD
  $F348  DD        .byte $DD
  $F349  D4        .byte $D4
  $F34A  DD        .byte $DD
  $F34B  DD        .byte $DD
  $F34C  D9        .byte $D9
  $F34D  DD        .byte $DD
  $F34E  DD        .byte $DD
  $F34F  BD        .byte $BD
  $F350  D4        .byte $D4
  $F351  DD        .byte $DD
  $F352  9D        .byte $9D
  $F353  D4        .byte $D4
  $F354  B4        .byte $B4
  $F355  9D        .byte $9D
  $F356  BB        .byte $BB
  $F357  DD        .byte $DD
  $F358  D4        .byte $D4
  $F359  DD        .byte $DD
  $F35A  9D        .byte $9D
  $F35B  BD        .byte $BD
  $F35C  DD        .byte $DD
  $F35D  D4        .byte $D4
  $F35E  44        .byte $44
  $F35F  BB        .byte $BB
  $F360  B9        .byte $B9
  $F361  DD        .byte $DD
  $F362  B4        .byte $B4
  $F363  DD        .byte $DD
  $F364  DD        .byte $DD
  $F365  D9        .byte $D9
  $F366  B4        .byte $B4
  $F367  D4        .byte $D4
  $F368  D4        .byte $D4
  $F369  D4        .byte $D4
  $F36A  DD        .byte $DD
  $F36B  94        .byte $94
  $F36C  D9        .byte $D9
  $F36D  D4        .byte $D4
  $F36E  D4        .byte $D4
  $F36F  DD        .byte $DD
  $F370  D4        .byte $D4
  $F371  DD        .byte $DD
  $F372  D4        .byte $D4
  $F373  D4        .byte $D4
  $F374  D4        .byte $D4
  $F375  44        .byte $44
  $F376  D4        .byte $D4
  $F377  94        .byte $94
  $F378  DD        .byte $DD
  $F379  D4        .byte $D4
  $F37A  D4        .byte $D4
  $F37B  D4        .byte $D4
  $F37C  44        .byte $44
  $F37D  DD        .byte $DD
  $F37E  DD        .byte $DD
  $F37F  DD        .byte $DD
  $F380  D4        .byte $D4
  $F381  DD        .byte $DD
  $F382  DD        .byte $DD
  $F383  DD        .byte $DD
  $F384  D4        .byte $D4
  $F385  D4        .byte $D4
  $F386  DD        .byte $DD
  $F387  D4        .byte $D4
  $F388  D4        .byte $D4
  $F389  DD        .byte $DD
  $F38A  DD        .byte $DD
  $F38B  D4        .byte $D4
  $F38C  44        .byte $44
  $F38D  DD        .byte $DD
  $F38E  DB        .byte $DB
  $F38F  BD        .byte $BD
  $F390  DD        .byte $DD
  $F391  DD        .byte $DD
  $F392  DD        .byte $DD
  $F393  DB        .byte $DB
  $F394  DD        .byte $DD
  $F395  BB        .byte $BB
  $F396  DD        .byte $DD
  $F397  14        .byte $14
  $F398  41        .byte $41
  $F399  1D        .byte $1D
  $F39A  DD        .byte $DD
  $F39B  BD        .byte $BD
  $F39C  BD        .byte $BD
  $F39D  D0        .byte $D0
  $F39E  44        .byte $44
  $F39F  44        .byte $44
  $F3A0  44        .byte $44
  $F3A1  1D        .byte $1D
  $F3A2  8D        .byte $8D
  $F3A3  8D        .byte $8D
  $F3A4  D4        .byte $D4
  $F3A5  44        .byte $44
  $F3A6  44        .byte $44
  $F3A7  44        .byte $44
  $F3A8  42        .byte $42
  $F3A9  DD        .byte $DD
  $F3AA  DD        .byte $DD
  $F3AB  03        .byte $03
  $F3AC  DD        .byte $DD
  $F3AD  D3        .byte $D3
  $F3AE  44        .byte $44
  $F3AF  D2        .byte $D2
  $F3B0  DD        .byte $DD
  $F3B1  AD        .byte $AD
  $F3B2  0D        .byte $0D
  $F3B3  7D        .byte $7D
  $F3B4  7D        .byte $7D
  $F3B5  42        .byte $42
  $F3B6  DD        .byte $DD
  $F3B7  DD        .byte $DD
  $F3B8  DD        .byte $DD
  $F3B9  4D        .byte $4D
  $F3BA  11        .byte $11
  $F3BB  DD        .byte $DD
  $F3BC  42        .byte $42
  $F3BD  DA        .byte $DA
  $F3BE  AD        .byte $AD
  $F3BF  DD        .byte $DD
  $F3C0  44        .byte $44
  $F3C1  44        .byte $44
  $F3C2  44        .byte $44
  $F3C3  44        .byte $44
  $F3C4  DD        .byte $DD
  $F3C5  DD        .byte $DD
  $F3C6  D0        .byte $D0
  $F3C7  44        .byte $44
  $F3C8  44        .byte $44
  $F3C9  44        .byte $44
  $F3CA  44        .byte $44
  $F3CB  2D        .byte $2D
  $F3CC  DD        .byte $DD
  $F3CD  D3        .byte $D3
  $F3CE  34        .byte $34
  $F3CF  44        .byte $44
  $F3D0  44        .byte $44
  $F3D1  43        .byte $43
  $F3D2  3D        .byte $3D
  $F3D3  DD        .byte $DD
  $F3D4  D4        .byte $D4
  $F3D5  41        .byte $41
  $F3D6  34        .byte $34
  $F3D7  43        .byte $43
  $F3D8  14        .byte $14
  $F3D9  4D        .byte $4D
  $F3DA  BD        .byte $BD
  $F3DB  BD        .byte $BD
  $F3DC  33        .byte $33
  $F3DD  DD        .byte $DD
  $F3DE  DD        .byte $DD
  $F3DF  33        .byte $33
  $F3E0  DB        .byte $DB
  $F3E1  BD        .byte $BD
  $F3E2  9B        .byte $9B
  $F3E3  DD        .byte $DD
  $F3E4  DD        .byte $DD
  $F3E5  DD        .byte $DD
  $F3E6  DD        .byte $DD
  $F3E7  BB        .byte $BB
  $F3E8  9D        .byte $9D
  $F3E9  DD        .byte $DD
  $F3EA  DD        .byte $DD
  $F3EB  44        .byte $44
  $F3EC  4D        .byte $4D
  $F3ED  DD        .byte $DD
  $F3EE  DD        .byte $DD
  $F3EF  DD        .byte $DD
  $F3F0  6D        .byte $6D
  $F3F1  1D        .byte $1D
  $F3F2  4D        .byte $4D
  $F3F3  DD        .byte $DD
  $F3F4  88        .byte $88
  $F3F5  9D        .byte $9D
  $F3F6  DD        .byte $DD
  $F3F7  9D        .byte $9D
  $F3F8  4D        .byte $4D
  $F3F9  DD        .byte $DD
  $F3FA  4D        .byte $4D
  $F3FB  DD        .byte $DD
  $F3FC  DD        .byte $DD
  $F3FD  DD        .byte $DD
  $F3FE  4D        .byte $4D
  $F3FF  44        .byte $44
  $F400  4D        .byte $4D
  $F401  44        .byte $44
  $F402  DA        .byte $DA
  $F403  AA        .byte $AA
  $F404  DD        .byte $DD
  $F405  3D        .byte $3D
  $F406  DD        .byte $DD
  $F407  3D        .byte $3D
  $F408  DD        .byte $DD
  $F409  DA        .byte $DA
  $F40A  DD        .byte $DD
  $F40B  DD        .byte $DD
  $F40C  DD        .byte $DD
  $F40D  1D        .byte $1D
  $F40E  AA        .byte $AA
  $F40F  DA        .byte $DA
  $F410  AA        .byte $AA
  $F411  D4        .byte $D4
  $F412  4D        .byte $4D
  $F413  44        .byte $44
  $F414  DD        .byte $DD
  $F415  A4        .byte $A4
  $F416  D4        .byte $D4
  $F417  2D        .byte $2D
  $F418  DD        .byte $DD
  $F419  DD        .byte $DD
  $F41A  DD        .byte $DD
  $F41B  DD        .byte $DD
  $F41C  AD        .byte $AD
  $F41D  DD        .byte $DD
  $F41E  DD        .byte $DD
  $F41F  57        .byte $57
  $F420  DD        .byte $DD
  $F421  AA        .byte $AA
  $F422  AD        .byte $AD
  $F423  AD        .byte $AD
  $F424  9D        .byte $9D
  $F425  4D        .byte $4D
  $F426  5D        .byte $5D
  $F427  DD        .byte $DD
  $F428  DD        .byte $DD
  $F429  D1        .byte $D1
  $F42A  1D        .byte $1D
  $F42B  DD        .byte $DD
  $F42C  DD        .byte $DD
  $F42D  54        .byte $54
  $F42E  4D        .byte $4D
  $F42F  DD        .byte $DD
  $F430  DD        .byte $DD
  $F431  43        .byte $43
  $F432  33        .byte $33
  $F433  41        .byte $41
  $F434  DD        .byte $DD
  $F435  DD        .byte $DD
  $F436  44        .byte $44
  $F437  3D        .byte $3D
  $F438  DD        .byte $DD
  $F439  DD        .byte $DD
  $F43A  D3        .byte $D3
  $F43B  4D        .byte $4D
  $F43C  DD        .byte $DD
  $F43D  3D        .byte $3D
  $F43E  DD        .byte $DD
  $F43F  DD        .byte $DD
  $F440  DD        .byte $DD
  $F441  DD        .byte $DD
  $F442  DD        .byte $DD
  $F443  DD        .byte $DD
  $F444  DD        .byte $DD
  $F445  DD        .byte $DD
  $F446  DD        .byte $DD
  $F447  D8        .byte $D8
  $F448  8D        .byte $8D
  $F449  DD        .byte $DD
  $F44A  DD        .byte $DD
  $F44B  DD        .byte $DD
  $F44C  98        .byte $98
  $F44D  88        .byte $88
  $F44E  DD        .byte $DD
  $F44F  DD        .byte $DD
  $F450  9D        .byte $9D
  $F451  DD        .byte $DD
  $F452  DD        .byte $DD
  $F453  9D        .byte $9D
  $F454  DD        .byte $DD
  $F455  BD        .byte $BD
  $F456  89        .byte $89
  $F457  9D        .byte $9D
  $F458  DD        .byte $DD
  $F459  D9        .byte $D9
  $F45A  DD        .byte $DD
  $F45B  DB        .byte $DB
  $F45C  9D        .byte $9D
  $F45D  DD        .byte $DD
  $F45E  9D        .byte $9D
  $F45F  DD        .byte $DD
  $F460  DD        .byte $DD
  $F461  DD        .byte $DD
  $F462  B9        .byte $B9
  $F463  9D        .byte $9D
  $F464  DD        .byte $DD
  $F465  89        .byte $89
  $F466  DD        .byte $DD
  $F467  D9        .byte $D9
  $F468  DB        .byte $DB
  $F469  99        .byte $99
  $F46A  9D        .byte $9D
  $F46B  9D        .byte $9D
  $F46C  DD        .byte $DD
  $F46D  DD        .byte $DD
  $F46E  D5        .byte $D5
  $F46F  D9        .byte $D9
  $F470  9D        .byte $9D
  $F471  DD        .byte $DD
  $F472  99        .byte $99
  $F473  DD        .byte $DD
  $F474  DD        .byte $DD
  $F475  7D        .byte $7D
  $F476  DD        .byte $DD
  $F477  9D        .byte $9D
  $F478  99        .byte $99
  $F479  9D        .byte $9D
  $F47A  D5        .byte $D5
  $F47B  DD        .byte $DD
  $F47C  D5        .byte $D5
  $F47D  9D        .byte $9D
  $F47E  DD        .byte $DD
  $F47F  99        .byte $99
  $F480  BD        .byte $BD
  $F481  D9        .byte $D9
  $F482  DD        .byte $DD
  $F483  D9        .byte $D9
  $F484  DD        .byte $DD
  $F485  DD        .byte $DD
  $F486  9B        .byte $9B
  $F487  DD        .byte $DD
  $F488  99        .byte $99
  $F489  DD        .byte $DD
  $F48A  D8        .byte $D8
  $F48B  89        .byte $89
  $F48C  DD        .byte $DD
  $F48D  BD        .byte $BD
  $F48E  D9        .byte $D9
  $F48F  DD        .byte $DD
  $F490  DD        .byte $DD
  $F491  DD        .byte $DD
  $F492  DD        .byte $DD
  $F493  DD        .byte $DD
  $F494  DD        .byte $DD
  $F495  D8        .byte $D8
  $F496  D6        .byte $D6
  $F497  9D        .byte $9D
  $F498  66        .byte $66
  $F499  DD        .byte $DD
  $F49A  DD        .byte $DD
  $F49B  DD        .byte $DD
  $F49C  DD        .byte $DD
  $F49D  DD        .byte $DD
  $F49E  DD        .byte $DD
  $F49F  DD        .byte $DD
  $F4A0  DD        .byte $DD
  $F4A1  DD        .byte $DD
  $F4A2  DD        .byte $DD
  $F4A3  DD        .byte $DD
  $F4A4  DD        .byte $DD
  $F4A5  DD        .byte $DD
  $F4A6  D0        .byte $D0
  $F4A7  34        .byte $34
  $F4A8  DD        .byte $DD
  $F4A9  DD        .byte $DD
  $F4AA  DD        .byte $DD
  $F4AB  43        .byte $43
  $F4AC  2D        .byte $2D
  $F4AD  03        .byte $03
  $F4AE  DD        .byte $DD
  $F4AF  4D        .byte $4D
  $F4B0  BB        .byte $BB
  $F4B1  D4        .byte $D4
  $F4B2  DD        .byte $DD
  $F4B3  0D        .byte $0D
  $F4B4  4D        .byte $4D
  $F4B5  DD        .byte $DD
  $F4B6  4B        .byte $4B
  $F4B7  BB        .byte $BB
  $F4B8  B4        .byte $B4
  $F4B9  DD        .byte $DD
  $F4BA  0D        .byte $0D
  $F4BB  4D        .byte $4D
  $F4BC  D0        .byte $D0
  $F4BD  4B        .byte $4B
  $F4BE  99        .byte $99
  $F4BF  B4        .byte $B4
  $F4C0  2D        .byte $2D
  $F4C1  4D        .byte $4D
  $F4C2  01        .byte $01
  $F4C3  14        .byte $14
  $F4C4  AA        .byte $AA
  $F4C5  AA        .byte $AA
  $F4C6  AA        .byte $AA
  $F4C7  44        .byte $44
  $F4C8  4D        .byte $4D
  $F4C9  D4        .byte $D4
  $F4CA  44        .byte $44
  $F4CB  99        .byte $99
  $F4CC  49        .byte $49
  $F4CD  94        .byte $94
  $F4CE  44        .byte $44
  $F4CF  2D        .byte $2D
  $F4D0  DD        .byte $DD
  $F4D1  44        .byte $44
  $F4D2  9D        .byte $9D
  $F4D3  4D        .byte $4D
  $F4D4  94        .byte $94
  $F4D5  42        .byte $42
  $F4D6  DD        .byte $DD
  $F4D7  DD        .byte $DD
  $F4D8  44        .byte $44
  $F4D9  44        .byte $44
  $F4DA  44        .byte $44
  $F4DB  44        .byte $44
  $F4DC  42        .byte $42
  $F4DD  DD        .byte $DD
  $F4DE  4B        .byte $4B
  $F4DF  33        .byte $33
  $F4E0  39        .byte $39
  $F4E1  93        .byte $93
  $F4E2  33        .byte $33
  $F4E3  3B        .byte $3B
  $F4E4  4D        .byte $4D
  $F4E5  4B        .byte $4B
  $F4E6  BB        .byte $BB
  $F4E7  BB        .byte $BB
  $F4E8  BB        .byte $BB
  $F4E9  BB        .byte $BB
  $F4EA  BB        .byte $BB
  $F4EB  4D        .byte $4D
  $F4EC  DD        .byte $DD
  $F4ED  BB        .byte $BB
  $F4EE  B1        .byte $B1
  $F4EF  11        .byte $11
  $F4F0  BB        .byte $BB
  $F4F1  BB        .byte $BB
  $F4F2  DD        .byte $DD
  $F4F3  DD        .byte $DD
  $F4F4  D2        .byte $D2
  $F4F5  D4        .byte $D4
  $F4F6  D4        .byte $D4
  $F4F7  DD        .byte $DD
  $F4F8  2D        .byte $2D
  $F4F9  DD        .byte $DD
  $F4FA  DD        .byte $DD
  $F4FB  DD        .byte $DD
  $F4FC  D0        .byte $D0
  $F4FD  D2        .byte $D2
  $F4FE  BB        .byte $BB
  $F4FF  DD        .byte $DD
  $F500  DD        .byte $DD
  $F501  D2        .byte $D2
  $F502  5D        .byte $5D
  $F503  2D        .byte $2D
  $F504  DD        .byte $DD
  $F505  0B        .byte $0B
  $F506  20        .byte $20
  $F507  BD        .byte $BD
  $F508  D2        .byte $D2
  $F509  5D        .byte $5D
  $F50A  2D        .byte $2D
  $F50B  4D        .byte $4D
  $F50C  0B        .byte $0B
  $F50D  20        .byte $20
  $F50E  BD        .byte $BD
  $F50F  D4        .byte $D4
  $F510  DD        .byte $DD
  $F511  4D        .byte $4D
  $F512  9D        .byte $9D
  $F513  4B        .byte $4B
  $F514  D4        .byte $D4
  $F515  BD        .byte $BD
  $F516  DD        .byte $DD
  $F517  D0        .byte $D0
  $F518  8D        .byte $8D
  $F519  4D        .byte $4D
  $F51A  37        .byte $37
  $F51B  DB        .byte $DB
  $F51C  BD        .byte $BD
  $F51D  44        .byte $44
  $F51E  2D        .byte $2D
  $F51F  DB        .byte $DB
  $F520  4B        .byte $4B
  $F521  DD        .byte $DD
  $F522  04        .byte $04
  $F523  4D        .byte $4D
  $F524  DD        .byte $DD
  $F525  DD        .byte $DD
  $F526  0B        .byte $0B
  $F527  BB        .byte $BB
  $F528  2D        .byte $2D
  $F529  DD        .byte $DD
  $F52A  DD        .byte $DD
  $F52B  94        .byte $94
  $F52C  4D        .byte $4D
  $F52D  3B        .byte $3B
  $F52E  BB        .byte $BB
  $F52F  30        .byte $30
  $F530  44        .byte $44
  $F531  9D        .byte $9D
  $F532  88        .byte $88
  $F533  8D        .byte $8D
  $F534  1D        .byte $1D
  $F535  BD        .byte $BD
  $F536  1D        .byte $1D
  $F537  88        .byte $88
  $F538  8D        .byte $8D
  $F539  D4        .byte $D4
  $F53A  DD        .byte $DD
  $F53B  4D        .byte $4D
  $F53C  DD        .byte $DD
  $F53D  4D        .byte $4D
  $F53E  DD        .byte $DD
  $F53F  DD        .byte $DD
  $F540  D4        .byte $D4
  $F541  2D        .byte $2D
  $F542  D3        .byte $D3
  $F543  D3        .byte $D3
  $F544  DD        .byte $DD
  $F545  04        .byte $04
  $F546  BD        .byte $BD
  $F547  DD        .byte $DD
  $F548  3D        .byte $3D
  $F549  DD        .byte $DD
  $F54A  DD        .byte $DD
  $F54B  DD        .byte $DD
  $F54C  BB        .byte $BB
  $F54D  BD        .byte $BD
  $F54E  DD        .byte $DD
  $F54F  1D        .byte $1D
  $F550  DD        .byte $DD
  $F551  DD        .byte $DD
  $F552  DD        .byte $DD
  $F553  1B        .byte $1B
  $F554  BD        .byte $BD
  $F555  DD        .byte $DD
  $F556  DD        .byte $DD
  $F557  DD        .byte $DD
  $F558  44        .byte $44
  $F559  44        .byte $44
  $F55A  DD        .byte $DD
  $F55B  DD        .byte $DD
  $F55C  D4        .byte $D4
  $F55D  44        .byte $44
  $F55E  1D        .byte $1D
  $F55F  1D        .byte $1D
  $F560  D4        .byte $D4
  $F561  DD        .byte $DD
  $F562  DD        .byte $DD
  $F563  DD        .byte $DD
  $F564  DD        .byte $DD
  $F565  4D        .byte $4D
  $F566  3D        .byte $3D
  $F567  DD        .byte $DD
  $F568  D4        .byte $D4
  $F569  4D        .byte $4D
  $F56A  DA        .byte $DA
  $F56B  AA        .byte $AA
  $F56C  AA        .byte $AA
  $F56D  D4        .byte $D4
  $F56E  2D        .byte $2D
  $F56F  D4        .byte $D4
  $F570  8D        .byte $8D
  $F571  DD        .byte $DD
  $F572  66        .byte $66
  $F573  6A        .byte $6A
  $F574  D4        .byte $D4
  $F575  D9        .byte $D9
  $F576  74        .byte $74
  $F577  DD        .byte $DD
  $F578  4D        .byte $4D
  $F579  44        .byte $44
  $F57A  4A        .byte $4A
  $F57B  AA        .byte $AA
  $F57C  DA        .byte $DA
  $F57D  44        .byte $44
  $F57E  DD        .byte $DD
  $F57F  DD        .byte $DD
  $F580  DD        .byte $DD
  $F581  9A        .byte $9A
  $F582  DD        .byte $DD
  $F583  DA        .byte $DA
  $F584  8D        .byte $8D
  $F585  DD        .byte $DD
  $F586  AA        .byte $AA
  $F587  AD        .byte $AD
  $F588  AA        .byte $AA
  $F589  44        .byte $44
  $F58A  DA        .byte $DA
  $F58B  DD        .byte $DD
  $F58C  DD        .byte $DD
  $F58D  DD        .byte $DD
  $F58E  DD        .byte $DD
  $F58F  D4        .byte $D4
  $F590  88        .byte $88
  $F591  DA        .byte $DA
  $F592  AA        .byte $AA
  $F593  DD        .byte $DD
  $F594  44        .byte $44
  $F595  4D        .byte $4D
  $F596  DD        .byte $DD
  $F597  DD        .byte $DD
  $F598  DD        .byte $DD
  $F599  DD        .byte $DD
  $F59A  DD        .byte $DD
  $F59B  DD        .byte $DD
  $F59C  4D        .byte $4D
  $F59D  88        .byte $88
  $F59E  DD        .byte $DD
  $F59F  D4        .byte $D4
  $F5A0  4D        .byte $4D
  $F5A1  0D        .byte $0D
  $F5A2  4D        .byte $4D
  $F5A3  DD        .byte $DD
  $F5A4  DD        .byte $DD
  $F5A5  DD        .byte $DD
  $F5A6  D4        .byte $D4
  $F5A7  DD        .byte $DD
  $F5A8  4D        .byte $4D
  $F5A9  DD        .byte $DD
  $F5AA  DD        .byte $DD
  $F5AB  DD        .byte $DD
  $F5AC  DD        .byte $DD
  $F5AD  DD        .byte $DD
  $F5AE  DD        .byte $DD
  $F5AF  DD        .byte $DD
  $F5B0  DD        .byte $DD
  $F5B1  DD        .byte $DD
  $F5B2  D9        .byte $D9
  $F5B3  D4        .byte $D4
  $F5B4  D4        .byte $D4
  $F5B5  4D        .byte $4D
  $F5B6  DD        .byte $DD
  $F5B7  D0        .byte $D0
  $F5B8  44        .byte $44
  $F5B9  44        .byte $44
  $F5BA  D4        .byte $D4
  $F5BB  DD        .byte $DD
  $F5BC  DD        .byte $DD
  $F5BD  DD        .byte $DD
  $F5BE  DD        .byte $DD
  $F5BF  D2        .byte $D2
  $F5C0  D4        .byte $D4
  $F5C1  D4        .byte $D4
  $F5C2  4D        .byte $4D
  $F5C3  BB        .byte $BB
  $F5C4  BD        .byte $BD
  $F5C5  D0        .byte $D0
  $F5C6  DD        .byte $DD
  $F5C7  DD        .byte $DD
  $F5C8  D9        .byte $D9
  $F5C9  DB        .byte $DB
  $F5CA  BB        .byte $BB
  $F5CB  BD        .byte $BD
  $F5CC  D0        .byte $D0
  $F5CD  D4        .byte $D4
  $F5CE  44        .byte $44
  $F5CF  94        .byte $94
  $F5D0  4B        .byte $4B
  $F5D1  B3        .byte $B3
  $F5D2  9D        .byte $9D
  $F5D3  D3        .byte $D3
  $F5D4  33        .byte $33
  $F5D5  9D        .byte $9D
  $F5D6  D4        .byte $D4
  $F5D7  DB        .byte $DB
  $F5D8  BD        .byte $BD
  $F5D9  0D        .byte $0D
  $F5DA  04        .byte $04
  $F5DB  44        .byte $44
  $F5DC  D9        .byte $D9
  $F5DD  BB        .byte $BB
  $F5DE  BB        .byte $BB
  $F5DF  BD        .byte $BD
  $F5E0  DD        .byte $DD
  $F5E1  DD        .byte $DD
  $F5E2  D9        .byte $D9
  $F5E3  DD        .byte $DD
  $F5E4  BB        .byte $BB
  $F5E5  BB        .byte $BB
  $F5E6  B4        .byte $B4
  $F5E7  DD        .byte $DD
  $F5E8  94        .byte $94
  $F5E9  DB        .byte $DB
  $F5EA  BB        .byte $BB
  $F5EB  B9        .byte $B9
  $F5EC  BB        .byte $BB
  $F5ED  B4        .byte $B4
  $F5EE  DD        .byte $DD
  $F5EF  04        .byte $04
  $F5F0  BB        .byte $BB
  $F5F1  BB        .byte $BB
  $F5F2  BD        .byte $BD
  $F5F3  DD        .byte $DD
  $F5F4  D4        .byte $D4
  $F5F5  2D        .byte $2D
  $F5F6  D4        .byte $D4
  $F5F7  BB        .byte $BB
  $F5F8  DD        .byte $DD
  $F5F9  DD        .byte $DD
  $F5FA  84        .byte $84
  $F5FB  44        .byte $44
  $F5FC  DD        .byte $DD
  $F5FD  DD        .byte $DD
  $F5FE  BB        .byte $BB
  $F5FF  DD        .byte $DD
  $F600  DD        .byte $DD
  $F601  D4        .byte $D4
  $F602  D0        .byte $D0
  $F603  DD        .byte $DD
  $F604  D1        .byte $D1
  $F605  BB        .byte $BB
  $F606  DD        .byte $DD
  $F607  DD        .byte $DD
  $F608  DD        .byte $DD
  $F609  DD        .byte $DD
  $F60A  DD        .byte $DD
  $F60B  DD        .byte $DD
  $F60C  DD        .byte $DD
  $F60D  DD        .byte $DD
  $F60E  DD        .byte $DD
  $F60F  DD        .byte $DD
  $F610  DD        .byte $DD
  $F611  DD        .byte $DD
  $F612  BB        .byte $BB
  $F613  DD        .byte $DD
  $F614  14        .byte $14
  $F615  44        .byte $44
  $F616  1D        .byte $1D
  $F617  DB        .byte $DB
  $F618  BD        .byte $BD
  $F619  BD        .byte $BD
  $F61A  D0        .byte $D0
  $F61B  44        .byte $44
  $F61C  44        .byte $44
  $F61D  42        .byte $42
  $F61E  DD        .byte $DD
  $F61F  BD        .byte $BD
  $F620  DD        .byte $DD
  $F621  D4        .byte $D4
  $F622  4B        .byte $4B
  $F623  4B        .byte $4B
  $F624  44        .byte $44
  $F625  DD        .byte $DD
  $F626  DD        .byte $DD
  $F627  DD        .byte $DD
  $F628  D4        .byte $D4
  $F629  BB        .byte $BB
  $F62A  4B        .byte $4B
  $F62B  B4        .byte $B4
  $F62C  DD        .byte $DD
  $F62D  DD        .byte $DD
  $F62E  BD        .byte $BD
  $F62F  D4        .byte $D4
  $F630  44        .byte $44
  $F631  44        .byte $44
  $F632  44        .byte $44
  $F633  DD        .byte $DD
  $F634  BD        .byte $BD
  $F635  BB        .byte $BB
  $F636  DD        .byte $DD
  $F637  4B        .byte $4B
  $F638  4B        .byte $4B
  $F639  4D        .byte $4D
  $F63A  DB        .byte $DB
  $F63B  BD        .byte $BD
  $F63C  AA        .byte $AA
  $F63D  AD        .byte $AD
  $F63E  44        .byte $44
  $F63F  44        .byte $44
  $F640  4D        .byte $4D
  $F641  AA        .byte $AA
  $F642  AD        .byte $AD
  $F643  DD        .byte $DD
  $F644  DD        .byte $DD
  $F645  00        .byte $00
  $F646  00        .byte $00
  $F647  0D        .byte $0D
  $F648  DD        .byte $DD
  $F649  DD        .byte $DD
  $F64A  DD        .byte $DD
  $F64B  DD        .byte $DD
  $F64C  22        .byte $22
  $F64D  22        .byte $22
  $F64E  2D        .byte $2D
  $F64F  DD        .byte $DD
  $F650  DD        .byte $DD
  $F651  55        .byte $55
  $F652  5D        .byte $5D
  $F653  DD        .byte $DD
  $F654  DD        .byte $DD
  $F655  DD        .byte $DD
  $F656  77        .byte $77
  $F657  7D        .byte $7D
  $F658  22        .byte $22
  $F659  2D        .byte $2D
  $F65A  DD        .byte $DD
  $F65B  DD        .byte $DD
  $F65C  DD        .byte $DD
  $F65D  00        .byte $00
  $F65E  0D        .byte $0D
  $F65F  77        .byte $77
  $F660  75        .byte $75
  $F661  DD        .byte $DD
  $F662  DD        .byte $DD
  $F663  D7        .byte $D7
  $F664  55        .byte $55
  $F665  5D        .byte $5D
  $F666  DD        .byte $DD
  $F667  DD        .byte $DD
  $F668  1D        .byte $1D
  $F669  DD        .byte $DD
  $F66A  1D        .byte $1D
  $F66B  DD        .byte $DD
  $F66C  DD        .byte $DD
  $F66D  D4        .byte $D4
  $F66E  44        .byte $44
  $F66F  4D        .byte $4D
  $F670  DD        .byte $DD
  $F671  44        .byte $44
  $F672  44        .byte $44
  $F673  DD        .byte $DD
  $F674  D4        .byte $D4
  $F675  DD        .byte $DD
  $F676  DD        .byte $DD
  $F677  4D        .byte $4D
  $F678  DD        .byte $DD
  $F679  D9        .byte $D9
  $F67A  DD        .byte $DD
  $F67B  D9        .byte $D9
  $F67C  D4        .byte $D4
  $F67D  3D        .byte $3D
  $F67E  DD        .byte $DD
  $F67F  34        .byte $34
  $F680  D4        .byte $D4
  $F681  4D        .byte $4D
  $F682  D4        .byte $D4
  $F683  D2        .byte $D2
  $F684  B6        .byte $B6
  $F685  96        .byte $96
  $F686  B0        .byte $B0
  $F687  D9        .byte $D9
  $F688  4D        .byte $4D
  $F689  D3        .byte $D3
  $F68A  DD        .byte $DD
  $F68B  BB        .byte $BB
  $F68C  BB        .byte $BB
  $F68D  BD        .byte $BD
  $F68E  D8        .byte $D8
  $F68F  4D        .byte $4D
  $F690  46        .byte $46
  $F691  DD        .byte $DD
  $F692  BB        .byte $BB
  $F693  BB        .byte $BB
  $F694  BD        .byte $BD
  $F695  D1        .byte $D1
  $F696  4D        .byte $4D
  $F697  49        .byte $49
  $F698  D2        .byte $D2
  $F699  B8        .byte $B8
  $F69A  98        .byte $98
  $F69B  B0        .byte $B0
  $F69C  D4        .byte $D4
  $F69D  DD        .byte $DD
  $F69E  44        .byte $44
  $F69F  D4        .byte $D4
  $F6A0  1D        .byte $1D
  $F6A1  DD        .byte $DD
  $F6A2  14        .byte $14
  $F6A3  D9        .byte $D9
  $F6A4  DD        .byte $DD
  $F6A5  49        .byte $49
  $F6A6  DD        .byte $DD
  $F6A7  DD        .byte $DD
  $F6A8  4D        .byte $4D
  $F6A9  DD        .byte $DD
  $F6AA  D4        .byte $D4
  $F6AB  DD        .byte $DD
  $F6AC  44        .byte $44
  $F6AD  44        .byte $44
  $F6AE  4D        .byte $4D
  $F6AF  DD        .byte $DD
  $F6B0  44        .byte $44
  $F6B1  49        .byte $49
  $F6B2  9D        .byte $9D
  $F6B3  44        .byte $44
  $F6B4  DD        .byte $DD
  $F6B5  3D        .byte $3D
  $F6B6  DD        .byte $DD
  $F6B7  3D        .byte $3D
  $F6B8  D4        .byte $D4
  $F6B9  DD        .byte $DD
  $F6BA  44        .byte $44
  $F6BB  DD        .byte $DD
  $F6BC  DD        .byte $DD
  $F6BD  DD        .byte $DD
  $F6BE  DD        .byte $DD
  $F6BF  DD        .byte $DD
  $F6C0  DD        .byte $DD
  $F6C1  DD        .byte $DD
  $F6C2  4D        .byte $4D
  $F6C3  D4        .byte $D4
  $F6C4  D1        .byte $D1
  $F6C5  D4        .byte $D4
  $F6C6  DD        .byte $DD
  $F6C7  DD        .byte $DD
  $F6C8  B4        .byte $B4
  $F6C9  44        .byte $44
  $F6CA  D4        .byte $D4
  $F6CB  D6        .byte $D6
  $F6CC  D4        .byte $D4
  $F6CD  2D        .byte $2D
  $F6CE  DD        .byte $DD
  $F6CF  BB        .byte $BB
  $F6D0  BD        .byte $BD
  $F6D1  D3        .byte $D3
  $F6D2  D4        .byte $D4
  $F6D3  D3        .byte $D3
  $F6D4  D0        .byte $D0
  $F6D5  2D        .byte $2D
  $F6D6  BA        .byte $BA
  $F6D7  AA        .byte $AA
  $F6D8  AA        .byte $AA
  $F6D9  AA        .byte $AA
  $F6DA  AA        .byte $AA
  $F6DB  AD        .byte $AD
  $F6DC  AD        .byte $AD
  $F6DD  D4        .byte $D4
  $F6DE  DD        .byte $DD
  $F6DF  DD        .byte $DD
  $F6E0  11        .byte $11
  $F6E1  DD        .byte $DD
  $F6E2  DD        .byte $DD
  $F6E3  DD        .byte $DD
  $F6E4  DD        .byte $DD
  $F6E5  4D        .byte $4D
  $F6E6  D0        .byte $D0
  $F6E7  44        .byte $44
  $F6E8  34        .byte $34
  $F6E9  38        .byte $38
  $F6EA  8D        .byte $8D
  $F6EB  44        .byte $44
  $F6EC  D4        .byte $D4
  $F6ED  D0        .byte $D0
  $F6EE  44        .byte $44
  $F6EF  B4        .byte $B4
  $F6F0  66        .byte $66
  $F6F1  4D        .byte $4D
  $F6F2  DD        .byte $DD
  $F6F3  D9        .byte $D9
  $F6F4  D6        .byte $D6
  $F6F5  DB        .byte $DB
  $F6F6  BB        .byte $BB
  $F6F7  BD        .byte $BD
  $F6F8  DD        .byte $DD
  $F6F9  AA        .byte $AA
  $F6FA  DA        .byte $DA
  $F6FB  AA        .byte $AA
  $F6FC  AA        .byte $AA
  $F6FD  DA        .byte $DA
  $F6FE  AA        .byte $AA
  $F6FF  AD        .byte $AD
  $F700  BB        .byte $BB
  $F701  D0        .byte $D0
  $F702  DD        .byte $DD
  $F703  11        .byte $11
  $F704  DD        .byte $DD
  $F705  DD        .byte $DD
  $F706  DD        .byte $DD
  $F707  BB        .byte $BB
  $F708  4D        .byte $4D
  $F709  2D        .byte $2D
  $F70A  D0        .byte $D0
  $F70B  D6        .byte $D6
  $F70C  14        .byte $14
  $F70D  DD        .byte $DD
  $F70E  B6        .byte $B6
  $F70F  4D        .byte $4D
  $F710  2D        .byte $2D
  $F711  DD        .byte $DD
  $F712  D3        .byte $D3
  $F713  D4        .byte $D4
  $F714  DD        .byte $DD
  $F715  DD        .byte $DD
  $F716  DD        .byte $DD
  $F717  DD        .byte $DD
  $F718  DD        .byte $DD
  $F719  D1        .byte $D1
  $F71A  D3        .byte $D3
  $F71B  DD        .byte $DD
  $F71C  DD        .byte $DD
  $F71D  D4        .byte $D4
  $F71E  DD        .byte $DD
  $F71F  DD        .byte $DD
  $F720  D6        .byte $D6
  $F721  BD        .byte $BD
  $F722  DD        .byte $DD
  $F723  4D        .byte $4D
  $F724  DD        .byte $DD
  $F725  DD        .byte $DD
  $F726  6B        .byte $6B
  $F727  59        .byte $59
  $F728  7D        .byte $7D
  $F729  4D        .byte $4D
  $F72A  DD        .byte $DD
  $F72B  D6        .byte $D6
  $F72C  B5        .byte $B5
  $F72D  97        .byte $97
  $F72E  D8        .byte $D8
  $F72F  BD        .byte $BD
  $F730  DD        .byte $DD
  $F731  DD        .byte $DD
  $F732  59        .byte $59
  $F733  7D        .byte $7D
  $F734  8B        .byte $8B
  $F735  DD        .byte $DD
  $F736  DD        .byte $DD
  $F737  DD        .byte $DD
  $F738  DD        .byte $DD
  $F739  D8        .byte $D8
  $F73A  BD        .byte $BD
  $F73B  DD        .byte $DD
  $F73C  DD        .byte $DD
  $F73D  DD        .byte $DD
  $F73E  DD        .byte $DD
  $F73F  DD        .byte $DD
  $F740  DB        .byte $DB
  $F741  6B        .byte $6B
  $F742  DB        .byte $DB
  $F743  6B        .byte $6B
  $F744  DD        .byte $DD
  $F745  DD        .byte $DD
  $F746  94        .byte $94
  $F747  D5        .byte $D5
  $F748  97        .byte $97
  $F749  D5        .byte $D5
  $F74A  97        .byte $97
  $F74B  D4        .byte $D4
  $F74C  9D        .byte $9D
  $F74D  DD        .byte $DD
  $F74E  DB        .byte $DB
  $F74F  8B        .byte $8B
  $F750  DB        .byte $DB
  $F751  8B        .byte $8B
  $F752  DD        .byte $DD
  $F753  DD        .byte $DD
  $F754  DD        .byte $DD
  $F755  DD        .byte $DD
  $F756  6D        .byte $6D
  $F757  DD        .byte $DD
  $F758  6D        .byte $6D
  $F759  DD        .byte $DD
  $F75A  DD        .byte $DD
  $F75B  4D        .byte $4D
  $F75C  D5        .byte $D5
  $F75D  97        .byte $97
  $F75E  D5        .byte $D5
  $F75F  97        .byte $97
  $F760  DD        .byte $DD
  $F761  4D        .byte $4D
  $F762  4D        .byte $4D
  $F763  DB        .byte $DB
  $F764  8B        .byte $8B
  $F765  DB        .byte $DB
  $F766  8B        .byte $8B
  $F767  DD        .byte $DD
  $F768  4D        .byte $4D
  $F769  DD        .byte $DD
  $F76A  1D        .byte $1D
  $F76B  DD        .byte $DD
  $F76C  DD        .byte $DD
  $F76D  DD        .byte $DD
  $F76E  1D        .byte $1D
  $F76F  DD        .byte $DD
  $F770  DD        .byte $DD
  $F771  44        .byte $44
  $F772  DD        .byte $DD
  $F773  DD        .byte $DD
  $F774  D4        .byte $D4
  $F775  4D        .byte $4D
  $F776  DD        .byte $DD
  $F777  DD        .byte $DD
  $F778  DD        .byte $DD
  $F779  44        .byte $44
  $F77A  DD        .byte $DD
  $F77B  4D        .byte $4D
  $F77C  DD        .byte $DD
  $F77D  DD        .byte $DD
  $F77E  DB        .byte $DB
  $F77F  B4        .byte $B4
  $F780  4D        .byte $4D
  $F781  DD        .byte $DD
  $F782  4D        .byte $4D
  $F783  DD        .byte $DD
  $F784  DD        .byte $DD
  $F785  BB        .byte $BB
  $F786  BB        .byte $BB
  $F787  BB        .byte $BB
  $F788  BB        .byte $BB
  $F789  44        .byte $44
  $F78A  DD        .byte $DD
  $F78B  DD        .byte $DD
  $F78C  B8        .byte $B8
  $F78D  4B        .byte $4B
  $F78E  44        .byte $44
  $F78F  4B        .byte $4B
  $F790  BB        .byte $BB
  $F791  B4        .byte $B4
  $F792  9D        .byte $9D
  $F793  BB        .byte $BB
  $F794  4B        .byte $4B
  $F795  BB        .byte $BB
  $F796  8B        .byte $8B
  $F797  B4        .byte $B4
  $F798  74        .byte $74
  $F799  DD        .byte $DD
  $F79A  DB        .byte $DB
  $F79B  B4        .byte $B4
  $F79C  6B        .byte $6B
  $F79D  BB        .byte $BB
  $F79E  B4        .byte $B4
  $F79F  D4        .byte $D4
  $F7A0  DD        .byte $DD
  $F7A1  D4        .byte $D4
  $F7A2  44        .byte $44
  $F7A3  44        .byte $44
  $F7A4  BB        .byte $BB
  $F7A5  44        .byte $44
  $F7A6  2B        .byte $2B
  $F7A7  BD        .byte $BD
  $F7A8  58        .byte $58
  $F7A9  44        .byte $44
  $F7AA  DD        .byte $DD
  $F7AB  D4        .byte $D4
  $F7AC  3D        .byte $3D
  $F7AD  DD        .byte $DD
  $F7AE  BD        .byte $BD
  $F7AF  D4        .byte $D4
  $F7B0  D4        .byte $D4
  $F7B1  D6        .byte $D6
  $F7B2  13        .byte $13
  $F7B3  BB        .byte $BB
  $F7B4  42        .byte $42
  $F7B5  BD        .byte $BD
  $F7B6  D4        .byte $D4
  $F7B7  DD        .byte $DD
  $F7B8  04        .byte $04
  $F7B9  3B        .byte $3B
  $F7BA  B4        .byte $B4
  $F7BB  DD        .byte $DD
  $F7BC  BD        .byte $BD
  $F7BD  D4        .byte $D4
  $F7BE  42        .byte $42
  $F7BF  03        .byte $03
  $F7C0  BB        .byte $BB
  $F7C1  1B        .byte $1B
  $F7C2  4B        .byte $4B
  $F7C3  BD        .byte $BD
  $F7C4  DD        .byte $DD
  $F7C5  4D        .byte $4D
  $F7C6  BD        .byte $BD
  $F7C7  DD        .byte $DD
  $F7C8  4B        .byte $4B
  $F7C9  3B        .byte $3B
  $F7CA  DD        .byte $DD
  $F7CB  DD        .byte $DD
  $F7CC  3D        .byte $3D
  $F7CD  BD        .byte $BD
  $F7CE  DD        .byte $DD
  $F7CF  DB        .byte $DB
  $F7D0  BB        .byte $BB
  $F7D1  DD        .byte $DD
  $F7D2  DD        .byte $DD
  $F7D3  DD        .byte $DD
  $F7D4  DD        .byte $DD
  $F7D5  DD        .byte $DD
  $F7D6  DD        .byte $DD
  $F7D7  DD        .byte $DD
  $F7D8  DD        .byte $DD
  $F7D9  DD        .byte $DD
  $F7DA  9B        .byte $9B
  $F7DB  9D        .byte $9D
  $F7DC  DD        .byte $DD
  $F7DD  DD        .byte $DD
  $F7DE  DD        .byte $DD
  $F7DF  DD        .byte $DD
  $F7E0  DD        .byte $DD
  $F7E1  DB        .byte $DB
  $F7E2  DB        .byte $DB
  $F7E3  6D        .byte $6D
  $F7E4  DD        .byte $DD
  $F7E5  DD        .byte $DD
  $F7E6  DD        .byte $DD
  $F7E7  DB        .byte $DB
  $F7E8  DD        .byte $DD
  $F7E9  DD        .byte $DD
  $F7EA  B1        .byte $B1
  $F7EB  DD        .byte $DD
  $F7EC  DD        .byte $DD
  $F7ED  DD        .byte $DD
  $F7EE  DB        .byte $DB
  $F7EF  BD        .byte $BD
  $F7F0  DB        .byte $DB
  $F7F1  DB        .byte $DB
  $F7F2  6D        .byte $6D
  $F7F3  DD        .byte $DD
  $F7F4  DD        .byte $DD
  $F7F5  DB        .byte $DB
  $F7F6  DB        .byte $DB
  $F7F7  DB        .byte $DB
  $F7F8  DD        .byte $DD
  $F7F9  B1        .byte $B1
  $F7FA  DD        .byte $DD
  $F7FB  DD        .byte $DD
  $F7FC  DB        .byte $DB
  $F7FD  DD        .byte $DD
  $F7FE  BD        .byte $BD
  $F7FF  DD        .byte $DD
  $F800  BB        .byte $BB
  $F801  6D        .byte $6D
  $F802  DD        .byte $DD
  $F803  DD        .byte $DD
  $F804  BD        .byte $BD
  $F805  DD        .byte $DD
  $F806  DB        .byte $DB
  $F807  BB        .byte $BB
  $F808  B1        .byte $B1
  $F809  DD        .byte $DD
  $F80A  DD        .byte $DD
  $F80B  DB        .byte $DB
  $F80C  DD        .byte $DD
  $F80D  BD        .byte $BD
  $F80E  BB        .byte $BB
  $F80F  BB        .byte $BB
  $F810  DD        .byte $DD
  $F811  4D        .byte $4D
  $F812  DD        .byte $DD
  $F813  DD        .byte $DD
  $F814  BD        .byte $BD
  $F815  DB        .byte $DB
  $F816  BB        .byte $BB
  $F817  9D        .byte $9D
  $F818  44        .byte $44
  $F819  DD        .byte $DD
  $F81A  DD        .byte $DD
  $F81B  DB        .byte $DB
  $F81C  DB        .byte $DB
  $F81D  BB        .byte $BB
  $F81E  BD        .byte $BD
  $F81F  94        .byte $94
  $F820  4D        .byte $4D
  $F821  DD        .byte $DD
  $F822  DD        .byte $DD
  $F823  BD        .byte $BD
  $F824  BB        .byte $BB
  $F825  BD        .byte $BD
  $F826  99        .byte $99
  $F827  44        .byte $44
  $F828  DD        .byte $DD
  $F829  DD        .byte $DD
  $F82A  BD        .byte $BD
  $F82B  DB        .byte $DB
  $F82C  BD        .byte $BD
  $F82D  DD        .byte $DD
  $F82E  DD        .byte $DD
  $F82F  1D        .byte $1D
  $F830  DD        .byte $DD
  $F831  DD        .byte $DD
  $F832  1D        .byte $1D
  $F833  DD        .byte $DD
  $F834  D4        .byte $D4
  $F835  D4        .byte $D4
  $F836  4D        .byte $4D
  $F837  DC        .byte $DC
  $F838  CC        .byte $CC
  $F839  44        .byte $44
  $F83A  DD        .byte $DD
  $F83B  D4        .byte $D4
  $F83C  DD        .byte $DD
  $F83D  4D        .byte $4D
  $F83E  9C        .byte $9C
  $F83F  CC        .byte $CC
  $F840  CC        .byte $CC
  $F841  DD        .byte $DD
  $F842  CC        .byte $CC
  $F843  C7        .byte $C7
  $F844  4D        .byte $4D
  $F845  D4        .byte $D4
  $F846  CC        .byte $CC
  $F847  CC        .byte $CC
  $F848  DD        .byte $DD
  $F849  CC        .byte $CC
  $F84A  CC        .byte $CC
  $F84B  CC        .byte $CC
  $F84C  44        .byte $44
  $F84D  02        .byte $02
  $F84E  DD        .byte $DD
  $F84F  DD        .byte $DD
  $F850  DD        .byte $DD
  $F851  5C        .byte $5C
  $F852  CC        .byte $CC
  $F853  C4        .byte $C4
  $F854  02        .byte $02
  $F855  D8        .byte $D8
  $F856  8D        .byte $8D
  $F857  44        .byte $44
  $F858  44        .byte $44
  $F859  CC        .byte $CC
  $F85A  CC        .byte $CC
  $F85B  CC        .byte $CC
  $F85C  C4        .byte $C4
  $F85D  4D        .byte $4D
  $F85E  DD        .byte $DD
  $F85F  D4        .byte $D4
  $F860  4C        .byte $4C
  $F861  CC        .byte $CC
  $F862  C7        .byte $C7
  $F863  DD        .byte $DD
  $F864  DD        .byte $DD
  $F865  D4        .byte $D4
  $F866  44        .byte $44
  $F867  DC        .byte $DC
  $F868  CC        .byte $CC
  $F869  44        .byte $44
  $F86A  D4        .byte $D4
  $F86B  DD        .byte $DD
  $F86C  CC        .byte $CC
  $F86D  C4        .byte $C4
  $F86E  CD        .byte $CD
  $F86F  DD        .byte $DD
  $F870  D4        .byte $D4
  $F871  D4        .byte $D4
  $F872  DD        .byte $DD
  $F873  CC        .byte $CC
  $F874  CC        .byte $CC
  $F875  C8        .byte $C8
  $F876  D8        .byte $D8
  $F877  DD        .byte $DD
  $F878  14        .byte $14
  $F879  DD        .byte $DD
  $F87A  4C        .byte $4C
  $F87B  CC        .byte $CC
  $F87C  CD        .byte $CD
  $F87D  DD        .byte $DD
  $F87E  D4        .byte $D4
  $F87F  DD        .byte $DD
  $F880  DD        .byte $DD
  $F881  44        .byte $44
  $F882  7D        .byte $7D
  $F883  DD        .byte $DD
  $F884  DD        .byte $DD
  $F885  D4        .byte $D4
  $F886  D4        .byte $D4
  $F887  DD        .byte $DD
  $F888  DD        .byte $DD
  $F889  DD        .byte $DD
  $F88A  DD        .byte $DD
  $F88B  DD        .byte $DD
  $F88C  99        .byte $99
  $F88D  9B        .byte $9B
  $F88E  DD        .byte $DD
  $F88F  D4        .byte $D4
  $F890  DD        .byte $DD
  $F891  DD        .byte $DD
  $F892  DD        .byte $DD
  $F893  9D        .byte $9D
  $F894  D9        .byte $D9
  $F895  DD        .byte $DD
  $F896  4B        .byte $4B
  $F897  4D        .byte $4D
  $F898  DD        .byte $DD
  $F899  44        .byte $44
  $F89A  44        .byte $44
  $F89B  D9        .byte $D9
  $F89C  DD        .byte $DD
  $F89D  D4        .byte $D4
  $F89E  B4        .byte $B4
  $F89F  DD        .byte $DD
  $F8A0  4D        .byte $4D
  $F8A1  B4        .byte $B4
  $F8A2  99        .byte $99
  $F8A3  DD        .byte $DD
  $F8A4  DD        .byte $DD
  $F8A5  4D        .byte $4D
  $F8A6  B9        .byte $B9
  $F8A7  4B        .byte $4B
  $F8A8  D4        .byte $D4
  $F8A9  DD        .byte $DD
  $F8AA  DD        .byte $DD
  $F8AB  DD        .byte $DD
  $F8AC  DD        .byte $DD
  $F8AD  9D        .byte $9D
  $F8AE  49        .byte $49
  $F8AF  44        .byte $44
  $F8B0  DD        .byte $DD
  $F8B1  DD        .byte $DD
  $F8B2  DD        .byte $DD
  $F8B3  44        .byte $44
  $F8B4  94        .byte $94
  $F8B5  D9        .byte $D9
  $F8B6  DD        .byte $DD
  $F8B7  DD        .byte $DD
  $F8B8  DD        .byte $DD
  $F8B9  DD        .byte $DD
  $F8BA  4D        .byte $4D
  $F8BB  B4        .byte $B4
  $F8BC  9B        .byte $9B
  $F8BD  DD        .byte $DD
  $F8BE  DD        .byte $DD
  $F8BF  DD        .byte $DD
  $F8C0  99        .byte $99
  $F8C1  9B        .byte $9B
  $F8C2  D4        .byte $D4
  $F8C3  DD        .byte $DD
  $F8C4  44        .byte $44
  $F8C5  DD        .byte $DD
  $F8C6  DD        .byte $DD
  $F8C7  9D        .byte $9D
  $F8C8  44        .byte $44
  $F8C9  44        .byte $44
  $F8CA  DD        .byte $DD
  $F8CB  49        .byte $49
  $F8CC  9D        .byte $9D
  $F8CD  DD        .byte $DD
  $F8CE  9D        .byte $9D
  $F8CF  D9        .byte $D9
  $F8D0  DD        .byte $DD
  $F8D1  DD        .byte $DD
  $F8D2  D9        .byte $D9
  $F8D3  44        .byte $44
  $F8D4  DD        .byte $DD
  $F8D5  B9        .byte $B9
  $F8D6  99        .byte $99
  $F8D7  DD        .byte $DD
  $F8D8  DD        .byte $DD
  $F8D9  DD        .byte $DD
  $F8DA  49        .byte $49
  $F8DB  9D        .byte $9D
  $F8DC  DD        .byte $DD
  $F8DD  DD        .byte $DD
  $F8DE  DD        .byte $DD
  $F8DF  DD        .byte $DD
  $F8E0  DD        .byte $DD
  $F8E1  D9        .byte $D9
  $F8E2  9D        .byte $9D
  $F8E3  D4        .byte $D4
  $F8E4  D4        .byte $D4
  $F8E5  D4        .byte $D4
  $F8E6  D4        .byte $D4
  $F8E7  D4        .byte $D4
  $F8E8  D4        .byte $D4
  $F8E9  DD        .byte $DD
  $F8EA  D4        .byte $D4
  $F8EB  D4        .byte $D4
  $F8EC  D4        .byte $D4
  $F8ED  D4        .byte $D4
  $F8EE  D4        .byte $D4
  $F8EF  D4        .byte $D4
  $F8F0  DD        .byte $DD
  $F8F1  D8        .byte $D8
  $F8F2  D8        .byte $D8
  $F8F3  D8        .byte $D8
  $F8F4  D8        .byte $D8
  $F8F5  D8        .byte $D8
  $F8F6  D8        .byte $D8
  $F8F7  DD        .byte $DD
  $F8F8  1D        .byte $1D
  $F8F9  1D        .byte $1D
  $F8FA  4D        .byte $4D
  $F8FB  DD        .byte $DD
  $F8FC  4D        .byte $4D
  $F8FD  1D        .byte $1D
  $F8FE  1D        .byte $1D
  $F8FF  4D        .byte $4D
  $F900  43        .byte $43
  $F901  4D        .byte $4D
  $F902  4D        .byte $4D
  $F903  43        .byte $43
  $F904  4D        .byte $4D
  $F905  4D        .byte $4D
  $F906  8D        .byte $8D
  $F907  8D        .byte $8D
  $F908  9D        .byte $9D
  $F909  8D        .byte $8D
  $F90A  9D        .byte $9D
  $F90B  8D        .byte $8D
  $F90C  8D        .byte $8D
  $F90D  BB        .byte $BB
  $F90E  DD        .byte $DD
  $F90F  4D        .byte $4D
  $F910  BD        .byte $BD
  $F911  4D        .byte $4D
  $F912  DB        .byte $DB
  $F913  BD        .byte $BD
  $F914  BB        .byte $BB
  $F915  BB        .byte $BB
  $F916  43        .byte $43
  $F917  B3        .byte $B3
  $F918  4B        .byte $4B
  $F919  BB        .byte $BB
  $F91A  BD        .byte $BD
  $F91B  BB        .byte $BB
  $F91C  BB        .byte $BB
  $F91D  BB        .byte $BB
  $F91E  BB        .byte $BB
  $F91F  BB        .byte $BB
  $F920  BB        .byte $BB
  $F921  BD        .byte $BD
  $F922  1D        .byte $1D
  $F923  1D        .byte $1D
  $F924  4B        .byte $4B
  $F925  BB        .byte $BB
  $F926  4D        .byte $4D
  $F927  1D        .byte $1D
  $F928  1D        .byte $1D
  $F929  D4        .byte $D4
  $F92A  D4        .byte $D4
  $F92B  DD        .byte $DD
  $F92C  BD        .byte $BD
  $F92D  D4        .byte $D4
  $F92E  D4        .byte $D4
  $F92F  DD        .byte $DD
  $F930  D4        .byte $D4
  $F931  D4        .byte $D4
  $F932  DD        .byte $DD
  $F933  DD        .byte $DD
  $F934  D4        .byte $D4
  $F935  D4        .byte $D4
  $F936  DD        .byte $DD
  $F937  D3        .byte $D3
  $F938  D3        .byte $D3
  $F939  DD        .byte $DD
  $F93A  DD        .byte $DD
  $F93B  D3        .byte $D3
  $F93C  D3        .byte $D3
  $F93D  DD        .byte $DD
  $F93E  DD        .byte $DD
  $F93F  DA        .byte $DA
  $F940  D4        .byte $D4
  $F941  DD        .byte $DD
  $F942  4D        .byte $4D
  $F943  4D        .byte $4D
  $F944  DD        .byte $DD
  $F945  DD        .byte $DD
  $F946  DD        .byte $DD
  $F947  DD        .byte $DD
  $F948  DD        .byte $DD
  $F949  4D        .byte $4D
  $F94A  9D        .byte $9D
  $F94B  DD        .byte $DD
  $F94C  DD        .byte $DD
  $F94D  DA        .byte $DA
  $F94E  D1        .byte $D1
  $F94F  9D        .byte $9D
  $F950  4D        .byte $4D
  $F951  4D        .byte $4D
  $F952  DD        .byte $DD
  $F953  8D        .byte $8D
  $F954  4A        .byte $4A
  $F955  D9        .byte $D9
  $F956  D1        .byte $D1
  $F957  3D        .byte $3D
  $F958  4D        .byte $4D
  $F959  DD        .byte $DD
  $F95A  DD        .byte $DD
  $F95B  4A        .byte $4A
  $F95C  DD        .byte $DD
  $F95D  D4        .byte $D4
  $F95E  DD        .byte $DD
  $F95F  DD        .byte $DD
  $F960  DD        .byte $DD
  $F961  4D        .byte $4D
  $F962  4A        .byte $4A
  $F963  AD        .byte $AD
  $F964  AA        .byte $AA
  $F965  AA        .byte $AA
  $F966  DD        .byte $DD
  $F967  4D        .byte $4D
  $F968  DD        .byte $DD
  $F969  D1        .byte $D1
  $F96A  DD        .byte $DD
  $F96B  DB        .byte $DB
  $F96C  DA        .byte $DA
  $F96D  D8        .byte $D8
  $F96E  8D        .byte $8D
  $F96F  44        .byte $44
  $F970  04        .byte $04
  $F971  D9        .byte $D9
  $F972  BB        .byte $BB
  $F973  BA        .byte $BA
  $F974  D1        .byte $D1
  $F975  1D        .byte $1D
  $F976  3D        .byte $3D
  $F977  0D        .byte $0D
  $F978  D4        .byte $D4
  $F979  BB        .byte $BB
  $F97A  BA        .byte $BA
  $F97B  D4        .byte $D4
  $F97C  DD        .byte $DD
  $F97D  D6        .byte $D6
  $F97E  DD        .byte $DD
  $F97F  D4        .byte $D4
  $F980  DB        .byte $DB
  $F981  DA        .byte $DA
  $F982  DB        .byte $DB
  $F983  DD        .byte $DD
  $F984  D4        .byte $D4
  $F985  D6        .byte $D6
  $F986  D3        .byte $D3
  $F987  33        .byte $33
  $F988  DD        .byte $DD
  $F989  BB        .byte $BB
  $F98A  BD        .byte $BD
  $F98B  D4        .byte $D4
  $F98C  D4        .byte $D4
  $F98D  DD        .byte $DD
  $F98E  DD        .byte $DD
  $F98F  DA        .byte $DA
  $F990  BB        .byte $BB
  $F991  BD        .byte $BD
  $F992  DD        .byte $DD
  $F993  DD        .byte $DD
  $F994  DD        .byte $DD
  $F995  DD        .byte $DD
  $F996  DA        .byte $DA
  $F997  DB        .byte $DB
  $F998  DD        .byte $DD
  $F999  DD        .byte $DD
  $F99A  D1        .byte $D1
  $F99B  11        .byte $11
  $F99C  DD        .byte $DD
  $F99D  1D        .byte $1D
  $F99E  DD        .byte $DD
  $F99F  DD        .byte $DD
  $F9A0  D1        .byte $D1
  $F9A1  44        .byte $44
  $F9A2  44        .byte $44
  $F9A3  44        .byte $44
  $F9A4  44        .byte $44
  $F9A5  DD        .byte $DD
  $F9A6  DD        .byte $DD
  $F9A7  DB        .byte $DB
  $F9A8  BB        .byte $BB
  $F9A9  BB        .byte $BB
  $F9AA  BB        .byte $BB
  $F9AB  B4        .byte $B4
  $F9AC  4D        .byte $4D
  $F9AD  DD        .byte $DD
  $F9AE  BB        .byte $BB
  $F9AF  DD        .byte $DD
  $F9B0  DD        .byte $DD
  $F9B1  DD        .byte $DD
  $F9B2  BB        .byte $BB
  $F9B3  44        .byte $44
  $F9B4  DD        .byte $DD
  $F9B5  BD        .byte $BD
  $F9B6  9D        .byte $9D
  $F9B7  D9        .byte $D9
  $F9B8  DD        .byte $DD
  $F9B9  DB        .byte $DB
  $F9BA  BB        .byte $BB
  $F9BB  DD        .byte $DD
  $F9BC  BD        .byte $BD
  $F9BD  9D        .byte $9D
  $F9BE  D9        .byte $D9
  $F9BF  DD        .byte $DD
  $F9C0  DB        .byte $DB
  $F9C1  BB        .byte $BB
  $F9C2  DD        .byte $DD
  $F9C3  BD        .byte $BD
  $F9C4  DB        .byte $DB
  $F9C5  DD        .byte $DD
  $F9C6  DD        .byte $DD
  $F9C7  BB        .byte $BB
  $F9C8  44        .byte $44
  $F9C9  2D        .byte $2D
  $F9CA  BB        .byte $BB
  $F9CB  BB        .byte $BB
  $F9CC  BB        .byte $BB
  $F9CD  BB        .byte $BB
  $F9CE  B4        .byte $B4
  $F9CF  44        .byte $44
  $F9D0  2D        .byte $2D
  $F9D1  4B        .byte $4B
  $F9D2  B4        .byte $B4
  $F9D3  4B        .byte $4B
  $F9D4  BB        .byte $BB
  $F9D5  44        .byte $44
  $F9D6  44        .byte $44
  $F9D7  DD        .byte $DD
  $F9D8  D4        .byte $D4
  $F9D9  44        .byte $44
  $F9DA  44        .byte $44
  $F9DB  44        .byte $44
  $F9DC  44        .byte $44
  $F9DD  4D        .byte $4D
  $F9DE  9D        .byte $9D
  $F9DF  9D        .byte $9D
  $F9E0  49        .byte $49
  $F9E1  44        .byte $44
  $F9E2  44        .byte $44
  $F9E3  44        .byte $44
  $F9E4  2D        .byte $2D
  $F9E5  9D        .byte $9D
  $F9E6  D9        .byte $D9
  $F9E7  43        .byte $43
  $F9E8  94        .byte $94
  $F9E9  44        .byte $44
  $F9EA  44        .byte $44
  $F9EB  99        .byte $99
  $F9EC  9D        .byte $9D
  $F9ED  DD        .byte $DD
  $F9EE  DD        .byte $DD
  $F9EF  DD        .byte $DD
  $F9F0  DD        .byte $DD
  $F9F1  DD        .byte $DD
  $F9F2  DD        .byte $DD
  $F9F3  DD        .byte $DD
  $F9F4  DD        .byte $DD
  $F9F5  DD        .byte $DD
  $F9F6  DB        .byte $DB
  $F9F7  DD        .byte $DD
  $F9F8  DD        .byte $DD
  $F9F9  DD        .byte $DD
  $F9FA  DD        .byte $DD
  $F9FB  DD        .byte $DD
  $F9FC  DD        .byte $DD
  $F9FD  B9        .byte $B9
  $F9FE  BD        .byte $BD
  $F9FF  DD        .byte $DD
  $FA00  DD        .byte $DD
  $FA01  DD        .byte $DD
  $FA02  DD        .byte $DD
  $FA03  BD        .byte $BD
  $FA04  DB        .byte $DB
  $FA05  DD        .byte $DD
  $FA06  BB        .byte $BB
  $FA07  DD        .byte $DD
  $FA08  DD        .byte $DD
  $FA09  DB        .byte $DB
  $FA0A  4B        .byte $4B
  $FA0B  DD        .byte $DD
  $FA0C  DB        .byte $DB
  $FA0D  44        .byte $44
  $FA0E  BD        .byte $BD
  $FA0F  DD        .byte $DD
  $FA10  DD        .byte $DD
  $FA11  B4        .byte $B4
  $FA12  BD        .byte $BD
  $FA13  DD        .byte $DD
  $FA14  BB        .byte $BB
  $FA15  DD        .byte $DD
  $FA16  BD        .byte $BD
  $FA17  BD        .byte $BD
  $FA18  DB        .byte $DB
  $FA19  DD        .byte $DD
  $FA1A  BD        .byte $BD
  $FA1B  DD        .byte $DD
  $FA1C  DB        .byte $DB
  $FA1D  9D        .byte $9D
  $FA1E  4B        .byte $4B
  $FA1F  DD        .byte $DD
  $FA20  DB        .byte $DB
  $FA21  9B        .byte $9B
  $FA22  DD        .byte $DD
  $FA23  BD        .byte $BD
  $FA24  BD        .byte $BD
  $FA25  94        .byte $94
  $FA26  BD        .byte $BD
  $FA27  DD        .byte $DD
  $FA28  BD        .byte $BD
  $FA29  DB        .byte $DB
  $FA2A  9B        .byte $9B
  $FA2B  DD        .byte $DD
  $FA2C  4B        .byte $4B
  $FA2D  DD        .byte $DD
  $FA2E  BD        .byte $BD
  $FA2F  DD        .byte $DD
  $FA30  BD        .byte $BD
  $FA31  BD        .byte $BD
  $FA32  DD        .byte $DD
  $FA33  BD        .byte $BD
  $FA34  DB        .byte $DB
  $FA35  4B        .byte $4B
  $FA36  DB        .byte $DB
  $FA37  4B        .byte $4B
  $FA38  DD        .byte $DD
  $FA39  DD        .byte $DD
  $FA3A  DD        .byte $DD
  $FA3B  DB        .byte $DB
  $FA3C  4B        .byte $4B
  $FA3D  DD        .byte $DD
  $FA3E  BD        .byte $BD
  $FA3F  DB        .byte $DB
  $FA40  DD        .byte $DD
  $FA41  DB        .byte $DB
  $FA42  DD        .byte $DD
  $FA43  BD        .byte $BD
  $FA44  DD        .byte $DD
  $FA45  DD        .byte $DD
  $FA46  B9        .byte $B9
  $FA47  BD        .byte $BD
  $FA48  B9        .byte $B9
  $FA49  BD        .byte $BD
  $FA4A  DD        .byte $DD
  $FA4B  DD        .byte $DD
  $FA4C  DB        .byte $DB
  $FA4D  4B        .byte $4B
  $FA4E  DD        .byte $DD
  $FA4F  DD        .byte $DD
  $FA50  DD        .byte $DD
  $FA51  DD        .byte $DD
  $FA52  DD        .byte $DD
  $FA53  DD        .byte $DD
  $FA54  DD        .byte $DD
  $FA55  DD        .byte $DD
  $FA56  DD        .byte $DD
  $FA57  DD        .byte $DD
  $FA58  D9        .byte $D9
  $FA59  9D        .byte $9D
  $FA5A  DD        .byte $DD
  $FA5B  DD        .byte $DD
  $FA5C  DD        .byte $DD
  $FA5D  DD        .byte $DD
  $FA5E  DD        .byte $DD
  $FA5F  DD        .byte $DD
  $FA60  9D        .byte $9D
  $FA61  DD        .byte $DD
  $FA62  DD        .byte $DD
  $FA63  DD        .byte $DD
  $FA64  D9        .byte $D9
  $FA65  9B        .byte $9B
  $FA66  B4        .byte $B4
  $FA67  94        .byte $94
  $FA68  BB        .byte $BB
  $FA69  99        .byte $99
  $FA6A  DD        .byte $DD
  $FA6B  DD        .byte $DD
  $FA6C  D9        .byte $D9
  $FA6D  BB        .byte $BB
  $FA6E  9B        .byte $9B
  $FA6F  B9        .byte $B9
  $FA70  DD        .byte $DD
  $FA71  DD        .byte $DD
  $FA72  BD        .byte $BD
  $FA73  DD        .byte $DD
  $FA74  9B        .byte $9B
  $FA75  BB        .byte $BB
  $FA76  9D        .byte $9D
  $FA77  DD        .byte $DD
  $FA78  BD        .byte $BD
  $FA79  9B        .byte $9B
  $FA7A  DD        .byte $DD
  $FA7B  DB        .byte $DB
  $FA7C  BB        .byte $BB
  $FA7D  DD        .byte $DD
  $FA7E  DB        .byte $DB
  $FA7F  9D        .byte $9D
  $FA80  BD        .byte $BD
  $FA81  DD        .byte $DD
  $FA82  68        .byte $68
  $FA83  B8        .byte $B8
  $FA84  6D        .byte $6D
  $FA85  DD        .byte $DD
  $FA86  BD        .byte $BD
  $FA87  DD        .byte $DD
  $FA88  DD        .byte $DD
  $FA89  9D        .byte $9D
  $FA8A  6D        .byte $6D
  $FA8B  9D        .byte $9D
  $FA8C  DD        .byte $DD
  $FA8D  DD        .byte $DD
  $FA8E  DD        .byte $DD
  $FA8F  D9        .byte $D9
  $FA90  DD        .byte $DD
  $FA91  9D        .byte $9D
  $FA92  D9        .byte $D9
  $FA93  DD        .byte $DD
  $FA94  DD        .byte $DD
  $FA95  DD        .byte $DD
  $FA96  DD        .byte $DD
  $FA97  DD        .byte $DD
  $FA98  DD        .byte $DD
  $FA99  DD        .byte $DD
  $FA9A  DD        .byte $DD
  $FA9B  DD        .byte $DD
  $FA9C  DD        .byte $DD
  $FA9D  DD        .byte $DD
  $FA9E  DD        .byte $DD
  $FA9F  DD        .byte $DD
  $FAA0  DD        .byte $DD
  $FAA1  DD        .byte $DD
  $FAA2  DD        .byte $DD
  $FAA3  DD        .byte $DD
  $FAA4  9D        .byte $9D
  $FAA5  DD        .byte $DD
  $FAA6  DD        .byte $DD
  $FAA7  DD        .byte $DD
  $FAA8  9D        .byte $9D
  $FAA9  DD        .byte $DD
  $FAAA  DD        .byte $DD
  $FAAB  9D        .byte $9D
  $FAAC  48        .byte $48
  $FAAD  DD        .byte $DD
  $FAAE  DD        .byte $DD
  $FAAF  0D        .byte $0D
  $FAB0  DD        .byte $DD
  $FAB1  DD        .byte $DD
  $FAB2  4D        .byte $4D
  $FAB3  4B        .byte $4B
  $FAB4  D3        .byte $D3
  $FAB5  44        .byte $44
  $FAB6  4D        .byte $4D
  $FAB7  DD        .byte $DD
  $FAB8  DB        .byte $DB
  $FAB9  BD        .byte $BD
  $FABA  4B        .byte $4B
  $FABB  02        .byte $02
  $FABC  DD        .byte $DD
  $FABD  D9        .byte $D9
  $FABE  9D        .byte $9D
  $FABF  BB        .byte $BB
  $FAC0  BB        .byte $BB
  $FAC1  BB        .byte $BB
  $FAC2  44        .byte $44
  $FAC3  4D        .byte $4D
  $FAC4  04        .byte $04
  $FAC5  DD        .byte $DD
  $FAC6  DD        .byte $DD
  $FAC7  BB        .byte $BB
  $FAC8  11        .byte $11
  $FAC9  84        .byte $84
  $FACA  D0        .byte $D0
  $FACB  43        .byte $43
  $FACC  0D        .byte $0D
  $FACD  48        .byte $48
  $FACE  D1        .byte $D1
  $FACF  33        .byte $33
  $FAD0  DD        .byte $DD
  $FAD1  D4        .byte $D4
  $FAD2  3D        .byte $3D
  $FAD3  0D        .byte $0D
  $FAD4  0D        .byte $0D
  $FAD5  14        .byte $14
  $FAD6  CC        .byte $CC
  $FAD7  CC        .byte $CC
  $FAD8  CC        .byte $CC
  $FAD9  CC        .byte $CC
  $FADA  CD        .byte $CD
  $FADB  0D        .byte $0D
  $FADC  3D        .byte $3D
  $FADD  CC        .byte $CC
  $FADE  CC        .byte $CC
  $FADF  CC        .byte $CC
  $FAE0  CC        .byte $CC
  $FAE1  CD        .byte $CD
  $FAE2  DD        .byte $DD
  $FAE3  9D        .byte $9D
  $FAE4  CC        .byte $CC
  $FAE5  CC        .byte $CC
  $FAE6  CC        .byte $CC
  $FAE7  CC        .byte $CC
  $FAE8  CD        .byte $CD
  $FAE9  4D        .byte $4D
  $FAEA  4D        .byte $4D
  $FAEB  CC        .byte $CC
  $FAEC  CC        .byte $CC
  $FAED  CC        .byte $CC
  $FAEE  CC        .byte $CC
  $FAEF  CD        .byte $CD
  $FAF0  0D        .byte $0D
  $FAF1  4D        .byte $4D
  $FAF2  CC        .byte $CC
  $FAF3  CC        .byte $CC
  $FAF4  CC        .byte $CC
  $FAF5  CC        .byte $CC
  $FAF6  CD        .byte $CD
  $FAF7  0D        .byte $0D
  $FAF8  4D        .byte $4D
  $FAF9  DD        .byte $DD
  $FAFA  DD        .byte $DD
  $FAFB  CC        .byte $CC
  $FAFC  CC        .byte $CC
  $FAFD  CD        .byte $CD
  $FAFE  DD        .byte $DD
  $FAFF  3D        .byte $3D
  $FB00  DD        .byte $DD
  $FB01  DD        .byte $DD
  $FB02  DC        .byte $DC
  $FB03  CC        .byte $CC
  $FB04  CD        .byte $CD
  $FB05  DD        .byte $DD
  $FB06  D9        .byte $D9
  $FB07  D4        .byte $D4
  $FB08  D4        .byte $D4
  $FB09  D4        .byte $D4
  $FB0A  D9        .byte $D9
  $FB0B  DD        .byte $DD
  $FB0C  D4        .byte $D4
  $FB0D  D4        .byte $D4
  $FB0E  DD        .byte $DD
  $FB0F  DD        .byte $DD
  $FB10  D9        .byte $D9
  $FB11  DD        .byte $DD
  $FB12  DD        .byte $DD
  $FB13  D4        .byte $D4
  $FB14  D4        .byte $D4
  $FB15  DD        .byte $DD
  $FB16  9D        .byte $9D
  $FB17  D9        .byte $D9
  $FB18  D9        .byte $D9
  $FB19  9D        .byte $9D
  $FB1A  D4        .byte $D4
  $FB1B  DD        .byte $DD
  $FB1C  D4        .byte $D4
  $FB1D  D9        .byte $D9
  $FB1E  4D        .byte $4D
  $FB1F  DD        .byte $DD
  $FB20  9D        .byte $9D
  $FB21  DD        .byte $DD
  $FB22  DD        .byte $DD
  $FB23  44        .byte $44
  $FB24  D4        .byte $D4
  $FB25  4D        .byte $4D
  $FB26  9D        .byte $9D
  $FB27  DD        .byte $DD
  $FB28  DD        .byte $DD
  $FB29  9D        .byte $9D
  $FB2A  4D        .byte $4D
  $FB2B  D4        .byte $D4
  $FB2C  4D        .byte $4D
  $FB2D  44        .byte $44
  $FB2E  DD        .byte $DD
  $FB2F  9D        .byte $9D
  $FB30  9D        .byte $9D
  $FB31  D4        .byte $D4
  $FB32  D9        .byte $D9
  $FB33  DD        .byte $DD
  $FB34  94        .byte $94
  $FB35  DD        .byte $DD
  $FB36  DD        .byte $DD
  $FB37  44        .byte $44
  $FB38  D4        .byte $D4
  $FB39  DD        .byte $DD
  $FB3A  D4        .byte $D4
  $FB3B  9D        .byte $9D
  $FB3C  DD        .byte $DD
  $FB3D  D9        .byte $D9
  $FB3E  44        .byte $44
  $FB3F  D4        .byte $D4
  $FB40  4D        .byte $4D
  $FB41  44        .byte $44
  $FB42  DD        .byte $DD
  $FB43  4D        .byte $4D
  $FB44  D4        .byte $D4
  $FB45  DD        .byte $DD
  $FB46  D4        .byte $D4
  $FB47  9D        .byte $9D
  $FB48  DD        .byte $DD
  $FB49  D4        .byte $D4
  $FB4A  4D        .byte $4D
  $FB4B  DD        .byte $DD
  $FB4C  D4        .byte $D4
  $FB4D  D4        .byte $D4
  $FB4E  49        .byte $49
  $FB4F  D9        .byte $D9
  $FB50  DD        .byte $DD
  $FB51  4D        .byte $4D
  $FB52  4D        .byte $4D
  $FB53  44        .byte $44
  $FB54  DD        .byte $DD
  $FB55  DD        .byte $DD
  $FB56  D4        .byte $D4
  $FB57  9D        .byte $9D
  $FB58  DD        .byte $DD
  $FB59  4D        .byte $4D
  $FB5A  4D        .byte $4D
  $FB5B  DD        .byte $DD
  $FB5C  DD        .byte $DD
  $FB5D  D4        .byte $D4
  $FB5E  44        .byte $44
  $FB5F  DD        .byte $DD
  $FB60  DD        .byte $DD
  $FB61  AA        .byte $AA
  $FB62  DD        .byte $DD
  $FB63  DD        .byte $DD
  $FB64  DD        .byte $DD
  $FB65  DD        .byte $DD
  $FB66  DD        .byte $DD
  $FB67  6D        .byte $6D
  $FB68  DA        .byte $DA
  $FB69  BD        .byte $BD
  $FB6A  2D        .byte $2D
  $FB6B  DD        .byte $DD
  $FB6C  DD        .byte $DD
  $FB6D  DD        .byte $DD
  $FB6E  B6        .byte $B6
  $FB6F  DD        .byte $DD
  $FB70  DD        .byte $DD
  $FB71  7D        .byte $7D
  $FB72  2D        .byte $2D
  $FB73  AA        .byte $AA
  $FB74  DD        .byte $DD
  $FB75  BB        .byte $BB
  $FB76  D8        .byte $D8
  $FB77  10        .byte $10
  $FB78  DD        .byte $DD
  $FB79  7B        .byte $7B
  $FB7A  AD        .byte $AD
  $FB7B  DD        .byte $DD
  $FB7C  BB        .byte $BB
  $FB7D  BD        .byte $BD
  $FB7E  D9        .byte $D9
  $FB7F  10        .byte $10
  $FB80  DD        .byte $DD
  $FB81  DD        .byte $DD
  $FB82  6D        .byte $6D
  $FB83  BB        .byte $BB
  $FB84  86        .byte $86
  $FB85  D0        .byte $D0
  $FB86  D9        .byte $D9
  $FB87  1D        .byte $1D
  $FB88  D6        .byte $D6
  $FB89  BD        .byte $BD
  $FB8A  B8        .byte $B8
  $FB8B  DD        .byte $DD
  $FB8C  39        .byte $39
  $FB8D  D0        .byte $D0
  $FB8E  D8        .byte $D8
  $FB8F  DB        .byte $DB
  $FB90  BD        .byte $BD
  $FB91  DD        .byte $DD
  $FB92  DD        .byte $DD
  $FB93  D2        .byte $D2
  $FB94  39        .byte $39
  $FB95  DD        .byte $DD
  $FB96  BB        .byte $BB
  $FB97  BD        .byte $BD
  $FB98  DD        .byte $DD
  $FB99  AB        .byte $AB
  $FB9A  5D        .byte $5D
  $FB9B  D2        .byte $D2
  $FB9C  36        .byte $36
  $FB9D  8B        .byte $8B
  $FB9E  BD        .byte $BD
  $FB9F  DA        .byte $DA
  $FBA0  AD        .byte $AD
  $FBA1  0D        .byte $0D
  $FBA2  5D        .byte $5D
  $FBA3  DD        .byte $DD
  $FBA4  DD        .byte $DD
  $FBA5  BD        .byte $BD
  $FBA6  DD        .byte $DD
  $FBA7  DD        .byte $DD
  $FBA8  DD        .byte $DD
  $FBA9  0D        .byte $0D
  $FBAA  BA        .byte $BA
  $FBAB  DD        .byte $DD
  $FBAC  8D        .byte $8D
  $FBAD  9D        .byte $9D
  $FBAE  DD        .byte $DD
  $FBAF  DD        .byte $DD
  $FBB0  DD        .byte $DD
  $FBB1  DA        .byte $DA
  $FBB2  AD        .byte $AD
  $FBB3  DD        .byte $DD
  $FBB4  99        .byte $99
  $FBB5  DD        .byte $DD
  $FBB6  DD        .byte $DD
  $FBB7  DD        .byte $DD
  $FBB8  DD        .byte $DD
  $FBB9  DD        .byte $DD
  $FBBA  9D        .byte $9D
  $FBBB  DD        .byte $DD
  $FBBC  DD        .byte $DD
  $FBBD  9D        .byte $9D
  $FBBE  DD        .byte $DD
  $FBBF  DD        .byte $DD
  $FBC0  DD        .byte $DD
  $FBC1  DD        .byte $DD
  $FBC2  99        .byte $99
  $FBC3  DD        .byte $DD
  $FBC4  9D        .byte $9D
  $FBC5  D9        .byte $D9
  $FBC6  9D        .byte $9D
  $FBC7  DD        .byte $DD
  $FBC8  DD        .byte $DD
  $FBC9  D9        .byte $D9
  $FBCA  DD        .byte $DD
  $FBCB  9D        .byte $9D
  $FBCC  DD        .byte $DD
  $FBCD  9D        .byte $9D
  $FBCE  99        .byte $99
  $FBCF  BD        .byte $BD
  $FBD0  D9        .byte $D9
  $FBD1  DD        .byte $DD
  $FBD2  99        .byte $99
  $FBD3  9D        .byte $9D
  $FBD4  BD        .byte $BD
  $FBD5  9D        .byte $9D
  $FBD6  DD        .byte $DD
  $FBD7  D4        .byte $D4
  $FBD8  DD        .byte $DD
  $FBD9  DD        .byte $DD
  $FBDA  9D        .byte $9D
  $FBDB  99        .byte $99
  $FBDC  9D        .byte $9D
  $FBDD  DD        .byte $DD
  $FBDE  B9        .byte $B9
  $FBDF  9D        .byte $9D
  $FBE0  94        .byte $94
  $FBE1  94        .byte $94
  $FBE2  4D        .byte $4D
  $FBE3  DD        .byte $DD
  $FBE4  DD        .byte $DD
  $FBE5  DD        .byte $DD
  $FBE6  9B        .byte $9B
  $FBE7  9B        .byte $9B
  $FBE8  DD        .byte $DD
  $FBE9  4D        .byte $4D
  $FBEA  D9        .byte $D9
  $FBEB  9D        .byte $9D
  $FBEC  DD        .byte $DD
  $FBED  9D        .byte $9D
  $FBEE  DB        .byte $DB
  $FBEF  DD        .byte $DD
  $FBF0  9D        .byte $9D
  $FBF1  D9        .byte $D9
  $FBF2  DD        .byte $DD
  $FBF3  DD        .byte $DD
  $FBF4  4D        .byte $4D
  $FBF5  D9        .byte $D9
  $FBF6  DD        .byte $DD
  $FBF7  99        .byte $99
  $FBF8  49        .byte $49
  $FBF9  DD        .byte $DD
  $FBFA  B9        .byte $B9
  $FBFB  99        .byte $99
  $FBFC  BB        .byte $BB
  $FBFD  49        .byte $49
  $FBFE  9D        .byte $9D
  $FBFF  49        .byte $49
  $FC00  DD        .byte $DD
  $FC01  DD        .byte $DD
  $FC02  D4        .byte $D4
  $FC03  DD        .byte $DD
  $FC04  DD        .byte $DD
  $FC05  BB        .byte $BB
  $FC06  D4        .byte $D4
  $FC07  DD        .byte $DD
  $FC08  DD        .byte $DD
  $FC09  D9        .byte $D9
  $FC0A  DD        .byte $DD
  $FC0B  DD        .byte $DD
  $FC0C  DB        .byte $DB
  $FC0D  D4        .byte $D4
  $FC0E  DD        .byte $DD
  $FC0F  DD        .byte $DD
  $FC10  D9        .byte $D9
  $FC11  DD        .byte $DD
  $FC12  DD        .byte $DD
  $FC13  D9        .byte $D9
  $FC14  D4        .byte $D4
  $FC15  DD        .byte $DD
  $FC16  DD        .byte $DD
  $FC17  DD        .byte $DD
  $FC18  DD        .byte $DD
  $FC19  DD        .byte $DD
  $FC1A  DD        .byte $DD
  $FC1B  57        .byte $57
  $FC1C  DD        .byte $DD
  $FC1D  DD        .byte $DD
  $FC1E  DD        .byte $DD
  $FC1F  DD        .byte $DD
  $FC20  6D        .byte $6D
  $FC21  DD        .byte $DD
  $FC22  9D        .byte $9D
  $FC23  DD        .byte $DD
  $FC24  DD        .byte $DD
  $FC25  DD        .byte $DD
  $FC26  D1        .byte $D1
  $FC27  B1        .byte $B1
  $FC28  D4        .byte $D4
  $FC29  2D        .byte $2D
  $FC2A  DD        .byte $DD
  $FC2B  DD        .byte $DD
  $FC2C  DD        .byte $DD
  $FC2D  6B        .byte $6B
  $FC2E  BB        .byte $BB
  $FC2F  64        .byte $64
  $FC30  2D        .byte $2D
  $FC31  DD        .byte $DD
  $FC32  DD        .byte $DD
  $FC33  D1        .byte $D1
  $FC34  BB        .byte $BB
  $FC35  CB        .byte $CB
  $FC36  B4        .byte $B4
  $FC37  2D        .byte $2D
  $FC38  DD        .byte $DD
  $FC39  DD        .byte $DD
  $FC3A  6B        .byte $6B
  $FC3B  BC        .byte $BC
  $FC3C  CC        .byte $CC
  $FC3D  BB        .byte $BB
  $FC3E  2D        .byte $2D
  $FC3F  DD        .byte $DD
  $FC40  D1        .byte $D1
  $FC41  BB        .byte $BB
  $FC42  CC        .byte $CC
  $FC43  CC        .byte $CC
  $FC44  CB        .byte $CB
  $FC45  B1        .byte $B1
  $FC46  DD        .byte $DD
  $FC47  6B        .byte $6B
  $FC48  BC        .byte $BC
  $FC49  CC        .byte $CC
  $FC4A  CC        .byte $CC
  $FC4B  CC        .byte $CC
  $FC4C  BB        .byte $BB
  $FC4D  6D        .byte $6D
  $FC4E  BB        .byte $BB
  $FC4F  CC        .byte $CC
  $FC50  CC        .byte $CC
  $FC51  CC        .byte $CC
  $FC52  CC        .byte $CC
  $FC53  CB        .byte $CB
  $FC54  BD        .byte $BD
  $FC55  DB        .byte $DB
  $FC56  CC        .byte $CC
  $FC57  CC        .byte $CC
  $FC58  CC        .byte $CC
  $FC59  CC        .byte $CC
  $FC5A  CB        .byte $CB
  $FC5B  DD        .byte $DD
  $FC5C  DB        .byte $DB
  $FC5D  CC        .byte $CC
  $FC5E  CC        .byte $CC
  $FC5F  CC        .byte $CC
  $FC60  CC        .byte $CC
  $FC61  CB        .byte $CB
  $FC62  DD        .byte $DD
  $FC63  DB        .byte $DB
  $FC64  CC        .byte $CC
  $FC65  CD        .byte $CD
  $FC66  DD        .byte $DD
  $FC67  CC        .byte $CC
  $FC68  CB        .byte $CB
  $FC69  DD        .byte $DD
  $FC6A  DB        .byte $DB
  $FC6B  CC        .byte $CC
  $FC6C  DD        .byte $DD
  $FC6D  DD        .byte $DD
  $FC6E  DC        .byte $DC
  $FC6F  CB        .byte $CB
  $FC70  DD        .byte $DD
  $FC71  DD        .byte $DD
  $FC72  DD        .byte $DD
  $FC73  DD        .byte $DD
  $FC74  DD        .byte $DD
  $FC75  DD        .byte $DD
  $FC76  4D        .byte $4D
  $FC77  DD        .byte $DD
  $FC78  D4        .byte $D4
  $FC79  AA        .byte $AA
  $FC7A  D9        .byte $D9
  $FC7B  D4        .byte $D4
  $FC7C  DD        .byte $DD
  $FC7D  DD        .byte $DD
  $FC7E  DD        .byte $DD
  $FC7F  DD        .byte $DD
  $FC80  AA        .byte $AA
  $FC81  4B        .byte $4B
  $FC82  BB        .byte $BB
  $FC83  AA        .byte $AA
  $FC84  D9        .byte $D9
  $FC85  DD        .byte $DD
  $FC86  DD        .byte $DD
  $FC87  DD        .byte $DD
  $FC88  DB        .byte $DB
  $FC89  BB        .byte $BB
  $FC8A  AA        .byte $AA
  $FC8B  4D        .byte $4D
  $FC8C  DD        .byte $DD
  $FC8D  D9        .byte $D9
  $FC8E  DD        .byte $DD
  $FC8F  AA        .byte $AA
  $FC90  DB        .byte $DB
  $FC91  DD        .byte $DD
  $FC92  DD        .byte $DD
  $FC93  DD        .byte $DD
  $FC94  BB        .byte $BB
  $FC95  4D        .byte $4D
  $FC96  AA        .byte $AA
  $FC97  9D        .byte $9D
  $FC98  DD        .byte $DD
  $FC99  D4        .byte $D4
  $FC9A  DD        .byte $DD
  $FC9B  BB        .byte $BB
  $FC9C  BD        .byte $BD
  $FC9D  DD        .byte $DD
  $FC9E  DD        .byte $DD
  $FC9F  D9        .byte $D9
  $FCA0  DD        .byte $DD
  $FCA1  9D        .byte $9D
  $FCA2  D4        .byte $D4
  $FCA3  AA        .byte $AA
  $FCA4  D4        .byte $D4
  $FCA5  DD        .byte $DD
  $FCA6  DD        .byte $DD
  $FCA7  DD        .byte $DD
  $FCA8  DD        .byte $DD
  $FCA9  9D        .byte $9D
  $FCAA  AA        .byte $AA
  $FCAB  BB        .byte $BB
  $FCAC  AA        .byte $AA
  $FCAD  BB        .byte $BB
  $FCAE  D4        .byte $D4
  $FCAF  DD        .byte $DD
  $FCB0  DD        .byte $DD
  $FCB1  DD        .byte $DD
  $FCB2  BD        .byte $BD
  $FCB3  AA        .byte $AA
  $FCB4  BB        .byte $BB
  $FCB5  AA        .byte $AA
  $FCB6  DD        .byte $DD
  $FCB7  DD        .byte $DD
  $FCB8  D9        .byte $D9
  $FCB9  BD        .byte $BD
  $FCBA  DD        .byte $DD
  $FCBB  BB        .byte $BB
  $FCBC  AA        .byte $AA
  $FCBD  DD        .byte $DD
  $FCBE  DD        .byte $DD
  $FCBF  4D        .byte $4D
  $FCC0  4D        .byte $4D
  $FCC1  DD        .byte $DD
  $FCC2  DD        .byte $DD
  $FCC3  DD        .byte $DD
  $FCC4  DD        .byte $DD
  $FCC5  4D        .byte $4D
  $FCC6  DD        .byte $DD
  $FCC7  DD        .byte $DD
  $FCC8  DD        .byte $DD
  $FCC9  D4        .byte $D4
  $FCCA  9D        .byte $9D
  $FCCB  DD        .byte $DD
  $FCCC  DD        .byte $DD
  $FCCD  DD        .byte $DD
  $FCCE  DD        .byte $DD
  $FCCF  DD        .byte $DD
  $FCD0  DD        .byte $DD
  $FCD1  DD        .byte $DD
  $FCD2  DD        .byte $DD
  $FCD3  DD        .byte $DD
  $FCD4  DD        .byte $DD
  $FCD5  D1        .byte $D1
  $FCD6  1D        .byte $1D
  $FCD7  DD        .byte $DD
  $FCD8  6D        .byte $6D
  $FCD9  DD        .byte $DD
  $FCDA  D6        .byte $D6
  $FCDB  6D        .byte $6D
  $FCDC  1B        .byte $1B
  $FCDD  B6        .byte $B6
  $FCDE  D1        .byte $D1
  $FCDF  B1        .byte $B1
  $FCE0  DD        .byte $DD
  $FCE1  1B        .byte $1B
  $FCE2  B1        .byte $B1
  $FCE3  BB        .byte $BB
  $FCE4  BB        .byte $BB
  $FCE5  1B        .byte $1B
  $FCE6  BB        .byte $BB
  $FCE7  1D        .byte $1D
  $FCE8  BB        .byte $BB
  $FCE9  BB        .byte $BB
  $FCEA  BB        .byte $BB
  $FCEB  BB        .byte $BB
  $FCEC  BB        .byte $BB
  $FCED  BB        .byte $BB
  $FCEE  BD        .byte $BD
  $FCEF  9B        .byte $9B
  $FCF0  AB        .byte $AB
  $FCF1  BB        .byte $BB
  $FCF2  BB        .byte $BB
  $FCF3  AB        .byte $AB
  $FCF4  BB        .byte $BB
  $FCF5  BD        .byte $BD
  $FCF6  BB        .byte $BB
  $FCF7  AA        .byte $AA
  $FCF8  AB        .byte $AB
  $FCF9  BB        .byte $BB
  $FCFA  AA        .byte $AA
  $FCFB  AB        .byte $AB
  $FCFC  9D        .byte $9D
  $FCFD  BB        .byte $BB
  $FCFE  BB        .byte $BB
  $FCFF  AB        .byte $AB
  $FD00  9B        .byte $9B
  $FD01  BB        .byte $BB
  $FD02  AB        .byte $AB
  $FD03  BD        .byte $BD
  $FD04  BB        .byte $BB
  $FD05  BB        .byte $BB
  $FD06  BB        .byte $BB
  $FD07  BB        .byte $BB
  $FD08  BB        .byte $BB
  $FD09  BB        .byte $BB
  $FD0A  BD        .byte $BD
  $FD0B  BB        .byte $BB
  $FD0C  BB        .byte $BB
  $FD0D  B3        .byte $B3
  $FD0E  3B        .byte $3B
  $FD0F  BB        .byte $BB
  $FD10  BB        .byte $BB
  $FD11  8D        .byte $8D
  $FD12  8B        .byte $8B
  $FD13  BB        .byte $BB
  $FD14  3D        .byte $3D
  $FD15  D3        .byte $D3
  $FD16  BB        .byte $BB
  $FD17  B8        .byte $B8
  $FD18  DD        .byte $DD
  $FD19  D8        .byte $D8
  $FD1A  33        .byte $33
  $FD1B  DD        .byte $DD
  $FD1C  DD        .byte $DD
  $FD1D  33        .byte $33
  $FD1E  3D        .byte $3D
  $FD1F  DD        .byte $DD
  $FD20  DD        .byte $DD
  $FD21  DD        .byte $DD
  $FD22  DD        .byte $DD
  $FD23  DD        .byte $DD
  $FD24  DD        .byte $DD
  $FD25  DD        .byte $DD
  $FD26  DD        .byte $DD
  $FD27  DD        .byte $DD
  $FD28  DA        .byte $DA
  $FD29  DD        .byte $DD
  $FD2A  DD        .byte $DD
  $FD2B  AD        .byte $AD
  $FD2C  DD        .byte $DD
  $FD2D  DD        .byte $DD
  $FD2E  AA        .byte $AA
  $FD2F  DA        .byte $DA
  $FD30  DA        .byte $DA
  $FD31  AA        .byte $AA
  $FD32  AD        .byte $AD
  $FD33  AA        .byte $AA
  $FD34  AD        .byte $AD
  $FD35  BB        .byte $BB
  $FD36  4D        .byte $4D
  $FD37  D4        .byte $D4
  $FD38  DD        .byte $DD
  $FD39  AD        .byte $AD
  $FD3A  AB        .byte $AB
  $FD3B  AD        .byte $AD
  $FD3C  BA        .byte $BA
  $FD3D  AA        .byte $AA
  $FD3E  AD        .byte $AD
  $FD3F  9D        .byte $9D
  $FD40  D4        .byte $D4
  $FD41  BB        .byte $BB
  $FD42  BD        .byte $BD
  $FD43  BB        .byte $BB
  $FD44  DA        .byte $DA
  $FD45  DD        .byte $DD
  $FD46  AD        .byte $AD
  $FD47  AA        .byte $AA
  $FD48  AA        .byte $AA
  $FD49  BD        .byte $BD
  $FD4A  AA        .byte $AA
  $FD4B  DA        .byte $DA
  $FD4C  DA        .byte $DA
  $FD4D  AD        .byte $AD
  $FD4E  DA        .byte $DA
  $FD4F  DD        .byte $DD
  $FD50  DD        .byte $DD
  $FD51  DD        .byte $DD
  $FD52  4B        .byte $4B
  $FD53  4D        .byte $4D
  $FD54  4B        .byte $4B
  $FD55  DA        .byte $DA
  $FD56  DD        .byte $DD
  $FD57  AD        .byte $AD
  $FD58  DA        .byte $DA
  $FD59  AB        .byte $AB
  $FD5A  AA        .byte $AA
  $FD5B  AA        .byte $AA
  $FD5C  DB        .byte $DB
  $FD5D  4D        .byte $4D
  $FD5E  AD        .byte $AD
  $FD5F  4D        .byte $4D
  $FD60  D4        .byte $D4
  $FD61  DD        .byte $DD
  $FD62  AD        .byte $AD
  $FD63  BB        .byte $BB
  $FD64  AD        .byte $AD
  $FD65  AD        .byte $AD
  $FD66  AA        .byte $AA
  $FD67  DA        .byte $DA
  $FD68  AD        .byte $AD
  $FD69  A4        .byte $A4
  $FD6A  AA        .byte $AA
  $FD6B  AD        .byte $AD
  $FD6C  DD        .byte $DD
  $FD6D  DD        .byte $DD
  $FD6E  4D        .byte $4D
  $FD6F  BB        .byte $BB
  $FD70  DD        .byte $DD
  $FD71  BA        .byte $BA
  $FD72  DD        .byte $DD
  $FD73  AD        .byte $AD
  $FD74  DA        .byte $DA
  $FD75  AA        .byte $AA
  $FD76  BD        .byte $BD
  $FD77  DD        .byte $DD
  $FD78  DA        .byte $DA
  $FD79  DA        .byte $DA
  $FD7A  AD        .byte $AD
  $FD7B  DA        .byte $DA
  $FD7C  DD        .byte $DD
  $FD7D  DD        .byte $DD
  $FD7E  DD        .byte $DD
  $FD7F  DD        .byte $DD
  $FD80  DD        .byte $DD
  $FD81  DD        .byte $DD
  $FD82  CC        .byte $CC
  $FD83  CC        .byte $CC
  $FD84  CC        .byte $CC
  $FD85  CC        .byte $CC
  $FD86  CC        .byte $CC
  $FD87  CC        .byte $CC
  $FD88  CD        .byte $CD
  $FD89  CC        .byte $CC
  $FD8A  CC        .byte $CC
  $FD8B  CC        .byte $CC
  $FD8C  CC        .byte $CC
  $FD8D  CC        .byte $CC
  $FD8E  CC        .byte $CC
  $FD8F  CD        .byte $CD
  $FD90  CC        .byte $CC
  $FD91  C4        .byte $C4
  $FD92  CC        .byte $CC
  $FD93  CC        .byte $CC
  $FD94  C4        .byte $C4
  $FD95  CC        .byte $CC
  $FD96  CD        .byte $CD
  $FD97  C4        .byte $C4
  $FD98  D4        .byte $D4
  $FD99  D4        .byte $D4
  $FD9A  C4        .byte $C4
  $FD9B  D4        .byte $D4
  $FD9C  D4        .byte $D4
  $FD9D  CD        .byte $CD
  $FD9E  C3        .byte $C3
  $FD9F  34        .byte $34
  $FDA0  DD        .byte $DD
  $FDA1  DD        .byte $DD
  $FDA2  D4        .byte $D4
  $FDA3  33        .byte $33
  $FDA4  CD        .byte $CD
  $FDA5  CC        .byte $CC
  $FDA6  C4        .byte $C4
  $FDA7  14        .byte $14
  $FDA8  94        .byte $94
  $FDA9  14        .byte $14
  $FDAA  CC        .byte $CC
  $FDAB  CD        .byte $CD
  $FDAC  9C        .byte $9C
  $FDAD  CC        .byte $CC
  $FDAE  D8        .byte $D8
  $FDAF  D8        .byte $D8
  $FDB0  DC        .byte $DC
  $FDB1  CC        .byte $CC
  $FDB2  9D        .byte $9D
  $FDB3  CC        .byte $CC
  $FDB4  CC        .byte $CC
  $FDB5  D1        .byte $D1
  $FDB6  D1        .byte $D1
  $FDB7  DC        .byte $DC
  $FDB8  CC        .byte $CC
  $FDB9  CD        .byte $CD
  $FDBA  CC        .byte $CC
  $FDBB  CC        .byte $CC
  $FDBC  D4        .byte $D4
  $FDBD  D4        .byte $D4
  $FDBE  DC        .byte $DC
  $FDBF  CC        .byte $CC
  $FDC0  CD        .byte $CD
  $FDC1  CC        .byte $CC
  $FDC2  C4        .byte $C4
  $FDC3  DD        .byte $DD
  $FDC4  1D        .byte $1D
  $FDC5  D4        .byte $D4
  $FDC6  CC        .byte $CC
  $FDC7  CD        .byte $CD
  $FDC8  C4        .byte $C4
  $FDC9  C4        .byte $C4
  $FDCA  D8        .byte $D8
  $FDCB  88        .byte $88
  $FDCC  D4        .byte $D4
  $FDCD  C4        .byte $C4
  $FDCE  CD        .byte $CD
  $FDCF  D4        .byte $D4
  $FDD0  14        .byte $14
  $FDD1  DD        .byte $DD
  $FDD2  DD        .byte $DD
  $FDD3  D4        .byte $D4
  $FDD4  14        .byte $14
  $FDD5  DD        .byte $DD
  $FDD6  D3        .byte $D3
  $FDD7  DD        .byte $DD
  $FDD8  DD        .byte $DD
  $FDD9  DD        .byte $DD
  $FDDA  DD        .byte $DD
  $FDDB  D3        .byte $D3
  $FDDC  DD        .byte $DD
  $FDDD  DD        .byte $DD
  $FDDE  DD        .byte $DD
  $FDDF  9D        .byte $9D
  $FDE0  DD        .byte $DD
  $FDE1  D9        .byte $D9
  $FDE2  DD        .byte $DD
  $FDE3  DD        .byte $DD
  $FDE4  D9        .byte $D9
  $FDE5  DD        .byte $DD
  $FDE6  D9        .byte $D9
  $FDE7  DD        .byte $DD
  $FDE8  9B        .byte $9B
  $FDE9  BD        .byte $BD
  $FDEA  DD        .byte $DD
  $FDEB  DD        .byte $DD
  $FDEC  9D        .byte $9D
  $FDED  DD        .byte $DD
  $FDEE  D9        .byte $D9
  $FDEF  B6        .byte $B6
  $FDF0  7D        .byte $7D
  $FDF1  DD        .byte $DD
  $FDF2  DD        .byte $DD
  $FDF3  D9        .byte $D9
  $FDF4  DB        .byte $DB
  $FDF5  BB        .byte $BB
  $FDF6  BB        .byte $BB
  $FDF7  D5        .byte $D5
  $FDF8  DD        .byte $DD
  $FDF9  D7        .byte $D7
  $FDFA  DD        .byte $DD
  $FDFB  9B        .byte $9B
  $FDFC  B9        .byte $B9
  $FDFD  BD        .byte $BD
  $FDFE  D9        .byte $D9
  $FDFF  DD        .byte $DD
  $FE00  D8        .byte $D8
  $FE01  7B        .byte $7B
  $FE02  D9        .byte $D9
  $FE03  BB        .byte $BB
  $FE04  9D        .byte $9D
  $FE05  D5        .byte $D5
  $FE06  DD        .byte $DD
  $FE07  DD        .byte $DD
  $FE08  BB        .byte $BB
  $FE09  BB        .byte $BB
  $FE0A  BD        .byte $BD
  $FE0B  D9        .byte $D9
  $FE0C  DD        .byte $DD
  $FE0D  DD        .byte $DD
  $FE0E  D6        .byte $D6
  $FE0F  7B        .byte $7B
  $FE10  D9        .byte $D9
  $FE11  BD        .byte $BD
  $FE12  DD        .byte $DD
  $FE13  9D        .byte $9D
  $FE14  DD        .byte $DD
  $FE15  DB        .byte $DB
  $FE16  BB        .byte $BB
  $FE17  9D        .byte $9D
  $FE18  9D        .byte $9D
  $FE19  6D        .byte $6D
  $FE1A  D9        .byte $D9
  $FE1B  DD        .byte $DD
  $FE1C  BB        .byte $BB
  $FE1D  B9        .byte $B9
  $FE1E  DD        .byte $DD
  $FE1F  DD        .byte $DD
  $FE20  5D        .byte $5D
  $FE21  DD        .byte $DD
  $FE22  DD        .byte $DD
  $FE23  DD        .byte $DD
  $FE24  9D        .byte $9D
  $FE25  DD        .byte $DD
  $FE26  DD        .byte $DD
  $FE27  DD        .byte $DD
  $FE28  D5        .byte $D5
  $FE29  9D        .byte $9D
  $FE2A  DD        .byte $DD
  $FE2B  DD        .byte $DD
  $FE2C  DD        .byte $DD
  $FE2D  DD        .byte $DD
  $FE2E  D6        .byte $D6
  $FE2F  7D        .byte $7D
  $FE30  DD        .byte $DD
  $FE31  7D        .byte $7D
  $FE32  6D        .byte $6D
  $FE33  DD        .byte $DD
  $FE34  DD        .byte $DD
  $FE35  DD        .byte $DD
  $FE36  DD        .byte $DD
  $FE37  DD        .byte $DD
  $FE38  DD        .byte $DD
  $FE39  DD        .byte $DD
  $FE3A  20        .byte $20
  $FE3B  DD        .byte $DD
  $FE3C  DD        .byte $DD
  $FE3D  DD        .byte $DD
  $FE3E  DD        .byte $DD
  $FE3F  22        .byte $22
  $FE40  20        .byte $20
  $FE41  D2        .byte $D2
  $FE42  DD        .byte $DD
  $FE43  22        .byte $22
  $FE44  DD        .byte $DD
  $FE45  DD        .byte $DD
  $FE46  22        .byte $22
  $FE47  24        .byte $24
  $FE48  4D        .byte $4D
  $FE49  DD        .byte $DD
  $FE4A  24        .byte $24
  $FE4B  2D        .byte $2D
  $FE4C  DD        .byte $DD
  $FE4D  00        .byte $00
  $FE4E  D4        .byte $D4
  $FE4F  2D        .byte $2D
  $FE50  D0        .byte $D0
  $FE51  24        .byte $24
  $FE52  4D        .byte $4D
  $FE53  DD        .byte $DD
  $FE54  D2        .byte $D2
  $FE55  D4        .byte $D4
  $FE56  02        .byte $02
  $FE57  D2        .byte $D2
  $FE58  44        .byte $44
  $FE59  4D        .byte $4D
  $FE5A  DD        .byte $DD
  $FE5B  D2        .byte $D2
  $FE5C  0D        .byte $0D
  $FE5D  D4        .byte $D4
  $FE5E  24        .byte $24
  $FE5F  00        .byte $00
  $FE60  4D        .byte $4D
  $FE61  DD        .byte $DD
  $FE62  D2        .byte $D2
  $FE63  DD        .byte $DD
  $FE64  04        .byte $04
  $FE65  42        .byte $42
  $FE66  D2        .byte $D2
  $FE67  4D        .byte $4D
  $FE68  DD        .byte $DD
  $FE69  D0        .byte $D0
  $FE6A  DD        .byte $DD
  $FE6B  24        .byte $24
  $FE6C  42        .byte $42
  $FE6D  D2        .byte $D2
  $FE6E  4D        .byte $4D
  $FE6F  DD        .byte $DD
  $FE70  D0        .byte $D0
  $FE71  33        .byte $33
  $FE72  D4        .byte $D4
  $FE73  44        .byte $44
  $FE74  D2        .byte $D2
  $FE75  23        .byte $23
  $FE76  4D        .byte $4D
  $FE77  D0        .byte $D0
  $FE78  DD        .byte $DD
  $FE79  02        .byte $02
  $FE7A  40        .byte $40
  $FE7B  22        .byte $22
  $FE7C  20        .byte $20
  $FE7D  0D        .byte $0D
  $FE7E  DD        .byte $DD
  $FE7F  2D        .byte $2D
  $FE80  40        .byte $40
  $FE81  24        .byte $24
  $FE82  4D        .byte $4D
  $FE83  D0        .byte $D0
  $FE84  DD        .byte $DD
  $FE85  DD        .byte $DD
  $FE86  20        .byte $20
  $FE87  2D        .byte $2D
  $FE88  DD        .byte $DD
  $FE89  42        .byte $42
  $FE8A  D2        .byte $D2
  $FE8B  DD        .byte $DD
  $FE8C  DD        .byte $DD
  $FE8D  20        .byte $20
  $FE8E  DD        .byte $DD
  $FE8F  DD        .byte $DD
  $FE90  D4        .byte $D4
  $FE91  4D        .byte $4D
  $FE92  DD        .byte $DD
  $FE93  DD        .byte $DD
  $FE94  DD        .byte $DD
  $FE95  DD        .byte $DD
  $FE96  DD        .byte $DD
  $FE97  DD        .byte $DD
  $FE98  DD        .byte $DD
  $FE99  DD        .byte $DD
  $FE9A  DD        .byte $DD
  $FE9B  DD        .byte $DD
  $FE9C  4D        .byte $4D
  $FE9D  4D        .byte $4D
  $FE9E  DD        .byte $DD
  $FE9F  DD        .byte $DD
  $FEA0  DD        .byte $DD
  $FEA1  BD        .byte $BD
  $FEA2  DB        .byte $DB
  $FEA3  4B        .byte $4B
  $FEA4  4B        .byte $4B
  $FEA5  DD        .byte $DD
  $FEA6  BD        .byte $BD
  $FEA7  DD        .byte $DD
  $FEA8  4B        .byte $4B
  $FEA9  B4        .byte $B4
  $FEAA  44        .byte $44
  $FEAB  44        .byte $44
  $FEAC  BB        .byte $BB
  $FEAD  4B        .byte $4B
  $FEAE  DD        .byte $DD
  $FEAF  44        .byte $44
  $FEB0  44        .byte $44
  $FEB1  94        .byte $94
  $FEB2  94        .byte $94
  $FEB3  44        .byte $44
  $FEB4  4B        .byte $4B
  $FEB5  DD        .byte $DD
  $FEB6  AA        .byte $AA
  $FEB7  A4        .byte $A4
  $FEB8  44        .byte $44
  $FEB9  44        .byte $44
  $FEBA  AA        .byte $AA
  $FEBB  AB        .byte $AB
  $FEBC  DD        .byte $DD
  $FEBD  A4        .byte $A4
  $FEBE  44        .byte $44
  $FEBF  44        .byte $44
  $FEC0  44        .byte $44
  $FEC1  44        .byte $44
  $FEC2  AA        .byte $AA
  $FEC3  BD        .byte $BD
  $FEC4  44        .byte $44
  $FEC5  4A        .byte $4A
  $FEC6  44        .byte $44
  $FEC7  4A        .byte $4A
  $FEC8  44        .byte $44
  $FEC9  4B        .byte $4B
  $FECA  BD        .byte $BD
  $FECB  44        .byte $44
  $FECC  AA        .byte $AA
  $FECD  A4        .byte $A4
  $FECE  AA        .byte $AA
  $FECF  A4        .byte $A4
  $FED0  4A        .byte $4A
  $FED1  AD        .byte $AD
  $FED2  BA        .byte $BA
  $FED3  AB        .byte $AB
  $FED4  BB        .byte $BB
  $FED5  BB        .byte $BB
  $FED6  AA        .byte $AA
  $FED7  BA        .byte $BA
  $FED8  BD        .byte $BD
  $FED9  DB        .byte $DB
  $FEDA  BD        .byte $BD
  $FEDB  DD        .byte $DD
  $FEDC  DD        .byte $DD
  $FEDD  BB        .byte $BB
  $FEDE  DB        .byte $DB
  $FEDF  DD        .byte $DD
  $FEE0  DD        .byte $DD
  $FEE1  DD        .byte $DD
  $FEE2  DD        .byte $DD
  $FEE3  DD        .byte $DD
  $FEE4  DD        .byte $DD
  $FEE5  DD        .byte $DD
  $FEE6  DD        .byte $DD
  $FEE7  DD        .byte $DD
  $FEE8  DD        .byte $DD
  $FEE9  DD        .byte $DD
  $FEEA  DD        .byte $DD
  $FEEB  DD        .byte $DD
  $FEEC  DD        .byte $DD
  $FEED  DD        .byte $DD
  $FEEE  DD        .byte $DD
  $FEEF  DD        .byte $DD
  $FEF0  DD        .byte $DD
  $FEF1  DD        .byte $DD
  $FEF2  DD        .byte $DD
  $FEF3  DD        .byte $DD
  $FEF4  DD        .byte $DD
  $FEF5  6D        .byte $6D
  $FEF6  DD        .byte $DD
  $FEF7  DD        .byte $DD
  $FEF8  6D        .byte $6D
  $FEF9  DD        .byte $DD
  $FEFA  DD        .byte $DD
  $FEFB  6D        .byte $6D
  $FEFC  DD        .byte $DD
  $FEFD  DD        .byte $DD
  $FEFE  DD        .byte $DD
  $FEFF  DD        .byte $DD
  $FF00  DD        .byte $DD
  $FF01  DD        .byte $DD
  $FF02  DD        .byte $DD
  $FF03  DD        .byte $DD
  $FF04  DD        .byte $DD
  $FF05  DD        .byte $DD
  $FF06  DD        .byte $DD
  $FF07  DD        .byte $DD
  $FF08  DD        .byte $DD
  $FF09  DD        .byte $DD
  $FF0A  DD        .byte $DD
  $FF0B  DD        .byte $DD
  $FF0C  DD        .byte $DD
  $FF0D  DD        .byte $DD
  $FF0E  DD        .byte $DD
  $FF0F  DD        .byte $DD
  $FF10  DD        .byte $DD
  $FF11  DD        .byte $DD
  $FF12  DD        .byte $DD
  $FF13  DD        .byte $DD
  $FF14  DD        .byte $DD
  $FF15  DD        .byte $DD
  $FF16  DD        .byte $DD
  $FF17  DD        .byte $DD
  $FF18  DD        .byte $DD
  $FF19  DD        .byte $DD
  $FF1A  DD        .byte $DD
  $FF1B  DD        .byte $DD
  $FF1C  DD        .byte $DD
  $FF1D  DD        .byte $DD
  $FF1E  DD        .byte $DD
  $FF1F  DD        .byte $DD
  $FF20  DD        .byte $DD
  $FF21  DD        .byte $DD
  $FF22  DD        .byte $DD
  $FF23  DD        .byte $DD
  $FF24  DD        .byte $DD
  $FF25  DD        .byte $DD
  $FF26  DD        .byte $DD
  $FF27  DD        .byte $DD
  $FF28  DD        .byte $DD
  $FF29  DD        .byte $DD
  $FF2A  DD        .byte $DD
  $FF2B  DD        .byte $DD
  $FF2C  DD        .byte $DD
  $FF2D  BD        .byte $BD
  $FF2E  DD        .byte $DD
  $FF2F  DD        .byte $DD
  $FF30  DD        .byte $DD
  $FF31  DD        .byte $DD
  $FF32  DD        .byte $DD
  $FF33  BD        .byte $BD
  $FF34  BB        .byte $BB
  $FF35  DD        .byte $DD
  $FF36  DD        .byte $DD
  $FF37  DD        .byte $DD
  $FF38  DD        .byte $DD
  $FF39  DB        .byte $DB
  $FF3A  BD        .byte $BD
  $FF3B  9B        .byte $9B
  $FF3C  BD        .byte $BD
  $FF3D  DD        .byte $DD
  $FF3E  DD        .byte $DD
  $FF3F  DD        .byte $DD
  $FF40  BB        .byte $BB
  $FF41  9D        .byte $9D
  $FF42  99        .byte $99
  $FF43  BB        .byte $BB
  $FF44  DD        .byte $DD
  $FF45  DD        .byte $DD
  $FF46  DB        .byte $DB
  $FF47  B9        .byte $B9
  $FF48  9D        .byte $9D
  $FF49  FF        .byte $FF
  $FF4A  FF        .byte $FF
  $FF4B  FF        .byte $FF
  $FF4C  FF        .byte $FF
  $FF4D  FF        .byte $FF
  $FF4E  FF        .byte $FF
  $FF4F  FF        .byte $FF
  $FF50  FF        .byte $FF
  $FF51  FF        .byte $FF
  $FF52  FF        .byte $FF
  $FF53  FF        .byte $FF
  $FF54  FF        .byte $FF
  $FF55  FF        .byte $FF
  $FF56  FF        .byte $FF
  $FF57  FF        .byte $FF
  $FF58  FF        .byte $FF
  $FF59  FF        .byte $FF
  $FF5A  FF        .byte $FF
  $FF5B  FF        .byte $FF
  $FF5C  FF        .byte $FF
  $FF5D  FF        .byte $FF
  $FF5E  FF        .byte $FF
  $FF5F  FF        .byte $FF
  $FF60  FF        .byte $FF
  $FF61  FF        .byte $FF
  $FF62  FF        .byte $FF
  $FF63  FF        .byte $FF
  $FF64  FF        .byte $FF
  $FF65  FF        .byte $FF
  $FF66  FF        .byte $FF
  $FF67  FF        .byte $FF
  $FF68  FF        .byte $FF
  $FF69  FF        .byte $FF
  $FF6A  FF        .byte $FF
  $FF6B  FF        .byte $FF
  $FF6C  FF        .byte $FF
  $FF6D  FF        .byte $FF
  $FF6E  FF        .byte $FF
  $FF6F  FF        .byte $FF
  $FF70  FF        .byte $FF
  $FF71  FF        .byte $FF
  $FF72  FF        .byte $FF
  $FF73  FF        .byte $FF
  $FF74  FF        .byte $FF
  $FF75  FF        .byte $FF
  $FF76  FF        .byte $FF
  $FF77  FF        .byte $FF
  $FF78  FF        .byte $FF
  $FF79  FF        .byte $FF
  $FF7A  FF        .byte $FF
  $FF7B  FF        .byte $FF
  $FF7C  FF        .byte $FF
  $FF7D  FF        .byte $FF
  $FF7E  FF        .byte $FF
  $FF7F  FF        .byte $FF
  $FF80  FF        .byte $FF
  $FF81  FF        .byte $FF
  $FF82  FF        .byte $FF
  $FF83  FF        .byte $FF
  $FF84  FF        .byte $FF
  $FF85  FF        .byte $FF
  $FF86  FF        .byte $FF
  $FF87  FF        .byte $FF
  $FF88  FF        .byte $FF
  $FF89  FF        .byte $FF
  $FF8A  FF        .byte $FF
  $FF8B  FF        .byte $FF
  $FF8C  FF        .byte $FF
  $FF8D  FF        .byte $FF
  $FF8E  FF        .byte $FF
  $FF8F  FF        .byte $FF
  $FF90  FF        .byte $FF
  $FF91  FF        .byte $FF
  $FF92  FF        .byte $FF
  $FF93  FF        .byte $FF
  $FF94  FF        .byte $FF
  $FF95  FF        .byte $FF
  $FF96  FF        .byte $FF
  $FF97  FF        .byte $FF
  $FF98  FF        .byte $FF
  $FF99  FF        .byte $FF
  $FF9A  FF        .byte $FF
  $FF9B  FF        .byte $FF
  $FF9C  FF        .byte $FF
  $FF9D  FF        .byte $FF
  $FF9E  FF        .byte $FF
  $FF9F  FF        .byte $FF
  $FFA0  FF        .byte $FF
  $FFA1  FF        .byte $FF
  $FFA2  FF        .byte $FF
  $FFA3  FF        .byte $FF
  $FFA4  FF        .byte $FF
  $FFA5  FF        .byte $FF
  $FFA6  FF        .byte $FF
  $FFA7  FF        .byte $FF
  $FFA8  FF        .byte $FF
  $FFA9  FF        .byte $FF
  $FFAA  FF        .byte $FF
  $FFAB  FF        .byte $FF
  $FFAC  FF        .byte $FF
  $FFAD  FF        .byte $FF
  $FFAE  FF        .byte $FF
  $FFAF  FF        .byte $FF
  $FFB0  FF        .byte $FF
  $FFB1  FF        .byte $FF
  $FFB2  FF        .byte $FF
  $FFB3  FF        .byte $FF
  $FFB4  FF        .byte $FF
  $FFB5  FF        .byte $FF
  $FFB6  FF        .byte $FF
  $FFB7  FF        .byte $FF
  $FFB8  FF        .byte $FF
  $FFB9  FF        .byte $FF
  $FFBA  FF        .byte $FF
  $FFBB  FF        .byte $FF
  $FFBC  FF        .byte $FF
  $FFBD  FF        .byte $FF
  $FFBE  FF        .byte $FF
  $FFBF  FF        .byte $FF
  $FFC0  FF        .byte $FF
  $FFC1  FF        .byte $FF
  $FFC2  FF        .byte $FF
  $FFC3  FF        .byte $FF
  $FFC4  FF        .byte $FF
  $FFC5  FF        .byte $FF
  $FFC6  FF        .byte $FF
  $FFC7  FF        .byte $FF
  $FFC8  FF        .byte $FF
  $FFC9  FF        .byte $FF
  $FFCA  FF        .byte $FF
  $FFCB  FF        .byte $FF
  $FFCC  FF        .byte $FF
  $FFCD  FF        .byte $FF
  $FFCE  FF        .byte $FF
  $FFCF  FF        .byte $FF
  $FFD0  FF        .byte $FF
  $FFD1  FF        .byte $FF
  $FFD2  FF        .byte $FF
  $FFD3  FF        .byte $FF
  $FFD4  FF        .byte $FF
  $FFD5  FF        .byte $FF
  $FFD6  FF        .byte $FF
  $FFD7  FF        .byte $FF
  $FFD8  FF        .byte $FF
  $FFD9  FF        .byte $FF
  $FFDA  FF        .byte $FF
  $FFDB  FF        .byte $FF
  $FFDC  FF        .byte $FF
  $FFDD  FF        .byte $FF
  $FFDE  FF        .byte $FF
  $FFDF  FF        .byte $FF
  $FFE0  FF        .byte $FF
  $FFE1  FF        .byte $FF
  $FFE2  FF        .byte $FF
  $FFE3  FF        .byte $FF
  $FFE4  FF        .byte $FF
  $FFE5  FF        .byte $FF
  $FFE6  FF        .byte $FF
  $FFE7  FF        .byte $FF
  $FFE8  FF        .byte $FF
  $FFE9  FF        .byte $FF
  $FFEA  FF        .byte $FF
  $FFEB  FF        .byte $FF
  $FFEC  FF        .byte $FF
  $FFED  FF        .byte $FF
  $FFEE  FF        .byte $FF
  $FFEF  FF        .byte $FF
; ---------------------------------------------------------------------------
; Range $FFF0–$C000 (hex8) Padding
; ---------------------------------------------------------------------------
; ---------------------------------------------------------------------------
; Range $C000–$C070 (hex8) Padding
; ---------------------------------------------------------------------------
  $C000  43        .byte $43
  $C001  4F        .byte $4F
  $C002  50        .byte $50
  $C003  59        .byte $59
  $C004  52        .byte $52
  $C005  49        .byte $49
  $C006  47        .byte $47
  $C007  48        .byte $48
  $C008  54        .byte $54
  $C009  20        .byte $20
  $C00A  31        .byte $31
  $C00B  39        .byte $39
  $C00C  38        .byte $38
  $C00D  31        .byte $31
  $C00E  20        .byte $20
  $C00F  31        .byte $31
  $C010  39        .byte $39
  $C011  38        .byte $38
  $C012  35        .byte $35
  $C013  20        .byte $20
  $C014  4E        .byte $4E
  $C015  41        .byte $41
  $C016  4D        .byte $4D
  $C017  43        .byte $43
  $C018  4F        .byte $4F
  $C019  20        .byte $20
  $C01A  4C        .byte $4C
  $C01B  54        .byte $54
  $C01C  44        .byte $44
  $C01D  2E        .byte $2E
  $C01E  0D        .byte $0D
  $C01F  0A        .byte $0A
  $C020  41        .byte $41
  $C021  4C        .byte $4C
  $C022  4C        .byte $4C
  $C023  20        .byte $20
  $C024  52        .byte $52
  $C025  49        .byte $49
  $C026  47        .byte $47
  $C027  48        .byte $48
  $C028  54        .byte $54
  $C029  53        .byte $53
  $C02A  20        .byte $20
  $C02B  52        .byte $52
  $C02C  45        .byte $45
  $C02D  53        .byte $53
  $C02E  45        .byte $45
  $C02F  52        .byte $52
  $C030  56        .byte $56
  $C031  45        .byte $45
  $C032  44        .byte $44
  $C033  20        .byte $20
  $C034  20        .byte $20
  $C035  20        .byte $20
  $C036  20        .byte $20
  $C037  20        .byte $20
  $C038  20        .byte $20
  $C039  20        .byte $20
  $C03A  20        .byte $20
  $C03B  20        .byte $20
  $C03C  20        .byte $20
  $C03D  20        .byte $20
  $C03E  0D        .byte $0D
  $C03F  0A        .byte $0A
  $C040  52        .byte $52
  $C041  59        .byte $59
  $C042  4F        .byte $4F
  $C043  55        .byte $55
  $C044  49        .byte $49
  $C045  54        .byte $54
  $C046  49        .byte $49
  $C047  20        .byte $20
  $C048  4F        .byte $4F
  $C049  4F        .byte $4F
  $C04A  4B        .byte $4B
  $C04B  55        .byte $55
  $C04C  42        .byte $42
  $C04D  4F        .byte $4F
  $C04E  20        .byte $20
  $C04F  20        .byte $20
  $C050  54        .byte $54
  $C051  41        .byte $41
  $C052  4B        .byte $4B
  $C053  45        .byte $45
  $C054  46        .byte $46
  $C055  55        .byte $55
  $C056  4D        .byte $4D
  $C057  49        .byte $49
  $C058  20        .byte $20
  $C059  48        .byte $48
  $C05A  59        .byte $59
  $C05B  4F        .byte $4F
  $C05C  55        .byte $55
  $C05D  44        .byte $44
  $C05E  4F        .byte $4F
  $C05F  55        .byte $55
  $C060  4A        .byte $4A
  $C061  55        .byte $55
  $C062  4E        .byte $4E
  $C063  4B        .byte $4B
  $C064  4F        .byte $4F
  $C065  20        .byte $20
  $C066  4F        .byte $4F
  $C067  5A        .byte $5A
  $C068  41        .byte $41
  $C069  57        .byte $57
  $C06A  41        .byte $41
  $C06B  20        .byte $20
  $C06C  20        .byte $20
  $C06D  20        .byte $20
  $C06E  20        .byte $20
  $C06F  20        .byte $20
; ---------------------------------------------------------------------------
; Range $C070–$D1A7 (code)
; ---------------------------------------------------------------------------

Reset:
  $C070  78        SEI  ; SEI; disable interrupts; start of reset handler
  $C071  A9 10     LDA #$10
  $C073  8D 00 20  STA $2000 ; PPU ctrl: NMI off / 8x8 sprites / BG pattern table 1
  $C076  A9 00     LDA #$00
  $C078  8D 20 40  STA $4020 ; VS. System register - coin/service I/O
  $C07B  85 4B     STA $4B
  $C07D  D8        CLD 
  $C07E  AD 02 20  LDA $2002 ; Wait for 1st VBlank
  $C081  10 FB     BPL $C07E
  $C083  A9 06     LDA #$06
  $C085  8D 01 20  STA $2001
  $C088  AD 02 20  LDA $2002 ; Wait for 2nd VBlank
  $C08B  10 FB     BPL $C088
  $C08D  A9 06     LDA #$06
  $C08F  8D 01 20  STA $2001
  $C092  A2 7F     LDX #$7F ; Set stack pointer to $7F (128-byte stack at $0100-$017F)
  $C094  9A        TXS 
  $C095  20 BF D3  JSR Init
  $C098  A9 00     LDA #$00
  $C09A  85 4F     STA $4F
  $C09C  85 50     STA $50
  $C09E  A9 B0     LDA #$B0 ; PPU ctrl $B0: NMI enable (bit7) / 8x16 sprite mode (bit5=1) / BG pattern $1000 (bit4) — gameplay PPUCTRL
  $C0A0  8D 00 20  STA $2000
  $C0A3  20 96 D3  JSR Init2
  $C0A6  20 AA CF  JSR PreLoop
  $C0A9  20 96 CF  JSR GameOverScoreScreen
  $C0AC  20 5C C6  JSR MainLoop_2
  $C0AF  20 7B C6  JSR MainLoop_3
  $C0B2  20 89 C3  JSR MainLoop_4
  $C0B5  20 02 C4  JSR GameFrame
  $C0B8  4C A9 C0  JMP $C0A9 ; Main game loop (infinite)
  $C0BB  20 71 D0  JSR StageStartDraw
  $C0BE  20 40 C8  JSR CoinScreen
  $C0C1  20 5F D9  JSR WaitVBlank
  $C0C4  20 F6 EB  JSR SoundResetInit
  $C0C7  A9 1C     LDA #$1C
  $C0C9  85 05     STA $05
  $C0CB  A9 6E     LDA #$6E
  $C0CD  85 60     STA $60
  $C0CF  A9 00     LDA #$00
  $C0D1  85 4F     STA $4F
  $C0D3  85 50     STA $50
  $C0D5  85 6D     STA $6D
  $C0D7  85 0A     STA $0A
  $C0D9  85 0B     STA $0B
  $C0DB  20 7B D5  JSR $D57B
  $C0DE  20 AD CA  JSR TallyOpenCurtain
  $C0E1  A9 01     LDA #$01
  $C0E3  85 6B     STA $6B
  $C0E5  20 B6 C8  JSR $C8B6
  $C0E8  A5 4C     LDA $4C
  $C0EA  F0 03     BEQ $C0EF
  $C0EC  4C 8A C1  JMP GameLoopTop
  $C0EF  A5 06     LDA $06
  $C0F1  29 03     AND #$03
  $C0F3  D0 03     BNE $C0F8
  $C0F5  4C 8A C1  JMP GameLoopTop
  $C0F8  20 B6 C8  JSR $C8B6
  $C0FB  A9 D1     LDA #$D1
  $C0FD  85 12     STA $12
  $C0FF  A9 CD     LDA #$CD
  $C101  85 11     STA $11
  $C103  A2 07     LDX #$07
  $C105  A0 07     LDY #$07
  $C107  20 D3 D6  JSR PPUQueueTiles
  $C10A  A9 D1     LDA #$D1
  $C10C  85 12     STA $12
  $C10E  A9 DF     LDA #$DF
  $C110  85 11     STA $11
  $C112  A2 0D     LDX #$0D
  $C114  A0 10     LDY #$10
  $C116  20 D3 D6  JSR PPUQueueTiles
  $C119  A9 0A     LDA #$0A
  $C11B  38        SEC 
  $C11C  E5 0A     SBC $0A
  $C11E  20 94 DA  JSR BCD_Div
  $C121  A0 36     LDY #$36
  $C123  A2 0D     LDX #$0D
  $C125  20 A7 D9  JSR SkipLeadingZeros
  $C128  A0 10     LDY #$10
  $C12A  20 FD D6  JSR PPUQueueTilesB
  $C12D  A5 0A     LDA $0A
  $C12F  C9 0A     CMP #$0A
  $C131  B0 57     BCS GameLoopTop
  $C133  A5 08     LDA $08
  $C135  05 09     ORA $09
  $C137  29 03     AND #$03
  $C139  D0 4F     BNE GameLoopTop
  $C13B  A5 08     LDA $08
  $C13D  05 09     ORA $09
  $C13F  29 10     AND #$10
  $C141  D0 0E     BNE $C151
  $C143  A5 06     LDA $06
  $C145  05 07     ORA $07
  $C147  29 10     AND #$10
  $C149  F0 15     BEQ $C160
  $C14B  A5 0B     LDA $0B
  $C14D  29 07     AND #$07
  $C14F  D0 0F     BNE $C160
  $C151  E6 85     INC $85
  $C153  A5 85     LDA $85
  $C155  C9 24     CMP #$24
  $C157  D0 9F     BNE $C0F8
  $C159  A9 23     LDA #$23
  $C15B  85 85     STA $85
  $C15D  4C F8 C0  JMP $C0F8
  $C160  A5 08     LDA $08
  $C162  05 09     ORA $09
  $C164  29 20     AND #$20
  $C166  D0 14     BNE $C17C
  $C168  A5 06     LDA $06
  $C16A  05 07     ORA $07
  $C16C  29 20     AND #$20
  $C16E  D0 03     BNE $C173
  $C170  4C F8 C0  JMP $C0F8
  $C173  A5 0B     LDA $0B
  $C175  29 07     AND #$07
  $C177  F0 03     BEQ $C17C
  $C179  4C F8 C0  JMP $C0F8
  $C17C  C6 85     DEC $85
  $C17E  F0 03     BEQ $C183
  $C180  4C F8 C0  JMP $C0F8
  $C183  A9 01     LDA #$01
  $C185  85 85     STA $85
  $C187  4C F8 C0  JMP $C0F8

GameLoopTop:
  $C18A  A9 01     LDA #$01 ; GameLoopTop: JMP target for outer game loop re-entry; jumped to after stage-end or game-over sequence completes to restart per-frame update
  $C18C  8D 01 03  STA $0301
  $C18F  8D 02 03  STA $0302
  $C192  8D 03 03  STA $0303
  $C195  20 30 C8  JSR PreLevelInit
  $C198  A5 85     LDA $85
  $C19A  20 00 F2  JSR LevelTileLoad
  $C19D  20 12 C9  JSR BrickWallInit

StageEndHandler:
  $C1A0  A9 00     LDA #$00 ; StageEndHandler: dispatches on lives/eagle state; calls DrawGameOverScreen($C53E) at $C213 when $4B≠0 (game over); otherwise routes to stage-clear tally
  $C1A2  85 0C     STA $0C
  $C1A4  85 60     STA $60
  $C1A6  85 6B     STA $6B
  $C1A8  20 44 CA  JSR $CA44
  $C1AB  20 CF CA  JSR TallyCloseCurtain
  $C1AE  20 95 D5  JSR $D595
  $C1B1  20 01 C3  JSR ClearAndRespawn
  $C1B4  20 5F D9  JSR WaitVBlank
  $C1B7  20 9F C2  JSR GameUpdate2
  $C1BA  20 EF E2  JSR EntityUpdate
  $C1BD  20 8C E1  JSR CollisionUpdate
  $C1C0  20 5A DF  JSR MoveUpdate
  $C1C3  20 2F C6  JSR CheckGameOver
  $C1C6  F0 EC     BEQ $C1B4
  $C1C8  A9 00     LDA #$00
  $C1CA  85 0A     STA $0A
  $C1CC  85 0B     STA $0B
  $C1CE  AD 08 01  LDA $0108
  $C1D1  F0 04     BEQ $C1D7
  $C1D3  A9 FE     LDA #$FE
  $C1D5  85 0A     STA $0A
  $C1D7  20 5F D9  JSR WaitVBlank
  $C1DA  20 49 C2  JSR InputBlockDuringFlash
  $C1DD  20 9F C2  JSR GameUpdate2
  $C1E0  20 EF E2  JSR EntityUpdate
  $C1E3  20 5A DF  JSR MoveUpdate
  $C1E6  20 8C E1  JSR CollisionUpdate
  $C1E9  20 D9 C2  JSR PaletteFlash
  $C1EC  A5 0A     LDA $0A
  $C1EE  C9 02     CMP #$02
  $C1F0  D0 E5     BNE $C1D7
  $C1F2  20 F6 EB  JSR SoundResetInit
  $C1F5  20 F1 CA  JSR StageClearTallyScreen
  $C1F8  E6 85     INC $85
  $C1FA  A5 51     LDA $51
  $C1FC  18        CLC 
  $C1FD  65 52     ADC $52
  $C1FF  F0 09     BEQ $C20A
  $C201  A5 68     LDA $68
  $C203  C9 80     CMP #$80
  $C205  D0 03     BNE $C20A
  $C207  4C C1 C0  JMP $C0C1
  $C20A  A5 15     LDA $15
  $C20C  05 1D     ORA $1D
  $C20E  F0 03     BEQ $C213
  $C210  20 4D C4  JSR DrawVictoryScreen
  $C213  20 3E C5  JSR DrawGameOverScreen
  $C216  20 F0 D9  JSR CompareAndUpdateHiScore
  $C219  98        TYA 
  $C21A  F0 06     BEQ $C222
  $C21C  20 E9 C4  JSR NewHiScoreDisplay
  $C21F  20 25 C2  JSR GameOverCleanup
  $C222  4C A6 C0  JMP $C0A6

GameOverCleanup:
  $C225  20 A1 D3  JSR WaitNMI ; GameOverCleanup: WaitNMI + ClearSpriteBuf + WriteNametable + Init2; called after NewHiScoreDisplay before JMP $C0A6
  $C228  20 AC D3  JSR ClearSpriteBuf
  $C22B  20 D4 D7  JSR WriteNametable
  $C22E  20 96 D3  JSR Init2
  $C231  60        RTS 
  $C232  A5 46     LDA $46
  $C234  C9 02     CMP #$02
  $C236  F0 10     BEQ $C248
  $C238  A5 83     LDA $83
  $C23A  D0 0C     BNE $C248
  $C23C  A5 08     LDA $08
  $C23E  05 09     ORA $09
  $C240  85 08     STA $08
  $C242  A5 06     LDA $06
  $C244  05 07     ORA $07
  $C246  85 06     STA $06
  $C248  60        RTS 

InputBlockDuringFlash:
  $C249  A5 68     LDA $68 ; InputBlockDuringFlash: if $68=$80 (HQ active) skip; else zero $06-$09 (P1Dir/P2Dir/P1Fire/P2Fire) — blocks input during palette-flash game-over animation
  $C24B  C9 80     CMP #$80
  $C24D  F0 0A     BEQ $C259
  $C24F  A9 00     LDA #$00
  $C251  85 06     STA $06
  $C253  85 07     STA $07
  $C255  85 08     STA $08
  $C257  85 09     STA $09
  $C259  60        RTS 

NewGameInit:
  $C25A  A2 15     LDX #$15 ; NewGameInit: ZeroSlot at $15
  $C25C  20 7F DA  JSR ZeroSlot
  $C25F  A2 1D     LDX #$1D
  $C261  20 7F DA  JSR ZeroSlot
  $C264  A9 00     LDA #$00
  $C266  8D 01 01  STA $0101
  $C269  8D 02 01  STA $0102
  $C26C  A9 00     LDA #$00
  $C26E  85 66     STA $66
  $C270  85 67     STA $67
  $C272  85 4C     STA $4C
  $C274  AD 16 40  LDA $4016
  $C277  29 10     AND #$10
  $C279  F0 09     BEQ $C284
  $C27B  A9 05     LDA #$05
  $C27D  85 51     STA $51
  $C27F  85 52     STA $52
  $C281  4C 8A C2  JMP $C28A
  $C284  A9 03     LDA #$03
  $C286  85 51     STA $51
  $C288  85 52     STA $52
  $C28A  A9 03     LDA #$03
  $C28C  85 6A     STA $6A
  $C28E  A5 83     LDA $83
  $C290  D0 04     BNE $C296
  $C292  A9 00     LDA #$00
  $C294  85 52     STA $52
  $C296  A9 01     LDA #$01
  $C298  85 85     STA $85
  $C29A  A9 00     LDA #$00
  $C29C  85 46     STA $46
  $C29E  60        RTS 

GameUpdate2:
  $C29F  20 35 E2  JSR CalcTilePos
  $C2A2  20 32 C2  JSR $C232
  $C2A5  20 23 DC  JSR PlayerInputUpdate
  $C2A8  20 9F DC  JSR EntityMovement
  $C2AB  20 AE E2  JSR ClearTileFlags
  $C2AE  20 E2 E0  JSR BulletUpdate
  $C2B1  20 5D E3  JSR ShovelTimerUpdate
  $C2B4  20 30 E3  JSR PlayerShieldDraw
  $C2B7  20 D6 E1  JSR PlayerFireCheck
  $C2BA  20 16 E2  JSR EnemyFireCheck
  $C2BD  20 F6 DB  JSR EnemySpawnDispatch
  $C2C0  20 A9 E7  JSR BulletMoveCollision
  $C2C3  20 B5 EA  JSR BulletVsBulletCancel
  $C2C6  20 B1 E8  JSR EnemyBulletPlayerHit
  $C2C9  20 17 EB  JSR PowerUpCollision
  $C2CC  20 F8 C7  JSR HUDTankAnimation
  $C2CF  20 B9 DB  JSR CheckPlayersMoving
  $C2D2  20 C5 C6  JSR StartGame

GameUpdate2_end:
  $C2D5  20 D9 C2  JSR PaletteFlash
  $C2D8  60        RTS 

PaletteFlash:
  $C2D9  A5 0B     LDA $0B
  $C2DB  29 3F     AND #$3F
  $C2DD  F0 13     BEQ $C2F2
  $C2DF  C9 20     CMP #$20
  $C2E1  D0 1D     BNE $C300
  $C2E3  A9 12     LDA #$12
  $C2E5  A0 06     LDY #$06
  $C2E7  20 3E DB  JSR QueuePaletteWrite
  $C2EA  A9 37     LDA #$37
  $C2EC  A0 05     LDY #$05
  $C2EE  20 3E DB  JSR QueuePaletteWrite
  $C2F1  60        RTS 
  $C2F2  A9 37     LDA #$37
  $C2F4  A0 06     LDY #$06
  $C2F6  20 3E DB  JSR QueuePaletteWrite
  $C2F9  A9 12     LDA #$12
  $C2FB  A0 05     LDY #$05
  $C2FD  20 3E DB  JSR QueuePaletteWrite
  $C300  60        RTS 

ClearAndRespawn:
  $C301  20 C6 E4  JSR ClearBulletSlots ; ClearAndRespawn: ClearBulletSlots+ClearEntitySlots; $0106=$F0 $0108=0; if $51>0: PlayerRespawn(X=0 P1); if $52>0: PlayerRespawn(X=1 P2); $7F=$80=$14 timers; $8F=$0A=$45=0
  $C304  20 D0 E4  JSR ClearEntitySlots
  $C307  A9 F0     LDA #$F0
  $C309  8D 06 01  STA $0106
  $C30C  A9 00     LDA #$00
  $C30E  8D 08 01  STA $0108
  $C311  A5 51     LDA $51
  $C313  F0 05     BEQ $C31A
  $C315  A2 00     LDX #$00
  $C317  20 17 E4  JSR PlayerRespawn
  $C31A  A5 52     LDA $52
  $C31C  F0 05     BEQ $C323
  $C31E  A2 01     LDX #$01
  $C320  20 17 E4  JSR PlayerRespawn
  $C323  A9 14     LDA #$14
  $C325  85 7F     STA $7F
  $C327  85 80     STA $80
  $C329  A9 00     LDA #$00
  $C32B  85 8F     STA $8F
  $C32D  85 0A     STA $0A
  $C32F  85 45     STA $45
  $C331  85 6F     STA $6F
  $C333  85 70     STA $70
  $C335  85 89     STA $89
  $C337  85 8A     STA $8A
  $C339  85 82     STA $82
  $C33B  85 86     STA $86

LevelStart:
  $C33D  8D 00 01  STA $0100
  $C340  85 6A     STA $6A
  $C342  20 25 C6  JSR ClearKillTallies
  $C345  20 BD C7  JSR DrawAllHUDKillIcons
  $C348  20 5F D9  JSR WaitVBlank
  $C34B  20 2D C7  JSR DrawSidebar1PLabel
  $C34E  20 56 C7  JSR $C756
  $C351  20 E8 E4  JSR SetSpeedPtr
  $C354  A9 80     LDA #$80 ; $68=$80 = GameActive flag set at level start; same ZP used as eagle destruction countdown (1..$7F) and game-over check (0)
  $C356  85 68     STA $68
  $C358  A9 01     LDA #$01
  $C35A  8D 12 03  STA $0312
  $C35D  85 4C     STA $4C ; $4C=1: GameSessionActive set at LevelStart — paired with $68=$80; cleared only by NewGameInit($C272); checked at $C0E8 to decide game restart path
  $C35F  A5 46     LDA $46
  $C361  C9 01     CMP #$01
  $C363  D0 05     BNE $C36A
  $C365  A9 23     LDA #$23
  $C367  4C 72 C3  JMP $C372
  $C36A  A5 85     LDA $85
  $C36C  C9 24     CMP #$24
  $C36E  90 02     BCC $C372
  $C370  A9 23     LDA #$23
  $C372  0A        ASL 
  $C373  0A        ASL 
  $C374  85 00     STA $00
  $C376  A9 BE     LDA #$BE
  $C378  38        SEC 
  $C379  E5 00     SBC $00
  $C37B  85 84     STA $84
  $C37D  A5 83     LDA $83
  $C37F  F0 07     BEQ $C388
  $C381  A5 84     LDA $84
  $C383  38        SEC 
  $C384  E9 14     SBC #$14
  $C386  85 84     STA $84
  $C388  60        RTS 

MainLoop_4:
  $C389  AD 17 40  LDA $4017
  $C38C  29 04     AND #$04
  $C38E  D0 07     BNE $C397
  $C390  A9 00     LDA #$00
  $C392  85 6D     STA $6D
  $C394  4C 9B C3  JMP $C39B
  $C397  A9 01     LDA #$01
  $C399  85 6D     STA $6D
  $C39B  A9 1C     LDA #$1C
  $C39D  85 05     STA $05
  $C39F  20 D3 D5  JSR SetTitlePalette
  $C3A2  20 64 C2  JSR $C264
  $C3A5  A5 51     LDA $51
  $C3A7  85 52     STA $52
  $C3A9  A9 00     LDA #$00
  $C3AB  85 4F     STA $4F
  $C3AD  85 50     STA $50
  $C3AF  85 0A     STA $0A
  $C3B1  85 0B     STA $0B
  $C3B3  20 30 C8  JSR PreLevelInit
  $C3B6  A9 FF     LDA #$FF
  $C3B8  85 85     STA $85
  $C3BA  20 00 F2  JSR LevelTileLoad
  $C3BD  A9 23     LDA #$23
  $C3BF  85 85     STA $85
  $C3C1  A9 02     LDA #$02
  $C3C3  85 46     STA $46
  $C3C5  20 A1 D3  JSR WaitNMI
  $C3C8  A2 1A     LDX #$1A
  $C3CA  86 56     STX $56
  $C3CC  A0 46     LDY #$46
  $C3CE  84 57     STY $57
  $C3D0  A9 D1     LDA #$D1
  $C3D2  85 14     STA $14
  $C3D4  A9 4F     LDA #$4F
  $C3D6  85 13     STA $13
  $C3D8  20 F7 D8  JSR DrawSpriteString
  $C3DB  A2 3C     LDX #$3C
  $C3DD  86 56     STX $56
  $C3DF  A0 78     LDY #$78
  $C3E1  84 57     STY $57
  $C3E3  A9 D1     LDA #$D1
  $C3E5  85 14     STA $14
  $C3E7  A9 56     LDA #$56
  $C3E9  85 13     STA $13
  $C3EB  20 F7 D8  JSR DrawSpriteString
  $C3EE  20 D4 D7  JSR WriteNametable
  $C3F1  20 96 D3  JSR Init2
  $C3F4  20 01 C3  JSR ClearAndRespawn
  $C3F7  20 12 C9  JSR BrickWallInit
  $C3FA  20 5F D9  JSR WaitVBlank
  $C3FD  A9 05     LDA #$05
  $C3FF  85 6C     STA $6C
  $C401  60        RTS 

GameFrame:
  $C402  20 5F D9  JSR WaitVBlank
  $C405  A5 4B     LDA $4B
  $C407  D0 23     BNE GameOverExit
  $C409  20 3F C4  JSR SetHUDSprites
  $C40C  20 A1 C5  JSR GameUpdate1
  $C40F  20 9F C2  JSR GameUpdate2
  $C412  20 EF E2  JSR EntityUpdate
  $C415  20 5A DF  JSR MoveUpdate
  $C418  20 8C E1  JSR CollisionUpdate
  $C41B  20 2F C6  JSR CheckGameOver
  $C41E  F0 E2     BEQ GameFrame
  $C420  A9 00     LDA #$00
  $C422  85 0C     STA $0C
  $C424  A9 01     LDA #$01
  $C426  85 6D     STA $6D
  $C428  20 F6 EB  JSR SoundResetInit
  $C42B  60        RTS 

GameOverExit:
  $C42C  68        PLA 
  $C42D  68        PLA 
  $C42E  A9 00     LDA #$00
  $C430  85 0C     STA $0C
  $C432  A9 01     LDA #$01
  $C434  85 6D     STA $6D
  $C436  20 F6 EB  JSR SoundResetInit
  $C439  20 96 CF  JSR GameOverScoreScreen
  $C43C  4C BB C0  JMP $C0BB

SetHUDSprites:
  $C43F  A9 70     LDA #$70
  $C441  8D 05 01  STA $0105
  $C444  A9 70     LDA #$70
  $C446  8D 06 01  STA $0106
  $C449  8D 08 01  STA $0108
  $C44C  60        RTS 

DrawVictoryScreen:
  $C44D  20 A1 D3  JSR WaitNMI ; DrawVictoryScreen: final victory (all stages cleared); disable PPU; clear nametables $1C+$24; draw "PEACE BE WITH YOU"(col7 row10) via DrawSprites($D291); draw 9 deco tiles $60-$68(col12 row14) via DrawSprites($D145); draw "NOW LONG WAR"(col10 row7)/"COMES TO"(col12 row10)/"AN END"(col13 row13) via DrawRowTiles; then 240-frame ScrollX slide (INC $4F until $F0); ScrollX=0 ScrollY=2; RTS; called from $C210 when $15|$1D != 0
  $C450  A9 00     LDA #$00
  $C452  85 4F     STA $4F
  $C454  85 50     STA $50
  $C456  20 AC D3  JSR ClearSpriteBuf
  $C459  A9 1C     LDA #$1C
  $C45B  85 05     STA $05
  $C45D  20 D4 D7  JSR WriteNametable
  $C460  A9 24     LDA #$24
  $C462  85 05     STA $05
  $C464  20 D4 D7  JSR WriteNametable
  $C467  20 96 D3  JSR Init2
  $C46A  20 AF D5  JSR SetGamePalette
  $C46D  A9 D2     LDA #$D2
  $C46F  85 12     STA $12
  $C471  A9 91     LDA #$91
  $C473  85 11     STA $11
  $C475  A2 07     LDX #$07
  $C477  A0 0A     LDY #$0A
  $C479  20 D3 D6  JSR PPUQueueTiles
  $C47C  A9 D1     LDA #$D1
  $C47E  85 12     STA $12
  $C480  A9 45     LDA #$45
  $C482  85 11     STA $11
  $C484  A2 0C     LDX #$0C
  $C486  A0 0E     LDY #$0E
  $C488  20 D3 D6  JSR PPUQueueTiles
  $C48B  20 5F D9  JSR WaitVBlank
  $C48E  A9 1C     LDA #$1C
  $C490  85 05     STA $05
  $C492  A9 D2     LDA #$D2
  $C494  85 14     STA $14
  $C496  A9 A4     LDA #$A4
  $C498  85 13     STA $13
  $C49A  A9 0A     LDA #$0A
  $C49C  85 5D     STA $5D
  $C49E  A9 07     LDA #$07
  $C4A0  85 5E     STA $5E
  $C4A2  20 1B D9  JSR DrawRowTiles
  $C4A5  A9 D2     LDA #$D2
  $C4A7  85 14     STA $14
  $C4A9  A9 B1     LDA #$B1
  $C4AB  85 13     STA $13
  $C4AD  A9 0C     LDA #$0C
  $C4AF  85 5D     STA $5D
  $C4B1  A9 0A     LDA #$0A
  $C4B3  85 5E     STA $5E
  $C4B5  20 1B D9  JSR DrawRowTiles
  $C4B8  A9 D2     LDA #$D2
  $C4BA  85 14     STA $14
  $C4BC  A9 BA     LDA #$BA
  $C4BE  85 13     STA $13
  $C4C0  A9 0D     LDA #$0D
  $C4C2  85 5D     STA $5D
  $C4C4  A9 0D     LDA #$0D
  $C4C6  85 5E     STA $5E
  $C4C8  20 1B D9  JSR DrawRowTiles
  $C4CB  A2 F0     LDX #$F0
  $C4CD  20 66 D9  JSR WaitVBlankX
  $C4D0  20 5F D9  JSR WaitVBlank
  $C4D3  E6 4F     INC $4F
  $C4D5  A5 4F     LDA $4F
  $C4D7  C9 F0     CMP #$F0
  $C4D9  D0 F5     BNE $C4D0
  $C4DB  A9 00     LDA #$00
  $C4DD  85 4F     STA $4F
  $C4DF  A9 02     LDA #$02
  $C4E1  85 50     STA $50
  $C4E3  A2 F0     LDX #$F0
  $C4E5  20 66 D9  JSR WaitVBlankX
  $C4E8  60        RTS 

NewHiScoreDisplay:
  $C4E9  20 A1 D3  JSR WaitNMI ; NewHiScoreDisplay: WaitNMI; NametableId=$1C; DrawX=$10 DrawY=$32 SrcPtr=$D16B→$D8F7 (HI-SCORE label); $D9C4 (draw value); WriteNametable; Init2; timers $0315-$0317=1; loop: WaitVBlank+RNG+QueuePaletteWrite until timers clear
  $C4EC  A9 1C     LDA #$1C
  $C4EE  85 05     STA $05
  $C4F0  A9 00     LDA #$00
  $C4F2  85 4F     STA $4F
  $C4F4  85 50     STA $50
  $C4F6  20 AC D3  JSR ClearSpriteBuf
  $C4F9  A2 10     LDX #$10
  $C4FB  86 56     STX $56
  $C4FD  A0 32     LDY #$32
  $C4FF  84 57     STY $57
  $C501  A9 D1     LDA #$D1
  $C503  85 14     STA $14
  $C505  A9 6B     LDA #$6B
  $C507  85 13     STA $13
  $C509  20 F7 D8  JSR DrawSpriteString
  $C50C  20 C4 D9  JSR DrawHiScoreSprite
  $C50F  20 D4 D7  JSR WriteNametable
  $C512  20 96 D3  JSR Init2
  $C515  A9 00     LDA #$00
  $C517  85 0A     STA $0A
  $C519  A9 01     LDA #$01
  $C51B  8D 15 03  STA $0315
  $C51E  8D 16 03  STA $0316
  $C521  8D 17 03  STA $0317
  $C524  20 5F D9  JSR WaitVBlank
  $C527  20 7C D3  JSR RNG
  $C52A  29 3F     AND #$3F
  $C52C  A0 01     LDY #$01
  $C52E  20 3E DB  JSR QueuePaletteWrite
  $C531  AD 15 03  LDA $0315
  $C534  D0 EE     BNE $C524
  $C536  A9 17     LDA #$17
  $C538  A0 01     LDY #$01
  $C53A  20 3E DB  JSR QueuePaletteWrite
  $C53D  60        RTS 

DrawGameOverScreen:
  $C53E  20 A1 D3  JSR WaitNMI ; DrawGameOverScreen: WaitNMI; NametableId=$1C; ScrollX/Y=0; ClearSpriteBuf; draw GAME($D214) at DrawX=$3C DrawY=$46 via $D8F7; draw OVER($D219) at DrawY=$78; WriteNametable; Init2; SetGamePalette; $0318=$0319=$031A=1 (anim timers); wait VBlank until $0318=0; WaitNMI+ClearSpriteBuf+WriteNametable+Init2; RTS
  $C541  A9 1C     LDA #$1C
  $C543  85 05     STA $05
  $C545  A9 00     LDA #$00
  $C547  85 4F     STA $4F
  $C549  85 50     STA $50
  $C54B  20 AC D3  JSR ClearSpriteBuf
  $C54E  A2 3C     LDX #$3C
  $C550  86 56     STX $56
  $C552  A0 46     LDY #$46
  $C554  84 57     STY $57
  $C556  A9 D2     LDA #$D2
  $C558  85 14     STA $14
  $C55A  A9 14     LDA #$14
  $C55C  85 13     STA $13
  $C55E  20 F7 D8  JSR DrawSpriteString
  $C561  A2 3C     LDX #$3C
  $C563  86 56     STX $56
  $C565  A0 78     LDY #$78
  $C567  84 57     STY $57
  $C569  A9 D2     LDA #$D2
  $C56B  85 14     STA $14
  $C56D  A9 19     LDA #$19
  $C56F  85 13     STA $13
  $C571  20 F7 D8  JSR DrawSpriteString
  $C574  20 D4 D7  JSR WriteNametable
  $C577  20 96 D3  JSR Init2
  $C57A  20 AF D5  JSR SetGamePalette
  $C57D  A9 00     LDA #$00
  $C57F  85 0A     STA $0A
  $C581  A9 01     LDA #$01
  $C583  8D 18 03  STA $0318
  $C586  8D 19 03  STA $0319
  $C589  8D 1A 03  STA $031A
  $C58C  20 5F D9  JSR WaitVBlank
  $C58F  AD 18 03  LDA $0318
  $C592  D0 F8     BNE $C58C
  $C594  20 A1 D3  JSR WaitNMI
  $C597  20 AC D3  JSR ClearSpriteBuf
  $C59A  20 D4 D7  JSR WriteNametable
  $C59D  20 96 D3  JSR Init2
  $C5A0  60        RTS 

GameUpdate1:
  $C5A1  A9 01     LDA #$01
  $C5A3  85 5A     STA $5A
  $C5A5  A6 5A     LDX $5A
  $C5A7  A5 86     LDA $86
  $C5A9  F0 12     BEQ $C5BD
  $C5AB  A5 62     LDA $62
  $C5AD  D0 0E     BNE $C5BD
  $C5AF  A5 86     LDA $86
  $C5B1  85 71     STA $71
  $C5B3  A5 87     LDA $87
  $C5B5  85 72     STA $72
  $C5B7  20 56 DE  JSR CalcDirToTarget
  $C5BA  4C 04 C6  JMP $C604
  $C5BD  B5 A2     LDA $A2,X
  $C5BF  10 12     BPL $C5D3
  $C5C1  C9 E0     CMP #$E0
  $C5C3  B0 0E     BCS $C5D3
  $C5C5  B5 92     LDA $92,X
  $C5C7  85 71     STA $71
  $C5C9  B5 9A     LDA $9A,X
  $C5CB  85 72     STA $72
  $C5CD  20 56 DE  JSR CalcDirToTarget
  $C5D0  4C 04 C6  JMP $C604
  $C5D3  B5 A4     LDA $A4,X
  $C5D5  10 12     BPL $C5E9
  $C5D7  C9 E0     CMP #$E0
  $C5D9  B0 0E     BCS $C5E9
  $C5DB  B5 94     LDA $94,X
  $C5DD  85 71     STA $71
  $C5DF  B5 9C     LDA $9C,X
  $C5E1  85 72     STA $72
  $C5E3  20 56 DE  JSR CalcDirToTarget
  $C5E6  4C 04 C6  JMP $C604
  $C5E9  B5 A3     LDA $A3,X
  $C5EB  10 12     BPL $C5FF
  $C5ED  C9 E0     CMP #$E0
  $C5EF  B0 0E     BCS $C5FF
  $C5F1  B5 93     LDA $93,X
  $C5F3  85 71     STA $71
  $C5F5  B5 9B     LDA $9B,X
  $C5F7  85 72     STA $72
  $C5F9  20 56 DE  JSR CalcDirToTarget
  $C5FC  4C 04 C6  JMP $C604
  $C5FF  A9 00     LDA #$00
  $C601  4C 0A C6  JMP $C60A
  $C604  29 03     AND #$03
  $C606  A8        TAY 
  $C607  B9 21 C6  LDA $C621,Y
  $C60A  A6 5A     LDX $5A
  $C60C  95 06     STA $06,X
  $C60E  95 08     STA $08,X
  $C610  B5 98     LDA $98,X
  $C612  C9 C8     CMP #$C8
  $C614  90 06     BCC $C61C
  $C616  B5 08     LDA $08,X
  $C618  29 F0     AND #$F0
  $C61A  95 08     STA $08,X
  $C61C  C6 5A     DEC $5A
  $C61E  10 85     BPL $C5A5
  $C620  60        RTS 
  $C621  13 43     SLO ($43),Y
  $C623  23 83     RLA ($83,X)

ClearKillTallies:
  $C625  A2 07     LDX #$07 ; ClearKillTallies: loop X=7..0; STA $73
  $C627  A9 00     LDA #$00
  $C629  95 73     STA $73,X
  $C62B  CA        DEX 
  $C62C  10 FB     BPL $C629
  $C62E  60        RTS 

CheckGameOver:
  $C62F  A5 68     LDA $68
  $C631  F0 0B     BEQ SetCenterDeathScroll
  $C633  A5 80     LDA $80
  $C635  F0 1F     BEQ $C656
  $C637  A5 51     LDA $51
  $C639  18        CLC 
  $C63A  65 52     ADC $52
  $C63C  D0 1B     BNE $C659

SetCenterDeathScroll:
  $C63E  A9 70     LDA #$70
  $C640  8D 05 01  STA $0105
  $C643  A9 F0     LDA #$F0
  $C645  8D 06 01  STA $0106
  $C648  A9 00     LDA #$00
  $C64A  8D 07 01  STA $0107
  $C64D  A9 11     LDA #$11
  $C64F  8D 08 01  STA $0108
  $C652  A9 00     LDA #$00
  $C654  85 0B     STA $0B
  $C656  A9 01     LDA #$01
  $C658  60        RTS 
  $C659  A9 00     LDA #$00
  $C65B  60        RTS 

MainLoop_2:
  $C65C  A9 00     LDA #$00 ; AttractWait: NametableId=$24; INC $4F each frame; call BlinkTitleSprite; exit on $4B!=0 (credits) or $4F=$F0 (240 frames); credits: PLA PLA JMP $C0BB
  $C65E  85 4F     STA $4F
  $C660  85 50     STA $50
  $C662  A9 24     LDA #$24
  $C664  85 05     STA $05
  $C666  20 9A C6  JSR BlinkTitleSprite
  $C669  E6 4F     INC $4F
  $C66B  A5 4B     LDA $4B
  $C66D  D0 07     BNE $C676
  $C66F  A5 4F     LDA $4F
  $C671  C9 F0     CMP #$F0
  $C673  D0 F1     BNE $C666
  $C675  60        RTS 
  $C676  68        PLA 
  $C677  68        PLA 
  $C678  4C BB C0  JMP $C0BB

MainLoop_3:
  $C67B  A9 00     LDA #$00
  $C67D  85 0A     STA $0A
  $C67F  85 0B     STA $0B
  $C681  85 4F     STA $4F
  $C683  A9 02     LDA #$02
  $C685  85 50     STA $50
  $C687  20 9A C6  JSR BlinkTitleSprite
  $C68A  A5 4B     LDA $4B
  $C68C  D0 07     BNE $C695
  $C68E  A5 0A     LDA $0A
  $C690  C9 08     CMP #$08
  $C692  D0 F3     BNE $C687
  $C694  60        RTS 
  $C695  68        PLA 
  $C696  68        PLA 
  $C697  4C BB C0  JMP $C0BB

BlinkTitleSprite:
  $C69A  20 5F D9  JSR WaitVBlank ; BlinkTitleSprite: JSR WaitVBlank; test $0B&$20 (frame bit 5 ~1Hz); if set ptr=$D1A7 else ptr=$D1BA; DrawSprites(X=7 Y=$12)
  $C69D  A5 0B     LDA $0B
  $C69F  29 20     AND #$20
  $C6A1  F0 12     BEQ $C6B5
  $C6A3  A9 D1     LDA #$D1
  $C6A5  85 12     STA $12
  $C6A7  A9 A7     LDA #$A7
  $C6A9  85 11     STA $11
  $C6AB  A2 07     LDX #$07
  $C6AD  A0 12     LDY #$12
  $C6AF  20 D3 D6  JSR PPUQueueTiles
  $C6B2  4C C4 C6  JMP $C6C4
  $C6B5  A9 D1     LDA #$D1
  $C6B7  85 12     STA $12
  $C6B9  A9 BA     LDA #$BA
  $C6BB  85 11     STA $11
  $C6BD  A2 07     LDX #$07
  $C6BF  A0 12     LDY #$12
  $C6C1  20 D3 D6  JSR PPUQueueTiles
  $C6C4  60        RTS 

StartGame:
  $C6C5  A9 01     LDA #$01
  $C6C7  85 5A     STA $5A
  $C6C9  85 6B     STA $6B
  $C6CB  A9 6E     LDA #$6E
  $C6CD  85 60     STA $60
  $C6CF  A9 D2     LDA #$D2
  $C6D1  85 12     STA $12
  $C6D3  A9 12     LDA #$12
  $C6D5  85 11     STA $11
  $C6D7  A2 1D     LDX #$1D
  $C6D9  A0 12     LDY #$12
  $C6DB  20 D3 D6  JSR PPUQueueTiles
  $C6DE  A5 46     LDA $46
  $C6E0  C9 02     CMP #$02
  $C6E2  F0 0B     BEQ $C6EF
  $C6E4  A5 83     LDA $83
  $C6E6  D0 07     BNE $C6EF
  $C6E8  A9 00     LDA #$00
  $C6EA  85 5A     STA $5A
  $C6EC  4C FE C6  JMP $C6FE
  $C6EF  A9 D2     LDA #$D2
  $C6F1  85 12     STA $12
  $C6F3  A9 12     LDA #$12
  $C6F5  85 11     STA $11
  $C6F7  A2 1D     LDX #$1D
  $C6F9  A0 15     LDY #$15
  $C6FB  20 D3 D6  JSR PPUQueueTiles
  $C6FE  A6 5A     LDX $5A
  $C700  B5 51     LDA $51,X
  $C702  38        SEC 
  $C703  E9 01     SBC #$01
  $C705  10 02     BPL $C709
  $C707  A9 00     LDA #$00
  $C709  20 94 DA  JSR BCD_Div
  $C70C  A0 36     LDY #$36
  $C70E  A2 19     LDX #$19
  $C710  20 A7 D9  JSR SkipLeadingZeros
  $C713  A5 5A     LDA $5A
  $C715  85 00     STA $00
  $C717  0A        ASL 
  $C718  18        CLC 
  $C719  65 00     ADC $00
  $C71B  18        CLC 
  $C71C  69 12     ADC #$12
  $C71E  A8        TAY 
  $C71F  20 FD D6  JSR PPUQueueTilesB
  $C722  C6 5A     DEC $5A
  $C724  10 D8     BPL $C6FE
  $C726  A9 00     LDA #$00
  $C728  85 60     STA $60
  $C72A  85 6B     STA $6B
  $C72C  60        RTS 

DrawSidebar1PLabel:
  $C72D  A9 D1     LDA #$D1
  $C72F  85 12     STA $12
  $C731  A9 61     LDA #$61
  $C733  85 11     STA $11
  $C735  A2 1D     LDX #$1D
  $C737  A0 11     LDY #$11
  $C739  20 D3 D6  JSR PPUQueueTiles
  $C73C  A5 46     LDA $46
  $C73E  C9 02     CMP #$02
  $C740  F0 04     BEQ DrawSidebar2PLabel
  $C742  A5 83     LDA $83
  $C744  F0 0F     BEQ $C755

DrawSidebar2PLabel:
  $C746  A9 D1     LDA #$D1
  $C748  85 12     STA $12
  $C74A  A9 64     LDA #$64
  $C74C  85 11     STA $11
  $C74E  A2 1D     LDX #$1D
  $C750  A0 14     LDY #$14
  $C752  20 D3 D6  JSR PPUQueueTiles
  $C755  60        RTS 
  $C756  20 5F D9  JSR WaitVBlank
  $C759  A9 D2     LDA #$D2
  $C75B  85 12     STA $12
  $C75D  A9 25     LDA #$25
  $C75F  85 11     STA $11
  $C761  A2 1D     LDX #$1D
  $C763  A0 17     LDY #$17
  $C765  20 D3 D6  JSR PPUQueueTiles
  $C768  A9 D2     LDA #$D2
  $C76A  85 12     STA $12
  $C76C  A9 28     LDA #$28
  $C76E  85 11     STA $11
  $C770  A2 1D     LDX #$1D
  $C772  A0 18     LDY #$18
  $C774  20 D3 D6  JSR PPUQueueTiles
  $C777  A9 6E     LDA #$6E
  $C779  85 60     STA $60
  $C77B  A5 85     LDA $85
  $C77D  20 94 DA  JSR BCD_Div
  $C780  A0 36     LDY #$36
  $C782  A2 19     LDX #$19
  $C784  20 A7 D9  JSR SkipLeadingZeros
  $C787  A0 19     LDY #$19
  $C789  20 FD D6  JSR PPUQueueTilesB
  $C78C  A9 00     LDA #$00
  $C78E  85 60     STA $60
  $C790  60        RTS 

HUDKillCounterHelper:
  $C791  48        PHA 
  $C792  29 01     AND #$01
  $C794  18        CLC 
  $C795  69 1D     ADC #$1D
  $C797  AA        TAX 
  $C798  68        PLA 
  $C799  4A        LSR 
  $C79A  18        CLC 
  $C79B  69 03     ADC #$03
  $C79D  A8        TAY 
  $C79E  60        RTS 

DrawHUDKillIconA:
  $C79F  20 91 C7  JSR HUDKillCounterHelper
  $C7A2  A9 D2     LDA #$D2
  $C7A4  85 12     STA $12
  $C7A6  A9 22     LDA #$22
  $C7A8  85 11     STA $11
  $C7AA  20 D3 D6  JSR PPUQueueTiles
  $C7AD  60        RTS 

DrawHUDKillIconB:
  $C7AE  20 91 C7  JSR HUDKillCounterHelper
  $C7B1  A9 D2     LDA #$D2
  $C7B3  85 12     STA $12
  $C7B5  A9 2B     LDA #$2B
  $C7B7  85 11     STA $11
  $C7B9  20 D3 D6  JSR PPUQueueTiles
  $C7BC  60        RTS 

DrawAllHUDKillIcons:
  $C7BD  A9 12     LDA #$12
  $C7BF  85 5A     STA $5A
  $C7C1  A5 5A     LDA $5A
  $C7C3  20 9F C7  JSR DrawHUDKillIconA
  $C7C6  C6 5A     DEC $5A
  $C7C8  C6 5A     DEC $5A
  $C7CA  10 F5     BPL $C7C1
  $C7CC  60        RTS 

DrawHUDTanks:
  $C7CD  A9 03     LDA #$03
  $C7CF  85 04     STA $04
  $C7D1  A9 00     LDA #$00
  $C7D3  85 6E     STA $6E
  $C7D5  AE 05 01  LDX $0105
  $C7D8  AC 06 01  LDY $0106
  $C7DB  A9 79     LDA #$79
  $C7DD  85 53     STA $53
  $C7DF  20 0A DB  JSR DrawTank
  $C7E2  AD 05 01  LDA $0105
  $C7E5  18        CLC 
  $C7E6  69 10     ADC #$10
  $C7E8  AA        TAX 
  $C7E9  AC 06 01  LDY $0106
  $C7EC  A9 7D     LDA #$7D
  $C7EE  85 53     STA $53
  $C7F0  20 0A DB  JSR DrawTank
  $C7F3  A9 20     LDA #$20
  $C7F5  85 6E     STA $6E
  $C7F7  60        RTS 

HUDTankAnimation:
  $C7F8  AD 08 01  LDA $0108 ; HUDTankAnimation: $0108=enemies-remaining display count (DEC every 16 frames via FrameLo&$0F); when $0108≥$0A: apply D2C6[Y]/D2CA[Y] delta to $0105/$0106 (X/Y position)
  $C7FB  F0 32     BEQ $C82F
  $C7FD  A5 0B     LDA $0B
  $C7FF  29 0F     AND #$0F
  $C801  D0 0A     BNE $C80D
  $C803  CE 08 01  DEC $0108
  $C806  D0 05     BNE $C80D
  $C808  A9 F0     LDA #$F0
  $C80A  8D 06 01  STA $0106
  $C80D  AD 08 01  LDA $0108
  $C810  C9 0A     CMP #$0A
  $C812  90 18     BCC $C82C
  $C814  AD 07 01  LDA $0107
  $C817  A8        TAY 
  $C818  B9 C6 D2  LDA HUDTankWiggleX,Y
  $C81B  18        CLC 
  $C81C  6D 05 01  ADC $0105
  $C81F  8D 05 01  STA $0105
  $C822  B9 CA D2  LDA HUDTankWiggleY,Y
  $C825  18        CLC 
  $C826  6D 06 01  ADC $0106
  $C829  8D 06 01  STA $0106
  $C82C  20 CD C7  JSR DrawHUDTanks
  $C82F  60        RTS 

PreLevelInit:
  $C830  A9 02     LDA #$02
  $C832  85 56     STA $56
  $C834  85 57     STA $57
  $C836  A9 1A     LDA #$1A
  $C838  85 5A     STA $5A
  $C83A  85 5B     STA $5B
  $C83C  20 EC D7  JSR NametableClearAll
  $C83F  60        RTS 

CoinScreen:
  $C840  20 AF D5  JSR SetGamePalette ; CoinScreen: display credits ($4B) each VBlank; wait for P1 fire (bit2 of $08) or P2 fire (bit2 of $09); on press: PLA PLA (discard JSR return) + dispatch via JMP($0011) to TwoPlayerStart/OnePlayerStart
  $C843  A9 00     LDA #$00
  $C845  85 0A     STA $0A
  $C847  85 4F     STA $4F
  $C849  A9 02     LDA #$02
  $C84B  85 50     STA $50
  $C84D  A9 30     LDA #$30
  $C84F  85 60     STA $60
  $C851  20 5F D9  JSR WaitVBlank
  $C854  A5 4B     LDA $4B
  $C856  20 94 DA  JSR BCD_Div
  $C859  A0 36     LDY #$36
  $C85B  A2 0F     LDX #$0F
  $C85D  20 A7 D9  JSR SkipLeadingZeros
  $C860  A0 15     LDY #$15
  $C862  20 FD D6  JSR PPUQueueTilesB
  $C865  A5 09     LDA $09
  $C867  29 04     AND #$04
  $C869  F0 07     BEQ $C872
  $C86B  A9 00     LDA #$00
  $C86D  85 83     STA $83
  $C86F  4C 8B C8  JMP $C88B
  $C872  A5 08     LDA $08
  $C874  29 04     AND #$04
  $C876  F0 D9     BEQ $C851
  $C878  AD 16 40  LDA $4016
  $C87B  29 08     AND #$08
  $C87D  F0 08     BEQ $C887
  $C87F  A5 4B     LDA $4B
  $C881  C9 02     CMP #$02
  $C883  90 CC     BCC $C851
  $C885  C6 4B     DEC $4B
  $C887  A9 01     LDA #$01
  $C889  85 83     STA $83
  $C88B  20 D3 D5  JSR SetTitlePalette
  $C88E  C6 4B     DEC $4B
  $C890  68        PLA 
  $C891  68        PLA 
  $C892  A5 83     LDA $83
  $C894  0A        ASL 
  $C895  A8        TAY 
  $C896  B9 A3 C8  LDA $C8A3,Y
  $C899  85 11     STA $11
  $C89B  B9 A4 C8  LDA $C8A4,Y
  $C89E  85 12     STA $12
  $C8A0  6C 11 00  JMP ($0011)
  $C8A3  A7 C8     LAX $C8
  $C8A5  AC C8 A9  LDY $A9C8
  $C8A8  05 4C     ORA $4C
  $C8AA  AE C8 A9  LDX $A9C8
  $C8AD  07 85     SLO $85
  $C8AF  6C 20 5A  JMP ($5A20)
  $C8B2  C2 4C     NOP #$4C
  $C8B4  C1 C0     CMP ($C0,X)
  $C8B6  20 5F D9  JSR WaitVBlank
  $C8B9  A2 0C     LDX #$0C
  $C8BB  A0 0E     LDY #$0E
  $C8BD  20 FC D5  JSR CalcPPUAddr
  $C8C0  A6 0C     LDX $0C
  $C8C2  18        CLC 
  $C8C3  69 1C     ADC #$1C
  $C8C5  9D 80 01  STA $0180,X
  $C8C8  E8        INX 
  $C8C9  98        TYA 
  $C8CA  9D 80 01  STA $0180,X
  $C8CD  E8        INX 
  $C8CE  A9 23     LDA #$23
  $C8D0  9D 80 01  STA $0180,X
  $C8D3  E8        INX 
  $C8D4  A9 24     LDA #$24
  $C8D6  9D 80 01  STA $0180,X
  $C8D9  E8        INX 
  $C8DA  A9 25     LDA #$25
  $C8DC  9D 80 01  STA $0180,X
  $C8DF  E8        INX 
  $C8E0  A9 26     LDA #$26
  $C8E2  9D 80 01  STA $0180,X
  $C8E5  E8        INX 
  $C8E6  A9 27     LDA #$27
  $C8E8  9D 80 01  STA $0180,X
  $C8EB  E8        INX 
  $C8EC  A9 11     LDA #$11
  $C8EE  9D 80 01  STA $0180,X
  $C8F1  E8        INX 
  $C8F2  A9 11     LDA #$11
  $C8F4  9D 80 01  STA $0180,X
  $C8F7  E8        INX 
  $C8F8  A9 FF     LDA #$FF
  $C8FA  9D 80 01  STA $0180,X
  $C8FD  E8        INX 
  $C8FE  86 0C     STX $0C
  $C900  A5 85     LDA $85
  $C902  20 94 DA  JSR BCD_Div
  $C905  A0 36     LDY #$36
  $C907  A2 0E     LDX #$0E
  $C909  20 A7 D9  JSR SkipLeadingZeros
  $C90C  A0 0E     LDY #$0E
  $C90E  20 FD D6  JSR PPUQueueTilesB
  $C911  60        RTS 

BrickWallInit:
  $C912  A9 D2     LDA #$D2
  $C914  85 12     STA $12
  $C916  A9 2D     LDA #$2D
  $C918  85 11     STA $11
  $C91A  A2 0C     LDX #$0C
  $C91C  A0 18     LDY #$18
  $C91E  20 D3 D6  JSR PPUQueueTiles
  $C921  A9 D2     LDA #$D2
  $C923  85 12     STA $12
  $C925  A9 34     LDA #$34
  $C927  85 11     STA $11
  $C929  A2 0C     LDX #$0C
  $C92B  A0 19     LDY #$19
  $C92D  20 D3 D6  JSR PPUQueueTiles
  $C930  A9 D2     LDA #$D2
  $C932  85 12     STA $12
  $C934  A9 3B     LDA #$3B
  $C936  85 11     STA $11
  $C938  A2 0C     LDX #$0C
  $C93A  A0 1A     LDY #$1A
  $C93C  20 D3 D6  JSR PPUQueueTiles
  $C93F  A9 D2     LDA #$D2
  $C941  85 12     STA $12
  $C943  A9 42     LDA #$42
  $C945  85 11     STA $11
  $C947  A2 0C     LDX #$0C
  $C949  A0 1B     LDY #$1B
  $C94B  20 D3 D6  JSR PPUQueueTiles
  $C94E  A6 0C     LDX $0C
  $C950  A9 23     LDA #$23
  $C952  9D 80 01  STA $0180,X
  $C955  E8        INX 
  $C956  A9 F3     LDA #$F3
  $C958  9D 80 01  STA $0180,X
  $C95B  E8        INX 
  $C95C  A9 00     LDA #$00
  $C95E  8D F3 07  STA $07F3
  $C961  9D 80 01  STA $0180,X
  $C964  E8        INX 
  $C965  AD F4 07  LDA $07F4
  $C968  29 CC     AND #$CC
  $C96A  8D F4 07  STA $07F4
  $C96D  9D 80 01  STA $0180,X
  $C970  E8        INX 
  $C971  A9 FF     LDA #$FF
  $C973  9D 80 01  STA $0180,X
  $C976  E8        INX 
  $C977  86 0C     STX $0C
  $C979  60        RTS 
  $C97A  A9 D2     LDA #$D2
  $C97C  85 12     STA $12
  $C97E  A9 65     LDA #$65
  $C980  85 11     STA $11
  $C982  A2 0E     LDX #$0E
  $C984  A0 1A     LDY #$1A
  $C986  20 D3 D6  JSR PPUQueueTiles
  $C989  A9 D2     LDA #$D2
  $C98B  85 12     STA $12
  $C98D  A9 68     LDA #$68
  $C98F  85 11     STA $11
  $C991  A2 0E     LDX #$0E
  $C993  A0 1B     LDY #$1B
  $C995  20 D3 D6  JSR PPUQueueTiles
  $C998  A6 0C     LDX $0C
  $C99A  A9 23     LDA #$23
  $C99C  9D 80 01  STA $0180,X
  $C99F  E8        INX 
  $C9A0  A9 F3     LDA #$F3
  $C9A2  9D 80 01  STA $0180,X
  $C9A5  E8        INX 
  $C9A6  AD F3 07  LDA $07F3
  $C9A9  29 3F     AND #$3F
  $C9AB  8D F3 07  STA $07F3
  $C9AE  9D 80 01  STA $0180,X
  $C9B1  E8        INX 
  $C9B2  A9 FF     LDA #$FF
  $C9B4  9D 80 01  STA $0180,X
  $C9B7  E8        INX 
  $C9B8  86 0C     STX $0C
  $C9BA  60        RTS 

SteelWallFortify:
  $C9BB  A9 D2     LDA #$D2
  $C9BD  85 12     STA $12
  $C9BF  A9 49     LDA #$49
  $C9C1  85 11     STA $11
  $C9C3  A2 0C     LDX #$0C
  $C9C5  A0 18     LDY #$18
  $C9C7  20 D3 D6  JSR PPUQueueTiles
  $C9CA  A9 D2     LDA #$D2
  $C9CC  85 12     STA $12
  $C9CE  A9 50     LDA #$50
  $C9D0  85 11     STA $11
  $C9D2  A2 0C     LDX #$0C
  $C9D4  A0 19     LDY #$19
  $C9D6  20 D3 D6  JSR PPUQueueTiles
  $C9D9  A9 D2     LDA #$D2
  $C9DB  85 12     STA $12
  $C9DD  A9 57     LDA #$57
  $C9DF  85 11     STA $11
  $C9E1  A2 0C     LDX #$0C
  $C9E3  A0 1A     LDY #$1A
  $C9E5  20 D3 D6  JSR PPUQueueTiles
  $C9E8  A9 D2     LDA #$D2
  $C9EA  85 12     STA $12
  $C9EC  A9 5E     LDA #$5E
  $C9EE  85 11     STA $11
  $C9F0  A2 0C     LDX #$0C
  $C9F2  A0 1B     LDY #$1B
  $C9F4  20 D3 D6  JSR PPUQueueTiles
  $C9F7  A6 0C     LDX $0C
  $C9F9  A9 23     LDA #$23
  $C9FB  9D 80 01  STA $0180,X
  $C9FE  E8        INX 
  $C9FF  A9 F3     LDA #$F3
  $CA01  9D 80 01  STA $0180,X
  $CA04  E8        INX 
  $CA05  A9 3F     LDA #$3F
  $CA07  8D F3 07  STA $07F3
  $CA0A  9D 80 01  STA $0180,X
  $CA0D  E8        INX 
  $CA0E  AD F4 07  LDA $07F4
  $CA11  29 CC     AND #$CC
  $CA13  09 33     ORA #$33
  $CA15  8D F4 07  STA $07F4
  $CA18  9D 80 01  STA $0180,X
  $CA1B  E8        INX 
  $CA1C  A9 FF     LDA #$FF
  $CA1E  9D 80 01  STA $0180,X
  $CA21  E8        INX 
  $CA22  86 0C     STX $0C
  $CA24  60        RTS 
  $CA25  A9 D2     LDA #$D2
  $CA27  85 12     STA $12
  $CA29  A9 6B     LDA #$6B
  $CA2B  85 11     STA $11
  $CA2D  A2 0E     LDX #$0E
  $CA2F  A0 1A     LDY #$1A
  $CA31  20 D3 D6  JSR PPUQueueTiles
  $CA34  A9 D2     LDA #$D2
  $CA36  85 12     STA $12
  $CA38  A9 6E     LDA #$6E
  $CA3A  85 11     STA $11
  $CA3C  A2 0E     LDX #$0E
  $CA3E  A0 1B     LDY #$1B
  $CA40  20 D3 D6  JSR PPUQueueTiles
  $CA43  60        RTS 
  $CA44  A0 00     LDY #$00
  $CA46  A9 23     LDA #$23
  $CA48  85 12     STA $12
  $CA4A  A9 C0     LDA #$C0
  $CA4C  85 11     STA $11
  $CA4E  20 5F D9  JSR WaitVBlank
  $CA51  A6 0C     LDX $0C
  $CA53  A5 12     LDA $12
  $CA55  9D 80 01  STA $0180,X
  $CA58  E8        INX 
  $CA59  A5 11     LDA $11
  $CA5B  9D 80 01  STA $0180,X
  $CA5E  E8        INX 
  $CA5F  B9 C0 07  LDA $07C0,Y
  $CA62  C8        INY 
  $CA63  9D 80 01  STA $0180,X
  $CA66  E8        INX 
  $CA67  A9 FF     LDA #$FF
  $CA69  9D 80 01  STA $0180,X
  $CA6C  E8        INX 
  $CA6D  86 0C     STX $0C
  $CA6F  A9 01     LDA #$01
  $CA71  20 CA D7  JSR AdvanceNTPointer
  $CA74  C0 40     CPY #$40
  $CA76  D0 D6     BNE $CA4E
  $CA78  60        RTS 

TallyDrawRowSprite:
  $CA79  A2 00     LDX #$00
  $CA7B  20 FC D5  JSR CalcPPUAddr
  $CA7E  85 12     STA $12
  $CA80  84 11     STY $11
  $CA82  A6 0C     LDX $0C
  $CA84  A5 12     LDA $12
  $CA86  18        CLC 
  $CA87  69 1C     ADC #$1C
  $CA89  9D 80 01  STA $0180,X
  $CA8C  E8        INX 
  $CA8D  A5 11     LDA $11
  $CA8F  9D 80 01  STA $0180,X
  $CA92  E8        INX 
  $CA93  A0 00     LDY #$00
  $CA95  A5 63     LDA $63
  $CA97  D0 02     BNE $CA9B
  $CA99  B1 11     LDA ($11),Y
  $CA9B  9D 80 01  STA $0180,X
  $CA9E  E8        INX 
  $CA9F  C8        INY 
  $CAA0  C0 20     CPY #$20
  $CAA2  D0 F1     BNE $CA95
  $CAA4  A9 FF     LDA #$FF
  $CAA6  9D 80 01  STA $0180,X
  $CAA9  E8        INX 
  $CAAA  86 0C     STX $0C
  $CAAC  60        RTS 

TallyOpenCurtain:
  $CAAD  A9 11     LDA #$11
  $CAAF  85 63     STA $63
  $CAB1  A9 00     LDA #$00
  $CAB3  85 57     STA $57
  $CAB5  20 5F D9  JSR WaitVBlank
  $CAB8  A4 57     LDY $57
  $CABA  20 79 CA  JSR TallyDrawRowSprite
  $CABD  A9 1D     LDA #$1D
  $CABF  38        SEC 
  $CAC0  E5 57     SBC $57
  $CAC2  A8        TAY 
  $CAC3  20 79 CA  JSR TallyDrawRowSprite
  $CAC6  E6 57     INC $57
  $CAC8  A5 57     LDA $57
  $CACA  C9 10     CMP #$10
  $CACC  D0 E7     BNE $CAB5
  $CACE  60        RTS 

TallyCloseCurtain:
  $CACF  A9 00     LDA #$00
  $CAD1  85 63     STA $63
  $CAD3  A9 0F     LDA #$0F
  $CAD5  85 57     STA $57
  $CAD7  20 5F D9  JSR WaitVBlank
  $CADA  A4 57     LDY $57
  $CADC  20 79 CA  JSR TallyDrawRowSprite
  $CADF  A9 1D     LDA #$1D
  $CAE1  38        SEC 
  $CAE2  E5 57     SBC $57
  $CAE4  A8        TAY 
  $CAE5  20 79 CA  JSR TallyDrawRowSprite
  $CAE8  C6 57     DEC $57
  $CAEA  A5 57     LDA $57
  $CAEC  C9 FF     CMP #$FF
  $CAEE  D0 E7     BNE $CAD7
  $CAF0  60        RTS 

StageClearTallyScreen:
  $CAF1  20 04 CD  JSR TallyScreenInit ; StageClearTallyScreen: called from $C1F5 after all enemies killed; JSR TallyScreenInit($CD04); sum P1 kills $73-$76→$7D P2 kills $77-$7A→$7E; per-type loop $5A=0-3: load KillScoreTable score SetScoreWeight; drain P1 tally DEC $73
  $CAF4  A2 19     LDX #$19
  $CAF6  20 37 D1  JSR DelayXFrames
  $CAF9  A5 73     LDA $73
  $CAFB  18        CLC 
  $CAFC  65 74     ADC $74
  $CAFE  18        CLC 
  $CAFF  65 75     ADC $75
  $CB01  18        CLC 
  $CB02  65 76     ADC $76
  $CB04  85 7D     STA $7D
  $CB06  A5 77     LDA $77
  $CB08  18        CLC 
  $CB09  65 78     ADC $78
  $CB0B  18        CLC 
  $CB0C  65 79     ADC $79
  $CB0E  18        CLC 
  $CB0F  65 7A     ADC $7A
  $CB11  85 7E     STA $7E
  $CB13  A9 00     LDA #$00
  $CB15  85 5A     STA $5A
  $CB17  20 5F D9  JSR WaitVBlank
  $CB1A  20 C4 CE  JSR TallyScreenRowAnim
  $CB1D  A2 25     LDX #$25
  $CB1F  20 7F DA  JSR ZeroSlot
  $CB22  A2 2D     LDX #$2D
  $CB24  20 7F DA  JSR ZeroSlot
  $CB27  A9 00     LDA #$00
  $CB29  85 5D     STA $5D
  $CB2B  85 5E     STA $5E
  $CB2D  20 5F D9  JSR WaitVBlank
  $CB30  20 C4 CE  JSR TallyScreenRowAnim
  $CB33  A9 00     LDA #$00
  $CB35  85 7C     STA $7C
  $CB37  A6 5A     LDX $5A
  $CB39  BD C2 D2  LDA KillScoreTable,X
  $CB3C  20 62 DA  JSR SetScoreWeight
  $CB3F  A6 5A     LDX $5A
  $CB41  B5 73     LDA $73,X
  $CB43  F0 18     BEQ $CB5D
  $CB45  A9 01     LDA #$01
  $CB47  8D 13 03  STA $0313
  $CB4A  8D 14 03  STA $0314
  $CB4D  D6 73     DEC $73,X
  $CB4F  E6 5D     INC $5D
  $CB51  A2 02     LDX #$02
  $CB53  20 31 DA  JSR ScoreAdd
  $CB56  A9 01     LDA #$01
  $CB58  85 7C     STA $7C
  $CB5A  20 44 CF  JSR LivesGrantCheck
  $CB5D  A6 5A     LDX $5A
  $CB5F  B5 77     LDA $77,X
  $CB61  F0 18     BEQ $CB7B
  $CB63  A9 01     LDA #$01
  $CB65  8D 13 03  STA $0313
  $CB68  8D 14 03  STA $0314
  $CB6B  D6 77     DEC $77,X
  $CB6D  E6 5E     INC $5E
  $CB6F  A2 03     LDX #$03
  $CB71  20 31 DA  JSR ScoreAdd
  $CB74  A9 01     LDA #$01
  $CB76  85 7C     STA $7C
  $CB78  20 44 CF  JSR LivesGrantCheck
  $CB7B  A0 16     LDY #$16
  $CB7D  A2 05     LDX #$05
  $CB7F  20 A7 D9  JSR SkipLeadingZeros
  $CB82  A0 09     LDY #$09
  $CB84  20 FD D6  JSR PPUQueueTilesB
  $CB87  A2 01     LDX #$01
  $CB89  A0 26     LDY #$26
  $CB8B  20 A7 D9  JSR SkipLeadingZeros
  $CB8E  A5 5A     LDA $5A
  $CB90  0A        ASL 
  $CB91  18        CLC 
  $CB92  65 5A     ADC $5A
  $CB94  18        CLC 
  $CB95  69 0C     ADC #$0C
  $CB97  A8        TAY 
  $CB98  20 FD D6  JSR PPUQueueTilesB
  $CB9B  A6 5A     LDX $5A
  $CB9D  A5 5D     LDA $5D
  $CB9F  20 94 DA  JSR BCD_Div
  $CBA2  A2 08     LDX #$08
  $CBA4  A0 36     LDY #$36
  $CBA6  20 A7 D9  JSR SkipLeadingZeros
  $CBA9  A5 5A     LDA $5A
  $CBAB  0A        ASL 
  $CBAC  18        CLC 
  $CBAD  65 5A     ADC $5A
  $CBAF  18        CLC 
  $CBB0  69 0C     ADC #$0C
  $CBB2  A8        TAY 
  $CBB3  20 FD D6  JSR PPUQueueTilesB
  $CBB6  A5 83     LDA $83
  $CBB8  F0 3B     BEQ $CBF5
  $CBBA  A0 1E     LDY #$1E
  $CBBC  A2 17     LDX #$17
  $CBBE  20 A7 D9  JSR SkipLeadingZeros
  $CBC1  A0 09     LDY #$09
  $CBC3  20 FD D6  JSR PPUQueueTilesB
  $CBC6  A2 13     LDX #$13
  $CBC8  A0 2E     LDY #$2E
  $CBCA  20 A7 D9  JSR SkipLeadingZeros
  $CBCD  A5 5A     LDA $5A
  $CBCF  0A        ASL 
  $CBD0  18        CLC 
  $CBD1  65 5A     ADC $5A
  $CBD3  18        CLC 
  $CBD4  69 0C     ADC #$0C
  $CBD6  A8        TAY 
  $CBD7  20 FD D6  JSR PPUQueueTilesB
  $CBDA  A6 5A     LDX $5A
  $CBDC  A5 5E     LDA $5E
  $CBDE  20 94 DA  JSR BCD_Div
  $CBE1  A2 0E     LDX #$0E
  $CBE3  A0 36     LDY #$36
  $CBE5  20 A7 D9  JSR SkipLeadingZeros
  $CBE8  A5 5A     LDA $5A
  $CBEA  0A        ASL 
  $CBEB  18        CLC 
  $CBEC  65 5A     ADC $5A
  $CBEE  18        CLC 
  $CBEF  69 0C     ADC #$0C
  $CBF1  A8        TAY 
  $CBF2  20 FD D6  JSR PPUQueueTilesB
  $CBF5  A2 07     LDX #$07
  $CBF7  20 37 D1  JSR DelayXFrames
  $CBFA  A5 7C     LDA $7C
  $CBFC  F0 03     BEQ $CC01
  $CBFE  4C 2D CB  JMP $CB2D
  $CC01  E6 5A     INC $5A
  $CC03  A5 5A     LDA $5A
  $CC05  C9 04     CMP #$04
  $CC07  F0 08     BEQ $CC11
  $CC09  A2 12     LDX #$12
  $CC0B  20 37 D1  JSR DelayXFrames
  $CC0E  4C 17 CB  JMP $CB17
  $CC11  A2 19     LDX #$19
  $CC13  20 37 D1  JSR DelayXFrames
  $CC16  A5 7D     LDA $7D
  $CC18  20 94 DA  JSR BCD_Div
  $CC1B  A0 36     LDY #$36
  $CC1D  A2 08     LDX #$08
  $CC1F  20 A7 D9  JSR SkipLeadingZeros
  $CC22  A0 17     LDY #$17
  $CC24  20 FD D6  JSR PPUQueueTilesB
  $CC27  A5 83     LDA $83
  $CC29  F0 11     BEQ $CC3C
  $CC2B  A5 7E     LDA $7E
  $CC2D  20 94 DA  JSR BCD_Div
  $CC30  A0 36     LDY #$36
  $CC32  A2 0E     LDX #$0E
  $CC34  20 A7 D9  JSR SkipLeadingZeros
  $CC37  A0 17     LDY #$17
  $CC39  20 FD D6  JSR PPUQueueTilesB
  $CC3C  A2 0D     LDX #$0D
  $CC3E  20 37 D1  JSR DelayXFrames
  $CC41  A5 83     LDA $83
  $CC43  D0 03     BNE $CC48
  $CC45  4C F3 CC  JMP TallyFinalHold
  $CC48  A5 7E     LDA $7E
  $CC4A  C5 7D     CMP $7D
  $CC4C  B0 51     BCS $CC9F
  $CC4E  A9 00     LDA #$00
  $CC50  20 62 DA  JSR SetScoreWeight
  $CC53  A2 00     LDX #$00
  $CC55  20 31 DA  JSR ScoreAdd
  $CC58  A0 16     LDY #$16
  $CC5A  A2 05     LDX #$05
  $CC5C  20 A7 D9  JSR SkipLeadingZeros
  $CC5F  A0 09     LDY #$09
  $CC61  20 FD D6  JSR PPUQueueTilesB
  $CC64  A0 36     LDY #$36
  $CC66  A2 01     LDX #$01
  $CC68  20 A7 D9  JSR SkipLeadingZeros
  $CC6B  A0 1A     LDY #$1A
  $CC6D  20 FD D6  JSR PPUQueueTilesB
  $CC70  A9 D2     LDA #$D2
  $CC72  85 12     STA $12
  $CC74  A9 84     LDA #$84
  $CC76  85 11     STA $11
  $CC78  A2 03     LDX #$03
  $CC7A  A0 19     LDY #$19
  $CC7C  20 D3 D6  JSR PPUQueueTiles
  $CC7F  A9 D2     LDA #$D2
  $CC81  85 12     STA $12
  $CC83  A9 1E     LDA #$1E
  $CC85  85 11     STA $11
  $CC87  A2 08     LDX #$08
  $CC89  A0 1A     LDY #$1A
  $CC8B  20 D3 D6  JSR PPUQueueTiles
  $CC8E  A9 01     LDA #$01
  $CC90  8D 1B 03  STA $031B
  $CC93  8D 1C 03  STA $031C
  $CC96  8D 1D 03  STA $031D
  $CC99  20 44 CF  JSR LivesGrantCheck
  $CC9C  4C F3 CC  JMP TallyFinalHold
  $CC9F  A5 7D     LDA $7D
  $CCA1  C5 7E     CMP $7E
  $CCA3  B0 4E     BCS TallyFinalHold
  $CCA5  A9 00     LDA #$00
  $CCA7  20 62 DA  JSR SetScoreWeight
  $CCAA  A2 01     LDX #$01
  $CCAC  20 31 DA  JSR ScoreAdd
  $CCAF  A0 1E     LDY #$1E
  $CCB1  A2 17     LDX #$17
  $CCB3  20 A7 D9  JSR SkipLeadingZeros
  $CCB6  A0 09     LDY #$09
  $CCB8  20 FD D6  JSR PPUQueueTilesB
  $CCBB  A0 36     LDY #$36
  $CCBD  A2 14     LDX #$14
  $CCBF  20 A7 D9  JSR SkipLeadingZeros
  $CCC2  A0 1A     LDY #$1A
  $CCC4  20 FD D6  JSR PPUQueueTilesB
  $CCC7  A9 D2     LDA #$D2
  $CCC9  85 12     STA $12
  $CCCB  A9 84     LDA #$84
  $CCCD  85 11     STA $11
  $CCCF  A2 16     LDX #$16
  $CCD1  A0 19     LDY #$19
  $CCD3  20 D3 D6  JSR PPUQueueTiles
  $CCD6  A9 D2     LDA #$D2
  $CCD8  85 12     STA $12
  $CCDA  A9 1E     LDA #$1E
  $CCDC  85 11     STA $11
  $CCDE  A2 1B     LDX #$1B
  $CCE0  A0 1A     LDY #$1A
  $CCE2  20 D3 D6  JSR PPUQueueTiles
  $CCE5  A9 01     LDA #$01
  $CCE7  8D 1B 03  STA $031B
  $CCEA  8D 1C 03  STA $031C
  $CCED  8D 1D 03  STA $031D
  $CCF0  20 44 CF  JSR LivesGrantCheck

TallyFinalHold:
  $CCF3  A2 64     LDX #$64
  $CCF5  20 37 D1  JSR DelayXFrames
  $CCF8  A9 00     LDA #$00
  $CCFA  85 50     STA $50
  $CCFC  85 60     STA $60
  $CCFE  85 6B     STA $6B
  $CD00  20 D3 D5  JSR SetTitlePalette
  $CD03  60        RTS 

TallyScreenInit:
  $CD04  20 5F D9  JSR WaitVBlank ; TallyScreenInit: WaitVBlank; set $6B=1
  $CD07  A9 01     LDA #$01
  $CD09  85 6B     STA $6B
  $CD0B  A9 24     LDA #$24
  $CD0D  85 05     STA $05
  $CD0F  A9 00     LDA #$00
  $CD11  85 4F     STA $4F
  $CD13  A9 02     LDA #$02
  $CD15  85 50     STA $50
  $CD17  A9 30     LDA #$30
  $CD19  85 60     STA $60
  $CD1B  20 AF D5  JSR SetGamePalette
  $CD1E  20 A1 D3  JSR WaitNMI
  $CD21  20 AC D3  JSR ClearSpriteBuf
  $CD24  20 E5 CE  JSR TallyInitNametable
  $CD27  20 D4 D7  JSR WriteNametable
  $CD2A  20 96 D3  JSR Init2
  $CD2D  A9 D1     LDA #$D1
  $CD2F  85 12     STA $12
  $CD31  A9 73     LDA #$73
  $CD33  85 11     STA $11
  $CD35  A2 08     LDX #$08
  $CD37  A0 03     LDY #$03
  $CD39  20 D3 D6  JSR PPUQueueTiles
  $CD3C  A0 3E     LDY #$3E
  $CD3E  A2 12     LDX #$12
  $CD40  20 A7 D9  JSR SkipLeadingZeros
  $CD43  A0 03     LDY #$03
  $CD45  20 FD D6  JSR PPUQueueTilesB
  $CD48  A9 D2     LDA #$D2
  $CD4A  85 12     STA $12
  $CD4C  A9 8B     LDA #$8B
  $CD4E  85 11     STA $11
  $CD50  A2 0C     LDX #$0C
  $CD52  A0 05     LDY #$05
  $CD54  20 D3 D6  JSR PPUQueueTiles
  $CD57  A5 85     LDA $85
  $CD59  20 94 DA  JSR BCD_Div
  $CD5C  A0 36     LDY #$36
  $CD5E  A2 0E     LDX #$0E
  $CD60  20 A7 D9  JSR SkipLeadingZeros
  $CD63  A0 05     LDY #$05
  $CD65  20 FD D6  JSR PPUQueueTilesB
  $CD68  20 5F D9  JSR WaitVBlank
  $CD6B  A9 D1     LDA #$D1
  $CD6D  85 12     STA $12
  $CD6F  A9 7C     LDA #$7C
  $CD71  85 11     STA $11
  $CD73  A2 03     LDX #$03
  $CD75  A0 07     LDY #$07
  $CD77  20 D3 D6  JSR PPUQueueTiles
  $CD7A  A0 16     LDY #$16
  $CD7C  A2 05     LDX #$05
  $CD7E  20 A7 D9  JSR SkipLeadingZeros
  $CD81  A0 09     LDY #$09
  $CD83  20 FD D6  JSR PPUQueueTilesB
  $CD86  A9 D2     LDA #$D2
  $CD88  85 12     STA $12
  $CD8A  A9 71     LDA #$71
  $CD8C  85 11     STA $11
  $CD8E  A2 0E     LDX #$0E
  $CD90  A0 0C     LDY #$0C
  $CD92  20 D3 D6  JSR PPUQueueTiles
  $CD95  A9 D2     LDA #$D2
  $CD97  85 12     STA $12
  $CD99  A9 71     LDA #$71
  $CD9B  85 11     STA $11
  $CD9D  A2 0E     LDX #$0E
  $CD9F  A0 0F     LDY #$0F
  $CDA1  20 D3 D6  JSR PPUQueueTiles
  $CDA4  A9 D2     LDA #$D2
  $CDA6  85 12     STA $12
  $CDA8  A9 71     LDA #$71
  $CDAA  85 11     STA $11
  $CDAC  A2 0E     LDX #$0E
  $CDAE  A0 12     LDY #$12
  $CDB0  20 D3 D6  JSR PPUQueueTiles
  $CDB3  A9 D2     LDA #$D2
  $CDB5  85 12     STA $12
  $CDB7  A9 71     LDA #$71
  $CDB9  85 11     STA $11
  $CDBB  A2 0E     LDX #$0E
  $CDBD  A0 15     LDY #$15
  $CDBF  20 D3 D6  JSR PPUQueueTiles
  $CDC2  A5 83     LDA $83
  $CDC4  F0 5A     BEQ $CE20
  $CDC6  20 5F D9  JSR WaitVBlank
  $CDC9  A9 D1     LDA #$D1
  $CDCB  85 12     STA $12
  $CDCD  A9 85     LDA #$85
  $CDCF  85 11     STA $11
  $CDD1  A2 15     LDX #$15
  $CDD3  A0 07     LDY #$07
  $CDD5  20 D3 D6  JSR PPUQueueTiles
  $CDD8  A0 1E     LDY #$1E
  $CDDA  A2 17     LDX #$17
  $CDDC  20 A7 D9  JSR SkipLeadingZeros
  $CDDF  A0 09     LDY #$09
  $CDE1  20 FD D6  JSR PPUQueueTilesB
  $CDE4  A9 D2     LDA #$D2
  $CDE6  85 12     STA $12
  $CDE8  A9 73     LDA #$73
  $CDEA  85 11     STA $11
  $CDEC  A2 11     LDX #$11
  $CDEE  A0 0C     LDY #$0C
  $CDF0  20 D3 D6  JSR PPUQueueTiles
  $CDF3  A9 D2     LDA #$D2
  $CDF5  85 12     STA $12
  $CDF7  A9 73     LDA #$73
  $CDF9  85 11     STA $11
  $CDFB  A2 11     LDX #$11
  $CDFD  A0 0F     LDY #$0F
  $CDFF  20 D3 D6  JSR PPUQueueTiles
  $CE02  A9 D2     LDA #$D2
  $CE04  85 12     STA $12
  $CE06  A9 73     LDA #$73
  $CE08  85 11     STA $11
  $CE0A  A2 11     LDX #$11
  $CE0C  A0 12     LDY #$12
  $CE0E  20 D3 D6  JSR PPUQueueTiles
  $CE11  A9 D2     LDA #$D2
  $CE13  85 12     STA $12
  $CE15  A9 73     LDA #$73
  $CE17  85 11     STA $11
  $CE19  A2 11     LDX #$11
  $CE1B  A0 15     LDY #$15
  $CE1D  20 D3 D6  JSR PPUQueueTiles
  $CE20  20 5F D9  JSR WaitVBlank
  $CE23  A9 D2     LDA #$D2
  $CE25  85 12     STA $12
  $CE27  A9 1E     LDA #$1E
  $CE29  85 11     STA $11
  $CE2B  A2 08     LDX #$08
  $CE2D  A0 0C     LDY #$0C
  $CE2F  20 D3 D6  JSR PPUQueueTiles
  $CE32  A9 D2     LDA #$D2
  $CE34  85 12     STA $12
  $CE36  A9 1E     LDA #$1E
  $CE38  85 11     STA $11
  $CE3A  A2 08     LDX #$08
  $CE3C  A0 0F     LDY #$0F
  $CE3E  20 D3 D6  JSR PPUQueueTiles
  $CE41  A9 D2     LDA #$D2
  $CE43  85 12     STA $12
  $CE45  A9 1E     LDA #$1E
  $CE47  85 11     STA $11
  $CE49  A2 08     LDX #$08
  $CE4B  A0 12     LDY #$12
  $CE4D  20 D3 D6  JSR PPUQueueTiles
  $CE50  A9 D2     LDA #$D2
  $CE52  85 12     STA $12
  $CE54  A9 1E     LDA #$1E
  $CE56  85 11     STA $11
  $CE58  A2 08     LDX #$08
  $CE5A  A0 15     LDY #$15
  $CE5C  20 D3 D6  JSR PPUQueueTiles
  $CE5F  A5 83     LDA $83
  $CE61  F0 3F     BEQ $CEA2
  $CE63  20 5F D9  JSR WaitVBlank
  $CE66  A9 D2     LDA #$D2
  $CE68  85 12     STA $12
  $CE6A  A9 1E     LDA #$1E
  $CE6C  85 11     STA $11
  $CE6E  A2 1A     LDX #$1A
  $CE70  A0 0C     LDY #$0C
  $CE72  20 D3 D6  JSR PPUQueueTiles
  $CE75  A9 D2     LDA #$D2
  $CE77  85 12     STA $12
  $CE79  A9 1E     LDA #$1E
  $CE7B  85 11     STA $11
  $CE7D  A2 1A     LDX #$1A
  $CE7F  A0 0F     LDY #$0F
  $CE81  20 D3 D6  JSR PPUQueueTiles
  $CE84  A9 D2     LDA #$D2
  $CE86  85 12     STA $12
  $CE88  A9 1E     LDA #$1E
  $CE8A  85 11     STA $11
  $CE8C  A2 1A     LDX #$1A
  $CE8E  A0 12     LDY #$12
  $CE90  20 D3 D6  JSR PPUQueueTiles
  $CE93  A9 D2     LDA #$D2
  $CE95  85 12     STA $12
  $CE97  A9 1E     LDA #$1E
  $CE99  85 11     STA $11
  $CE9B  A2 1A     LDX #$1A
  $CE9D  A0 15     LDY #$15
  $CE9F  20 D3 D6  JSR PPUQueueTiles
  $CEA2  20 5F D9  JSR WaitVBlank
  $CEA5  A9 D2     LDA #$D2
  $CEA7  85 12     STA $12
  $CEA9  A9 7B     LDA #$7B
  $CEAB  85 11     STA $11
  $CEAD  A2 0C     LDX #$0C
  $CEAF  A0 16     LDY #$16
  $CEB1  20 D3 D6  JSR PPUQueueTiles
  $CEB4  A9 D2     LDA #$D2
  $CEB6  85 12     STA $12
  $CEB8  A9 75     LDA #$75
  $CEBA  85 11     STA $11
  $CEBC  A2 06     LDX #$06
  $CEBE  A0 17     LDY #$17
  $CEC0  20 D3 D6  JSR PPUQueueTiles
  $CEC3  60        RTS 

TallyScreenRowAnim:
  $CEC4  A9 02     LDA #$02
  $CEC6  85 04     STA $04
  $CEC8  A0 64     LDY #$64
  $CECA  A9 80     LDA #$80
  $CECC  20 3C CF  JSR TallyDrawSprite16
  $CECF  A0 7C     LDY #$7C
  $CED1  A9 A0     LDA #$A0
  $CED3  20 3C CF  JSR TallyDrawSprite16
  $CED6  A0 94     LDY #$94
  $CED8  A9 C0     LDA #$C0
  $CEDA  20 3C CF  JSR TallyDrawSprite16
  $CEDD  A0 AC     LDY #$AC
  $CEDF  A9 E0     LDA #$E0
  $CEE1  20 3C CF  JSR TallyDrawSprite16
  $CEE4  60        RTS 

TallyInitNametable:
  $CEE5  A9 50     LDA #$50
  $CEE7  8D C0 07  STA $07C0
  $CEEA  8D C1 07  STA $07C1
  $CEED  8D C2 07  STA $07C2
  $CEF0  8D C3 07  STA $07C3
  $CEF3  8D C8 07  STA $07C8
  $CEF6  8D C9 07  STA $07C9
  $CEF9  8D CA 07  STA $07CA
  $CEFC  8D CD 07  STA $07CD
  $CEFF  8D CE 07  STA $07CE
  $CF02  8D CF 07  STA $07CF
  $CF05  A9 A0     LDA #$A0
  $CF07  8D C4 07  STA $07C4
  $CF0A  8D C5 07  STA $07C5
  $CF0D  8D C6 07  STA $07C6
  $CF10  8D C7 07  STA $07C7
  $CF13  A9 0A     LDA #$0A
  $CF15  8D D0 07  STA $07D0
  $CF18  8D D1 07  STA $07D1
  $CF1B  8D D2 07  STA $07D2
  $CF1E  8D D5 07  STA $07D5
  $CF21  8D D6 07  STA $07D6
  $CF24  8D D7 07  STA $07D7
  $CF27  A9 05     LDA #$05
  $CF29  8D F0 07  STA $07F0
  $CF2C  8D F1 07  STA $07F1
  $CF2F  8D F2 07  STA $07F2
  $CF32  8D F5 07  STA $07F5
  $CF35  8D F6 07  STA $07F6
  $CF38  8D F7 07  STA $07F7
  $CF3B  60        RTS 

TallyDrawSprite16:
  $CF3C  85 53     STA $53
  $CF3E  A2 81     LDX #$81
  $CF40  20 0A DB  JSR DrawTank
  $CF43  60        RTS 

LivesGrantCheck:
  $CF44  A5 68     LDA $68 ; LivesGrantCheck: if $68=$80 (game active) and P1 score-tier $17≥2 or extra-life flag $66≥1: INC $51(P1Lives)+INC $66; same for P2 ($83/$52/$67); sets $0304=$0305=1 (trigger HUD update)
  $CF46  C9 80     CMP #$80
  $CF48  D0 4B     BNE $CF95
  $CF4A  A5 51     LDA $51
  $CF4C  F0 1D     BEQ $CF6B
  $CF4E  A5 66     LDA $66
  $CF50  D0 06     BNE $CF58
  $CF52  A5 17     LDA $17
  $CF54  C9 02     CMP #$02
  $CF56  B0 0C     BCS $CF64
  $CF58  A5 66     LDA $66
  $CF5A  C9 01     CMP #$01
  $CF5C  D0 0D     BNE $CF6B
  $CF5E  A5 17     LDA $17
  $CF60  C9 07     CMP #$07
  $CF62  90 07     BCC $CF6B
  $CF64  E6 51     INC $51
  $CF66  E6 66     INC $66
  $CF68  4C 8D CF  JMP $CF8D
  $CF6B  A5 83     LDA $83
  $CF6D  F0 26     BEQ $CF95
  $CF6F  A5 52     LDA $52
  $CF71  F0 22     BEQ $CF95
  $CF73  A5 67     LDA $67
  $CF75  D0 06     BNE $CF7D
  $CF77  A5 1F     LDA $1F
  $CF79  C9 02     CMP #$02
  $CF7B  B0 0C     BCS $CF89
  $CF7D  A5 67     LDA $67
  $CF7F  C9 01     CMP #$01
  $CF81  D0 12     BNE $CF95
  $CF83  A5 1F     LDA $1F
  $CF85  C9 07     CMP #$07
  $CF87  90 0C     BCC $CF95
  $CF89  E6 52     INC $52
  $CF8B  E6 67     INC $67
  $CF8D  A9 01     LDA #$01
  $CF8F  8D 04 03  STA $0304
  $CF92  8D 05 03  STA $0305
  $CF95  60        RTS 

GameOverScoreScreen:
  $CF96  20 AF D5  JSR SetGamePalette ; GameOverScoreScreen: attract-loop nametable reset (NOT a score display); SetGamePalette+WaitNMI; NametableId=$1C; ClearSpriteBuf; WriteNametable; Init2; RTS; called at $C0A9 each attract iteration
  $CF99  20 A1 D3  JSR WaitNMI
  $CF9C  A9 1C     LDA #$1C
  $CF9E  85 05     STA $05
  $CFA0  20 AC D3  JSR ClearSpriteBuf
  $CFA3  20 D4 D7  JSR WriteNametable
  $CFA6  20 96 D3  JSR Init2
  $CFA9  60        RTS 

PreLoop:
  $CFAA  20 A1 D3  JSR WaitNMI ; PreGameDraw: WaitNMI+ClearSpriteBuf; NametableId=$24; draw nametable blocks; $D7D4+Init2; $60=$30(stage banner); draw STAGE-XX sprite col$02/row$03; draw number; 2P indicator if $83!=0; $60=$00; draw border sprites
  $CFAD  A9 24     LDA #$24
  $CFAF  85 05     STA $05
  $CFB1  20 AC D3  JSR ClearSpriteBuf
  $CFB4  A2 1A     LDX #$1A
  $CFB6  86 56     STX $56
  $CFB8  A0 2E     LDY #$2E
  $CFBA  84 57     STY $57
  $CFBC  A9 D1     LDA #$D1
  $CFBE  85 14     STA $14
  $CFC0  A9 4F     LDA #$4F
  $CFC2  85 13     STA $13
  $CFC4  20 F7 D8  JSR DrawSpriteString
  $CFC7  A2 3C     LDX #$3C
  $CFC9  86 56     STX $56
  $CFCB  A0 56     LDY #$56
  $CFCD  84 57     STY $57
  $CFCF  A9 D1     LDA #$D1
  $CFD1  85 14     STA $14
  $CFD3  A9 56     LDA #$56
  $CFD5  85 13     STA $13
  $CFD7  20 F7 D8  JSR DrawSpriteString
  $CFDA  20 D4 D7  JSR WriteNametable
  $CFDD  20 96 D3  JSR Init2
  $CFE0  A9 30     LDA #$30
  $CFE2  85 60     STA $60 ; $60=$30: GameState=StageStart — set by PreLoop/StageStartDraw before showing STAGE XX banner; cleared to $00 once banner display finishes
  $CFE4  A9 D1     LDA #$D1
  $CFE6  85 12     STA $12
  $CFE8  A9 5B     LDA #$5B
  $CFEA  85 11     STA $11
  $CFEC  A2 02     LDX #$02
  $CFEE  A0 03     LDY #$03
  $CFF0  20 D3 D6  JSR PPUQueueTiles
  $CFF3  A0 16     LDY #$16
  $CFF5  A2 04     LDX #$04
  $CFF7  20 A7 D9  JSR SkipLeadingZeros
  $CFFA  A0 03     LDY #$03
  $CFFC  20 FD D6  JSR PPUQueueTilesB
  $CFFF  A9 D1     LDA #$D1
  $D001  85 12     STA $12
  $D003  A9 67     LDA #$67
  $D005  85 11     STA $11
  $D007  A2 0B     LDX #$0B
  $D009  A0 03     LDY #$03
  $D00B  20 D3 D6  JSR PPUQueueTiles
  $D00E  A0 3E     LDY #$3E
  $D010  A2 0E     LDX #$0E
  $D012  20 A7 D9  JSR SkipLeadingZeros
  $D015  A0 03     LDY #$03
  $D017  20 FD D6  JSR PPUQueueTilesB
  $D01A  A5 83     LDA $83
  $D01C  F0 1B     BEQ $D039
  $D01E  A9 D1     LDA #$D1
  $D020  85 12     STA $12
  $D022  A9 5E     LDA #$5E
  $D024  85 11     STA $11
  $D026  A2 15     LDX #$15
  $D028  A0 03     LDY #$03
  $D02A  20 D3 D6  JSR PPUQueueTiles
  $D02D  A0 1E     LDY #$1E
  $D02F  A2 17     LDX #$17
  $D031  20 A7 D9  JSR SkipLeadingZeros
  $D034  A0 03     LDY #$03
  $D036  20 FD D6  JSR PPUQueueTilesB
  $D039  A9 00     LDA #$00
  $D03B  85 60     STA $60
  $D03D  20 5F D9  JSR WaitVBlank
  $D040  A9 D1     LDA #$D1
  $D042  85 12     STA $12
  $D044  A9 45     LDA #$45
  $D046  85 11     STA $11
  $D048  A2 0D     LDX #$0D
  $D04A  A0 17     LDY #$17
  $D04C  20 D3 D6  JSR PPUQueueTiles
  $D04F  A9 D1     LDA #$D1
  $D051  85 12     STA $12
  $D053  A9 E7     LDA #$E7
  $D055  85 11     STA $11
  $D057  A2 05     LDX #$05
  $D059  A0 19     LDY #$19
  $D05B  20 D3 D6  JSR PPUQueueTiles
  $D05E  20 5F D9  JSR WaitVBlank
  $D061  A9 D1     LDA #$D1
  $D063  85 12     STA $12
  $D065  A9 FE     LDA #$FE
  $D067  85 11     STA $11
  $D069  A2 07     LDX #$07
  $D06B  A0 1B     LDY #$1B
  $D06D  20 D3 D6  JSR PPUQueueTiles
  $D070  60        RTS 

StageStartDraw:
  $D071  A9 00     LDA #$00 ; StageStartDraw: post-game-over stage banner setup; WaitNMI; NametableId=$24; WriteNametable; Init2; $60=$30; draw stage/player-count sprites; same sequence as PreLoop stage-start section
  $D073  85 0C     STA $0C
  $D075  20 A1 D3  JSR WaitNMI
  $D078  A9 24     LDA #$24
  $D07A  85 05     STA $05
  $D07C  20 AC D3  JSR ClearSpriteBuf
  $D07F  20 D4 D7  JSR WriteNametable
  $D082  20 96 D3  JSR Init2
  $D085  A9 30     LDA #$30
  $D087  85 60     STA $60
  $D089  A9 D1     LDA #$D1
  $D08B  85 12     STA $12
  $D08D  A9 5B     LDA #$5B
  $D08F  85 11     STA $11
  $D091  A2 02     LDX #$02
  $D093  A0 03     LDY #$03
  $D095  20 D3 D6  JSR PPUQueueTiles
  $D098  A0 16     LDY #$16
  $D09A  A2 04     LDX #$04
  $D09C  20 A7 D9  JSR SkipLeadingZeros
  $D09F  A0 03     LDY #$03
  $D0A1  20 FD D6  JSR PPUQueueTilesB
  $D0A4  A9 D1     LDA #$D1
  $D0A6  85 12     STA $12
  $D0A8  A9 67     LDA #$67
  $D0AA  85 11     STA $11
  $D0AC  A2 0B     LDX #$0B
  $D0AE  A0 03     LDY #$03
  $D0B0  20 D3 D6  JSR PPUQueueTiles
  $D0B3  A0 3E     LDY #$3E
  $D0B5  A2 0E     LDX #$0E
  $D0B7  20 A7 D9  JSR SkipLeadingZeros
  $D0BA  A0 03     LDY #$03
  $D0BC  20 FD D6  JSR PPUQueueTilesB
  $D0BF  A5 83     LDA $83
  $D0C1  F0 1B     BEQ $D0DE
  $D0C3  A9 D1     LDA #$D1
  $D0C5  85 12     STA $12
  $D0C7  A9 5E     LDA #$5E
  $D0C9  85 11     STA $11
  $D0CB  A2 15     LDX #$15
  $D0CD  A0 03     LDY #$03
  $D0CF  20 D3 D6  JSR PPUQueueTiles
  $D0D2  A0 1E     LDY #$1E
  $D0D4  A2 17     LDX #$17
  $D0D6  20 A7 D9  JSR SkipLeadingZeros
  $D0D9  A0 03     LDY #$03
  $D0DB  20 FD D6  JSR PPUQueueTilesB
  $D0DE  A9 00     LDA #$00
  $D0E0  85 60     STA $60
  $D0E2  20 5F D9  JSR WaitVBlank
  $D0E5  A9 D1     LDA #$D1
  $D0E7  85 12     STA $12
  $D0E9  A9 8E     LDA #$8E
  $D0EB  85 11     STA $11
  $D0ED  A2 08     LDX #$08
  $D0EF  A0 11     LDY #$11
  $D0F1  20 D3 D6  JSR PPUQueueTiles
  $D0F4  A9 D1     LDA #$D1
  $D0F6  85 12     STA $12
  $D0F8  A9 A0     LDA #$A0
  $D0FA  85 11     STA $11
  $D0FC  A2 0C     LDX #$0C
  $D0FE  A0 15     LDY #$15
  $D100  20 D3 D6  JSR PPUQueueTiles
  $D103  20 5F D9  JSR WaitVBlank
  $D106  A9 D1     LDA #$D1
  $D108  85 12     STA $12
  $D10A  A9 45     LDA #$45
  $D10C  85 11     STA $11
  $D10E  A2 0D     LDX #$0D
  $D110  A0 17     LDY #$17
  $D112  20 D3 D6  JSR PPUQueueTiles
  $D115  A9 D1     LDA #$D1
  $D117  85 12     STA $12
  $D119  A9 E7     LDA #$E7
  $D11B  85 11     STA $11
  $D11D  A2 05     LDX #$05
  $D11F  A0 19     LDY #$19
  $D121  20 D3 D6  JSR PPUQueueTiles
  $D124  20 5F D9  JSR WaitVBlank
  $D127  A9 D1     LDA #$D1
  $D129  85 12     STA $12
  $D12B  A9 FE     LDA #$FE
  $D12D  85 11     STA $11
  $D12F  A2 07     LDX #$07
  $D131  A0 1B     LDY #$1B
  $D133  20 D3 D6  JSR PPUQueueTiles
  $D136  60        RTS 

DelayXFrames:
  $D137  20 5F D9  JSR WaitVBlank ; DelayXFrames: loop X times: WaitVBlank+TallyScreenRowAnim($CEC4); used during tally to pace per-type counting (X=$19=25 initial wait X=$12=18 between types X=$07=7 X=$0D=13)

Stage5FormationPhase2:
  $D13A  8A        TXA 
  $D13B  48        PHA 
  $D13C  20 C4 CE  JSR TallyScreenRowAnim
  $D13F  68        PLA 
  $D140  AA        TAX 
  $D141  CA        DEX 
  $D142  D0 F3     BNE DelayXFrames
  $D144  60        RTS 

VictorySpritesData:
  $D145  60        RTS  ; VictoryTileData: $D145=9 graphic tiles $60-$68+FF (deco row used by DrawVictoryScreen); $D14F="BATTLE"+FF; $D156="CITY"+FF; tile pairs and "HISCORE"($D16B) strings used by NewHiScoreDisplay
  $D146  61 62     ADC ($62,X)
  $D148  63 64     RRA ($64,X)
  $D14A  65 66     ADC $66
  $D14C  67 68     RRA $68
  $D14E  FF 42 41  ISC $4142,X
  $D151  54 54     NOP $54,X
  $D153  4C 45 FF  JMP $FF45

StrCITY:
  $D156  43 49     SRE ($49,X)
  $D158  54 59     NOP $59,X
  $D15A  FF 5E 6B  ISC $6B5E,X
  $D15D  FF 5F 6B  ISC $6B5F,X
  $D160  FF 58 13  ISC $1358,X
  $D163  FF 5A 13  ISC $135A,X
  $D166  FF 48 49  ISC $4948,X
  $D169  6B        ??? 
  $D16A  FF 48 49  ISC $4948,X
  $D16D  53 43     SRE ($43),Y
  $D16F  4F 52 45  SRE $4552
  $D172  FF 48 49  ISC $4948,X
  $D175  6B        ??? 
  $D176  53 43     SRE ($43),Y
  $D178  4F 52 45  SRE $4552
  $D17B  FF 5E 6B  ISC $6B5E,X
  $D17E  50 4C     BVC $D1CC
  $D180  41 59     EOR ($59,X)
  $D182  45 52     EOR $52
  $D184  FF 5F 6B  ISC $6B5F,X
  $D187  50 4C     BVC $D1D5
  $D189  41 59     EOR ($59,X)
  $D18B  45 52     EOR $52
  $D18D  FF 50 55  ISC $5550,X
  $D190  53 48     SRE ($48),Y
  $D192  20 53 54  JSR $5453
  $D195  41 52     EOR ($52,X)
  $D197  54 20     NOP $20,X
  $D199  42        ??? 
  $D19A  55 54     EOR $54,X
  $D19C  54 4F     NOP $4F,X
  $D19E  4E FF 43  LSR $43FF
  $D1A1  52        ??? 
  $D1A2  45 44     EOR $44
  $D1A4  49 54     EOR #$54
  $D1A6  FF 50 4C  ISC $4C50,X
; ---------------------------------------------------------------------------
; Range $D1A7–$D212 (hex8) TitleStrings
; ---------------------------------------------------------------------------

TitleStringA:
  $D1A7  50        .byte $50
  $D1A8  4C        .byte $4C
  $D1A9  45        .byte $45
  $D1AA  41        .byte $41
  $D1AB  53        .byte $53

Stage8FormationPhase2:
  $D1AC  45        .byte $45
  $D1AD  20        .byte $20
  $D1AE  49        .byte $49
  $D1AF  4E        .byte $4E
  $D1B0  53        .byte $53
  $D1B1  45        .byte $45
  $D1B2  52        .byte $52
  $D1B3  54        .byte $54
  $D1B4  20        .byte $20
  $D1B5  43        .byte $43
  $D1B6  4F        .byte $4F
  $D1B7  49        .byte $49
  $D1B8  4E        .byte $4E
  $D1B9  FF        .byte $FF

TitleStringB:
  $D1BA  20        .byte $20
  $D1BB  20        .byte $20
  $D1BC  20        .byte $20
  $D1BD  20        .byte $20
  $D1BE  20        .byte $20

Stage8FormationPhase3:
  $D1BF  20        .byte $20
  $D1C0  20        .byte $20
  $D1C1  20        .byte $20
  $D1C2  20        .byte $20
  $D1C3  20        .byte $20
  $D1C4  20        .byte $20
  $D1C5  20        .byte $20
  $D1C6  20        .byte $20
  $D1C7  20        .byte $20
  $D1C8  20        .byte $20
  $D1C9  20        .byte $20
  $D1CA  20        .byte $20
  $D1CB  20        .byte $20
  $D1CC  FF        .byte $FF
  $D1CD  23        .byte $23
  $D1CE  27        .byte $27
  $D1CF  9E        .byte $9E
  $D1D0  27        .byte $27
  $D1D1  9F        .byte $9F
  $D1D2  24        .byte $24
  $D1D3  11        .byte $11
  $D1D4  3E        .byte $3E
  $D1D5  3F        .byte $3F
  $D1D6  51        .byte $51
  $D1D7  4A        .byte $4A
  $D1D8  11        .byte $11
  $D1D9  23        .byte $23
  $D1DA  24        .byte $24
  $D1DB  25        .byte $25
  $D1DC  26        .byte $26
  $D1DD  27        .byte $27
  $D1DE  FF        .byte $FF
  $D1DF  24        .byte $24
  $D1E0  9D        .byte $9D
  $D1E1  9C        .byte $9C
  $D1E2  27        .byte $27
  $D1E3  11        .byte $11
  $D1E4  11        .byte $11
  $D1E5  11        .byte $11
  $D1E6  FF        .byte $FF

StrCopyright:
  $D1E7  40        .byte $40
  $D1E8  20        .byte $20
  $D1E9  31        .byte $31
  $D1EA  39        .byte $39
  $D1EB  38        .byte $38
  $D1EC  30        .byte $30
  $D1ED  20        .byte $20
  $D1EE  31        .byte $31
  $D1EF  39        .byte $39
  $D1F0  38        .byte $38
  $D1F1  35        .byte $35
  $D1F2  20        .byte $20
  $D1F3  4E        .byte $4E

Stage8FormationPhase1:
  $D1F4  41        .byte $41
  $D1F5  4D        .byte $4D
  $D1F6  43        .byte $43
  $D1F7  4F        .byte $4F
  $D1F8  20        .byte $20

Stage7FormationPhase2:
  $D1F9  4C        .byte $4C
  $D1FA  54        .byte $54
  $D1FB  44        .byte $44
  $D1FC  69        .byte $69
  $D1FD  FF        .byte $FF

StrAllRightsReserved:
  $D1FE  41        .byte $41
  $D1FF  4C        .byte $4C
  $D200  4C        .byte $4C
  $D201  20        .byte $20
  $D202  52        .byte $52
  $D203  49        .byte $49
  $D204  47        .byte $47
  $D205  48        .byte $48
  $D206  54        .byte $54
  $D207  53        .byte $53
  $D208  20        .byte $20
  $D209  52        .byte $52
  $D20A  45        .byte $45
  $D20B  53        .byte $53
  $D20C  45        .byte $45
  $D20D  52        .byte $52
  $D20E  56        .byte $56
  $D20F  45        .byte $45
  $D210  44        .byte $44
  $D211  FF        .byte $FF
; ---------------------------------------------------------------------------
; Range $D212–$D44A (code)
; ---------------------------------------------------------------------------
  $D212  14 FF     NOP $FF,X ; SidebarData_Icon: tile $14

StrGAME:
  $D214  47 41     SRE $41
  $D216  4D 45 FF  EOR $FF45

StrOVER:
  $D219  4F 56 45  SRE $4556
  $D21C  52        ??? 
  $D21D  FF 50 54  ISC $5450,X
  $D220  53 FF     SRE ($FF),Y
  $D222  6A        ROR 
  $D223  6A        ROR 
  $D224  FF 6C FC  ISC $FC6C,X
  $D227  FF 6D FD  ISC $FD6D,X
  $D22A  FF 11 FF  ISC $FF11,X

EagleWallBrickData:
  $D22D  00        BRK 
  $D22E  00        BRK 
  $D22F  00        BRK 
  $D230  00        BRK 
  $D231  00        BRK 
  $D232  00        BRK 
  $D233  FF 00 0F  ISC $0F00,X
  $D236  0F 0F 0F  SLO $0F0F
  $D239  00        BRK 
  $D23A  FF 00 0F  ISC $0F00,X
  $D23D  C8        INY 
  $D23E  CA        DEX 
  $D23F  0F 00 FF  SLO $FF00
  $D242  00        BRK 
  $D243  0F C9 CB  SLO $CBC9
  $D246  0F 00 FF  SLO $FF00

EagleWallSteelData:
  $D249  00        BRK 
  $D24A  00        BRK 
  $D24B  00        BRK 
  $D24C  00        BRK 
  $D24D  00        BRK 
  $D24E  00        BRK 
  $D24F  FF 00 10  ISC $1000,X
  $D252  10 10     BPL $D264
  $D254  10 00     BPL $D256
  $D256  FF 00 10  ISC $1000,X
  $D259  C8        INY 
  $D25A  CA        DEX 
  $D25B  10 00     BPL $D25D
  $D25D  FF 00 10  ISC $1000,X
  $D260  C9 CB     CMP #$CB
  $D262  10 00     BPL $D264
  $D264  FF C8 CA  ISC $CAC8,X
  $D267  FF C9 CB  ISC $CBC9,X
  $D26A  FF CC CE  ISC $CECC,X
  $D26D  FF CD CF  ISC $CFCD,X
  $D270  FF 5B FF  ISC $FF5B,X

Str_ArrowRight:
  $D273  5D FF 54  EOR $54FF,X
  $D276  4F 54 41  SRE $4154
  $D279  4C FF 5C  JMP $5CFF
  $D27C  5C 5C 5C  NOP $5C5C,X
  $D27F  5C 5C 5C  NOP $5C5C,X
  $D282  5C FF 42  NOP $42FF,X
  $D285  4F 4E 55  SRE $554E
  $D288  53 15     SRE ($15),Y
  $D28A  FF 53 54  ISC $5453,X
  $D28D  41 47     EOR ($47,X)
  $D28F  45 FF     EOR $FF

StrPeaceBeWithYou:
  $D291  50 45     BVC $D2D8 ; VictoryMsgData: FF-terminated ASCII strings — $D291="PEACE BE WITH YOU"+$15+FF; $D2A4="NOW LONG WAR"+FF; $D2B1="COMES TO"+FF; $D2BA="AN END"+$69+FF; then anim/palette timing bytes $D2C2-$D2CF
  $D293  41 43     EOR ($43,X)
  $D295  45 20     EOR $20
  $D297  42        ??? 
  $D298  45 20     EOR $20
  $D29A  57 49     SRE $49,X
  $D29C  54 48     NOP $48,X
  $D29E  20 59 4F  JSR $4F59
  $D2A1  55 15     EOR $15,X
  $D2A3  FF 4E 4F  ISC $4F4E,X
  $D2A6  57 20     SRE $20,X
  $D2A8  4C 4F 4E  JMP $4E4F
  $D2AB  47 20     SRE $20
  $D2AD  57 41     SRE $41,X
  $D2AF  52        ??? 
  $D2B0  FF 43 4F  ISC $4F43,X
  $D2B3  4D 45 53  EOR $5345
  $D2B6  20 54 4F  JSR $4F54
  $D2B9  FF 41 4E  ISC $4E41,X
  $D2BC  20 45 4E  JSR $4E45
  $D2BF  44 69     NOP $69
  $D2C1  FF 10 20  ISC $2010,X
  $D2C4  30 40     BMI $D306

HUDTankWiggleX:
  $D2C6  00        BRK  ; HUDTankWiggleX[4]: signed X deltas for HUD tank arrival animation; {0
  $D2C7  FF 00 01  ISC $0100,X

HUDTankWiggleY:
  $D2CA  FF 00 01  ISC $0100,X ; HUDTankWiggleY[4]: signed Y deltas for HUD tank arrival animation; {-1
  $D2CD  00        BRK 
  $D2CE  FF FF FF  ISC $FFFF,X
  $D2D1  FF FF FF  ISC $FFFF,X
  $D2D4  FF FF FF  ISC $FFFF,X
  $D2D7  FF FF FF  ISC $FFFF,X
  $D2DA  FF FF FF  ISC $FFFF,X
  $D2DD  FF FF FF  ISC $FFFF,X
  $D2E0  FF FF FF  ISC $FFFF,X
  $D2E3  FF FF FF  ISC $FFFF,X
  $D2E6  FF FF FF  ISC $FFFF,X
  $D2E9  FF FF FF  ISC $FFFF,X
  $D2EC  FF FF FF  ISC $FFFF,X
  $D2EF  FF FF FF  ISC $FFFF,X
  $D2F2  FF FF FF  ISC $FFFF,X
  $D2F5  FF FF FF  ISC $FFFF,X
  $D2F8  FF FF FF  ISC $FFFF,X
  $D2FB  FF FF FF  ISC $FFFF,X
  $D2FE  FF FF 48  ISC $48FF,X
  $D301  8A        TXA 
  $D302  48        PHA 
  $D303  98        TYA 
  $D304  48        PHA 
  $D305  08        PHP 
  $D306  A9 06     LDA #$06 ; Force rendering on during NMI
  $D308  8D 01 20  STA $2001
  $D30B  20 52 D3  JSR NMI_Sub
  $D30E  A5 4D     LDA $4D
  $D310  D0 26     BNE $D338
  $D312  A9 1E     LDA #$1E
  $D314  8D 01 20  STA $2001
  $D317  A9 00     LDA #$00
  $D319  8D 03 20  STA $2003
  $D31C  A9 02     LDA #$02
  $D31E  8D 14 40  STA $4014 ; Trigger OAM DMA from page $02
  $D321  AD 02 20  LDA $2002
  $D324  20 6D D9  JSR NMI_Scroll
  $D327  A5 50     LDA $50
  $D329  09 B0     ORA #$B0
  $D32B  8D 00 20  STA $2000
  $D32E  A9 00     LDA #$00
  $D330  8D 05 20  STA $2005
  $D333  A5 4F     LDA $4F
  $D335  8D 05 20  STA $2005
  $D338  20 8A D6  JSR NMI_Sub2
  $D33B  20 23 EC  JSR SoundEngine
  $D33E  20 22 DB  JSR NMI_Sub4
  $D341  E6 0B     INC $0B ; Increment frame counter low byte (ZP $0B)
  $D343  A5 0B     LDA $0B
  $D345  29 3F     AND #$3F
  $D347  D0 02     BNE $D34B
  $D349  E6 0A     INC $0A ; Increment frame counter high byte (ZP $0A)
  $D34B  28        PLP 
  $D34C  68        PLA 
  $D34D  A8        TAY 
  $D34E  68        PLA 
  $D34F  AA        TAX 
  $D350  68        PLA 
  $D351  40        RTI 

NMI_Sub:
  $D352  AD 16 40  LDA $4016 ; VS System coin/service input handler: double-read $4016 (glitch filter); route bit to $4020 (VS protection); AND #$24 (bits 2&5=coin/service buttons); on press INC $4A (CoinHeldCounter); on release INC $4B (credits counter) + $0300=1 (coin event flag) + clear $4A
  $D355  2D 16 40  AND $4016
  $D358  48        PHA 
  $D359  2A        ROL 
  $D35A  2A        ROL 
  $D35B  2A        ROL 
  $D35C  2A        ROL 
  $D35D  29 01     AND #$01
  $D35F  8D 20 40  STA $4020
  $D362  68        PLA 
  $D363  29 24     AND #$24
  $D365  F0 05     BEQ $D36C
  $D367  E6 4A     INC $4A
  $D369  4C 7B D3  JMP $D37B
  $D36C  A5 4A     LDA $4A
  $D36E  F0 0B     BEQ $D37B
  $D370  E6 4B     INC $4B
  $D372  A9 01     LDA #$01
  $D374  8D 00 03  STA $0300
  $D377  A9 00     LDA #$00
  $D379  85 4A     STA $4A
  $D37B  60        RTS 

RNG:
  $D37C  8A        TXA 
  $D37D  48        PHA 
  $D37E  A5 0F     LDA $0F
  $D380  0A        ASL 
  $D381  0A        ASL 
  $D382  0A        ASL 
  $D383  38        SEC 
  $D384  E5 0F     SBC $0F
  $D386  18        CLC 
  $D387  65 0A     ADC $0A
  $D389  E6 10     INC $10
  $D38B  A6 10     LDX $10
  $D38D  75 00     ADC $00,X
  $D38F  85 0F     STA $0F
  $D391  68        PLA 
  $D392  AA        TAX 
  $D393  A5 0F     LDA $0F
  $D395  60        RTS 

Init2:
  $D396  A9 00     LDA #$00
  $D398  85 4D     STA $4D
  $D39A  20 22 DB  JSR NMI_Sub4
  $D39D  20 5F D9  JSR WaitVBlank
  $D3A0  60        RTS 

WaitNMI:
  $D3A1  A9 01     LDA #$01
  $D3A3  85 4D     STA $4D
  $D3A5  20 22 DB  JSR NMI_Sub4
  $D3A8  20 5F D9  JSR WaitVBlank
  $D3AB  60        RTS 

ClearSpriteBuf:
  $D3AC  A9 00     LDA #$00
  $D3AE  AA        TAX 
  $D3AF  9D 00 04  STA $0400,X
  $D3B2  9D 00 05  STA $0500,X
  $D3B5  9D 00 06  STA $0600,X
  $D3B8  9D 00 07  STA $0700,X
  $D3BB  E8        INX 
  $D3BC  D0 F1     BNE $D3AF
  $D3BE  60        RTS 

Init:
  $D3BF  A9 00     LDA #$00
  $D3C1  85 60     STA $60
  $D3C3  85 6B     STA $6B
  $D3C5  85 0C     STA $0C
  $D3C7  85 0D     STA $0D
  $D3C9  85 6D     STA $6D
  $D3CB  85 4A     STA $4A
  $D3CD  85 4D     STA $4D
  $D3CF  AD 17 40  LDA $4017
  $D3D2  29 C0     AND #$C0
  $D3D4  85 4E     STA $4E
  $D3D6  20 1E D4  JSR InitPalette
  $D3D9  A9 04     LDA #$04
  $D3DB  85 0E     STA $0E
  $D3DD  A9 20     LDA #$20
  $D3DF  85 6E     STA $6E
  $D3E1  20 AC D3  JSR ClearSpriteBuf
  $D3E4  20 22 DB  JSR NMI_Sub4
  $D3E7  A2 15     LDX #$15
  $D3E9  20 7F DA  JSR ZeroSlot
  $D3EC  A2 1D     LDX #$1D
  $D3EE  20 7F DA  JSR ZeroSlot
  $D3F1  A2 3D     LDX #$3D
  $D3F3  20 7F DA  JSR ZeroSlot
  $D3F6  A9 02     LDA #$02
  $D3F8  85 3F     STA $3F
  $D3FA  A9 00     LDA #$00
  $D3FC  85 83     STA $83
  $D3FE  A9 1C     LDA #$1C
  $D400  85 05     STA $05
  $D402  20 D4 D7  JSR WriteNametable
  $D405  A9 20     LDA #$20
  $D407  85 05     STA $05
  $D409  20 D4 D7  JSR WriteNametable
  $D40C  A9 24     LDA #$24
  $D40E  85 05     STA $05
  $D410  20 D4 D7  JSR WriteNametable
  $D413  A9 28     LDA #$28
  $D415  85 05     STA $05
  $D417  20 D4 D7  JSR WriteNametable
  $D41A  20 F6 EB  JSR SoundResetInit
  $D41D  60        RTS 

InitPalette:
  $D41E  20 75 D5  JSR WaitVBlank
  $D421  A2 00     LDX #$00
  $D423  A9 3F     LDA #$3F
  $D425  8D 06 20  STA $2006
  $D428  8E 06 20  STX $2006
  $D42B  BD 4A D4  LDA PaletteData,X
  $D42E  20 6A D4  JSR PaletteApplyDIP
  $D431  8D 07 20  STA $2007
  $D434  E8        INX 
  $D435  E0 20     CPX #$20
  $D437  D0 F2     BNE $D42B

ResetPPUAddr:
  $D439  A9 3F     LDA #$3F
  $D43B  8D 06 20  STA $2006
  $D43E  A9 00     LDA #$00
  $D440  8D 06 20  STA $2006
  $D443  8D 06 20  STA $2006
  $D446  8D 06 20  STA $2006
  $D449  60        RTS 
; ---------------------------------------------------------------------------
; Range $D44A–$D46A (u8) PaletteData
; ---------------------------------------------------------------------------

PaletteData:
  $D44A  0F        .byte $0F  ; 15
  $D44B  17        .byte $17  ; 23
  $D44C  06        .byte $06  ; 6
  $D44D  00        .byte $00  ; 0
  $D44E  0F        .byte $0F  ; 15
  $D44F  3C        .byte $3C  ; 60
  $D450  10        .byte $10  ; 16
  $D451  12        .byte $12  ; 18
  $D452  0F        .byte $0F  ; 15
  $D453  29        .byte $29  ; 41
  $D454  09        .byte $09  ; 9
  $D455  0B        .byte $0B  ; 11
  $D456  0F        .byte $0F  ; 15
  $D457  00        .byte $00  ; 0
  $D458  10        .byte $10  ; 16
  $D459  20        .byte $20  ; 32
  $D45A  0F        .byte $0F  ; 15
  $D45B  18        .byte $18  ; 24
  $D45C  27        .byte $27  ; 39
  $D45D  38        .byte $38  ; 56
  $D45E  0F        .byte $0F  ; 15
  $D45F  0A        .byte $0A  ; 10
  $D460  1B        .byte $1B  ; 27
  $D461  3B        .byte $3B  ; 59
  $D462  0F        .byte $0F  ; 15
  $D463  0C        .byte $0C  ; 12
  $D464  10        .byte $10  ; 16
  $D465  20        .byte $20  ; 32
  $D466  0F        .byte $0F  ; 15
  $D467  04        .byte $04  ; 4
  $D468  16        .byte $16  ; 22
  $D469  20        .byte $20  ; 32
; ---------------------------------------------------------------------------
; Range $D46A–$D475 (code) PaletteApplyDIP
; ---------------------------------------------------------------------------

PaletteApplyDIP:
  $D46A  84 00     STY $00
  $D46C  05 4E     ORA $4E
  $D46E  A8        TAY 
  $D46F  B9 75 D4  LDA PaletteColorTable,Y
  $D472  A4 00     LDY $00
  $D474  60        RTS 
; ---------------------------------------------------------------------------
; Range $D475–$D575 (u8) PaletteColorTable
; ---------------------------------------------------------------------------

PaletteColorTable:
  $D475  09        .byte $09  ; 9
  $D476  1F        .byte $1F  ; 31
  $D477  2D        .byte $2D  ; 45
  $D478  35        .byte $35  ; 53
  $D479  0C        .byte $0C  ; 12
  $D47A  0B        .byte $0B  ; 11
  $D47B  2B        .byte $2B  ; 43
  $D47C  12        .byte $12  ; 18
  $D47D  0E        .byte $0E  ; 14
  $D47E  05        .byte $05  ; 5
  $D47F  33        .byte $33  ; 51
  $D480  3A        .byte $3A  ; 58
  $D481  25        .byte $25  ; 37
  $D482  1A        .byte $1A  ; 26
  $D483  1A        .byte $1A  ; 26
  $D484  1A        .byte $1A  ; 26
  $D485  1D        .byte $1D  ; 29
  $D486  39        .byte $39  ; 57
  $D487  17        .byte $17  ; 23
  $D488  2C        .byte $2C  ; 44
  $D489  27        .byte $27  ; 39
  $D48A  07        .byte $07  ; 7
  $D48B  02        .byte $02  ; 2
  $D48C  37        .byte $37  ; 55
  $D48D  3E        .byte $3E  ; 62
  $D48E  31        .byte $31  ; 49
  $D48F  3A        .byte $3A  ; 58
  $D490  26        .byte $26  ; 38
  $D491  04        .byte $04  ; 4
  $D492  28        .byte $28  ; 40
  $D493  28        .byte $28  ; 40
  $D494  28        .byte $28  ; 40
  $D495  1C        .byte $1C  ; 28
  $D496  10        .byte $10  ; 16
  $D497  03        .byte $03  ; 3
  $D498  01        .byte $01  ; 1
  $D499  1E        .byte $1E  ; 30
  $D49A  3D        .byte $3D  ; 61
  $D49B  2E        .byte $2E  ; 46
  $D49C  0A        .byte $0A  ; 10
  $D49D  0D        .byte $0D  ; 13
  $D49E  13        .byte $13  ; 19
  $D49F  23        .byte $23  ; 35
  $D4A0  19        .byte $19  ; 25
  $D4A1  24        .byte $24  ; 36
  $D4A2  2F        .byte $2F  ; 47
  $D4A3  2F        .byte $2F  ; 47
  $D4A4  2F        .byte $2F  ; 47
  $D4A5  08        .byte $08  ; 8
  $D4A6  21        .byte $21  ; 33
  $D4A7  15        .byte $15  ; 21
  $D4A8  22        .byte $22  ; 34
  $D4A9  2A        .byte $2A  ; 42
  $D4AA  00        .byte $00  ; 0
  $D4AB  11        .byte $11  ; 17
  $D4AC  36        .byte $36  ; 54
  $D4AD  3C        .byte $3C  ; 60
  $D4AE  34        .byte $34  ; 52
  $D4AF  3F        .byte $3F  ; 63
  $D4B0  19        .byte $19  ; 25
  $D4B1  14        .byte $14  ; 20
  $D4B2  30        .byte $30  ; 48
  $D4B3  30        .byte $30  ; 48
  $D4B4  30        .byte $30  ; 48
  $D4B5  3F        .byte $3F  ; 63
  $D4B6  35        .byte $35  ; 53
  $D4B7  27        .byte $27  ; 39
  $D4B8  09        .byte $09  ; 9
  $D4B9  20        .byte $20  ; 32
  $D4BA  3D        .byte $3D  ; 61
  $D4BB  12        .byte $12  ; 18
  $D4BC  3A        .byte $3A  ; 58
  $D4BD  1D        .byte $1D  ; 29
  $D4BE  2B        .byte $2B  ; 43
  $D4BF  3E        .byte $3E  ; 62
  $D4C0  0F        .byte $0F  ; 15
  $D4C1  34        .byte $34  ; 52
  $D4C2  00        .byte $00  ; 0
  $D4C3  00        .byte $00  ; 0
  $D4C4  00        .byte $00  ; 0
  $D4C5  13        .byte $13  ; 19
  $D4C6  24        .byte $24  ; 36
  $D4C7  2C        .byte $2C  ; 44
  $D4C8  09        .byte $09  ; 9
  $D4C9  28        .byte $28  ; 40
  $D4CA  36        .byte $36  ; 54
  $D4CB  08        .byte $08  ; 8
  $D4CC  33        .byte $33  ; 51
  $D4CD  02        .byte $02  ; 2
  $D4CE  37        .byte $37  ; 55
  $D4CF  0F        .byte $0F  ; 15
  $D4D0  14        .byte $14  ; 20
  $D4D1  06        .byte $06  ; 6
  $D4D2  1E        .byte $1E  ; 30
  $D4D3  1E        .byte $1E  ; 30
  $D4D4  1E        .byte $1E  ; 30
  $D4D5  0C        .byte $0C  ; 12
  $D4D6  11        .byte $11  ; 17
  $D4D7  17        .byte $17  ; 23
  $D4D8  0B        .byte $0B  ; 11
  $D4D9  19        .byte $19  ; 25
  $D4DA  05        .byte $05  ; 5
  $D4DB  22        .byte $22  ; 34
  $D4DC  01        .byte $01  ; 1
  $D4DD  2E        .byte $2E  ; 46
  $D4DE  39        .byte $39  ; 57
  $D4DF  32        .byte $32  ; 50
  $D4E0  1B        .byte $1B  ; 27
  $D4E1  39        .byte $39  ; 57
  $D4E2  2D        .byte $2D  ; 45
  $D4E3  2D        .byte $2D  ; 45
  $D4E4  2D        .byte $2D  ; 45
  $D4E5  2F        .byte $2F  ; 47
  $D4E6  07        .byte $07  ; 7
  $D4E7  1C        .byte $1C  ; 28
  $D4E8  23        .byte $23  ; 35
  $D4E9  0B        .byte $0B  ; 11
  $D4EA  3C        .byte $3C  ; 60
  $D4EB  21        .byte $21  ; 33
  $D4EC  2E        .byte $2E  ; 46
  $D4ED  0A        .byte $0A  ; 10
  $D4EE  03        .byte $03  ; 3
  $D4EF  04        .byte $04  ; 4
  $D4F0  1B        .byte $1B  ; 27
  $D4F1  0E        .byte $0E  ; 14
  $D4F2  38        .byte $38  ; 56
  $D4F3  38        .byte $38  ; 56
  $D4F4  38        .byte $38  ; 56
  $D4F5  18        .byte $18  ; 24
  $D4F6  08        .byte $08  ; 8
  $D4F7  1B        .byte $1B  ; 27
  $D4F8  19        .byte $19  ; 25
  $D4F9  29        .byte $29  ; 41
  $D4FA  12        .byte $12  ; 18
  $D4FB  1D        .byte $1D  ; 29
  $D4FC  34        .byte $34  ; 52
  $D4FD  0B        .byte $0B  ; 11
  $D4FE  07        .byte $07  ; 7
  $D4FF  38        .byte $38  ; 56
  $D500  04        .byte $04  ; 4
  $D501  3F        .byte $3F  ; 63
  $D502  09        .byte $09  ; 9
  $D503  09        .byte $09  ; 9
  $D504  09        .byte $09  ; 9
  $D505  03        .byte $03  ; 3
  $D506  2C        .byte $2C  ; 44
  $D507  13        .byte $13  ; 19
  $D508  3C        .byte $3C  ; 60
  $D509  00        .byte $00  ; 0
  $D50A  0C        .byte $0C  ; 12
  $D50B  1C        .byte $1C  ; 28
  $D50C  16        .byte $16  ; 22
  $D50D  15        .byte $15  ; 21
  $D50E  14        .byte $14  ; 20
  $D50F  04        .byte $04  ; 4
  $D510  17        .byte $17  ; 23
  $D511  11        .byte $11  ; 17
  $D512  1A        .byte $1A  ; 26
  $D513  1A        .byte $1A  ; 26
  $D514  1A        .byte $1A  ; 26
  $D515  27        .byte $27  ; 39
  $D516  2A        .byte $2A  ; 42
  $D517  10        .byte $10  ; 16
  $D518  20        .byte $20  ; 32
  $D519  2B        .byte $2B  ; 43
  $D51A  01        .byte $01  ; 1
  $D51B  26        .byte $26  ; 38
  $D51C  25        .byte $25  ; 37
  $D51D  36        .byte $36  ; 54
  $D51E  28        .byte $28  ; 40
  $D51F  35        .byte $35  ; 53
  $D520  3D        .byte $3D  ; 61
  $D521  30        .byte $30  ; 48
  $D522  2E        .byte $2E  ; 46
  $D523  2E        .byte $2E  ; 46
  $D524  2E        .byte $2E  ; 46
  $D525  27        .byte $27  ; 39
  $D526  06        .byte $06  ; 6
  $D527  3A        .byte $3A  ; 58
  $D528  33        .byte $33  ; 51
  $D529  1E        .byte $1E  ; 30
  $D52A  1F        .byte $1F  ; 31
  $D52B  0A        .byte $0A  ; 10
  $D52C  23        .byte $23  ; 35
  $D52D  3B        .byte $3B  ; 59
  $D52E  32        .byte $32  ; 50
  $D52F  02        .byte $02  ; 2
  $D530  3D        .byte $3D  ; 61
  $D531  0F        .byte $0F  ; 15
  $D532  39        .byte $39  ; 57
  $D533  39        .byte $39  ; 57
  $D534  39        .byte $39  ; 57
  $D535  26        .byte $26  ; 38
  $D536  06        .byte $06  ; 6
  $D537  23        .byte $23  ; 35
  $D538  01        .byte $01  ; 1
  $D539  1C        .byte $1C  ; 28
  $D53A  20        .byte $20  ; 32
  $D53B  16        .byte $16  ; 22
  $D53C  22        .byte $22  ; 34
  $D53D  32        .byte $32  ; 50
  $D53E  2B        .byte $2B  ; 43
  $D53F  21        .byte $21  ; 33
  $D540  1B        .byte $1B  ; 27
  $D541  28        .byte $28  ; 40
  $D542  04        .byte $04  ; 4
  $D543  04        .byte $04  ; 4
  $D544  04        .byte $04  ; 4
  $D545  08        .byte $08  ; 8
  $D546  2A        .byte $2A  ; 42
  $D547  12        .byte $12  ; 18
  $D548  24        .byte $24  ; 36
  $D549  25        .byte $25  ; 37
  $D54A  27        .byte $27  ; 39
  $D54B  33        .byte $33  ; 51
  $D54C  07        .byte $07  ; 7
  $D54D  00        .byte $00  ; 0
  $D54E  0E        .byte $0E  ; 14
  $D54F  0E        .byte $0E  ; 14
  $D550  19        .byte $19  ; 25
  $D551  02        .byte $02  ; 2
  $D552  14        .byte $14  ; 20
  $D553  14        .byte $14  ; 20
  $D554  14        .byte $14  ; 20
  $D555  31        .byte $31  ; 49
  $D556  1F        .byte $1F  ; 31
  $D557  1A        .byte $1A  ; 26
  $D558  3A        .byte $3A  ; 58
  $D559  2F        .byte $2F  ; 47
  $D55A  10        .byte $10  ; 16
  $D55B  17        .byte $17  ; 23
  $D55C  39        .byte $39  ; 57
  $D55D  03        .byte $03  ; 3
  $D55E  3C        .byte $3C  ; 60
  $D55F  0A        .byte $0A  ; 10
  $D560  35        .byte $35  ; 53
  $D561  3E        .byte $3E  ; 62
  $D562  1D        .byte $1D  ; 29
  $D563  1D        .byte $1D  ; 29
  $D564  1D        .byte $1D  ; 29
  $D565  36        .byte $36  ; 54
  $D566  3B        .byte $3B  ; 59
  $D567  3D        .byte $3D  ; 61
  $D568  30        .byte $30  ; 48
  $D569  13        .byte $13  ; 19
  $D56A  05        .byte $05  ; 5
  $D56B  0C        .byte $0C  ; 12
  $D56C  0D        .byte $0D  ; 13
  $D56D  2D        .byte $2D  ; 45
  $D56E  0F        .byte $0F  ; 15
  $D56F  1E        .byte $1E  ; 30
  $D570  35        .byte $35  ; 53
  $D571  37        .byte $37  ; 55
  $D572  38        .byte $38  ; 56
  $D573  38        .byte $38  ; 56
  $D574  38        .byte $38  ; 56
; ---------------------------------------------------------------------------
; Range $D575–$E529 (code)
; ---------------------------------------------------------------------------

WaitVBlank:
  $D575  AD 02 20  LDA $2002
  $D578  10 FB     BPL WaitVBlank
  $D57A  60        RTS 
  $D57B  20 5F D9  JSR WaitVBlank
  $D57E  A0 07     LDY #$07
  $D580  20 8E D5  JSR $D58E
  $D583  A0 0B     LDY #$0B
  $D585  20 8E D5  JSR $D58E
  $D588  A0 0F     LDY #$0F
  $D58A  20 8E D5  JSR $D58E
  $D58D  60        RTS 
  $D58E  AD 4D D4  LDA $D44D
  $D591  20 3E DB  JSR QueuePaletteWrite
  $D594  60        RTS 
  $D595  20 5F D9  JSR WaitVBlank
  $D598  A0 07     LDY #$07
  $D59A  20 A8 D5  JSR $D5A8
  $D59D  A0 0B     LDY #$0B
  $D59F  20 A8 D5  JSR $D5A8
  $D5A2  A0 0F     LDY #$0F
  $D5A4  20 A8 D5  JSR $D5A8
  $D5A7  60        RTS 
  $D5A8  B9 4A D4  LDA PaletteData,Y
  $D5AB  20 3E DB  JSR QueuePaletteWrite
  $D5AE  60        RTS 

SetGamePalette:
  $D5AF  A9 16     LDA #$16
  $D5B1  A0 01     LDY #$01
  $D5B3  20 3E DB  JSR QueuePaletteWrite
  $D5B6  A9 16     LDA #$16
  $D5B8  A0 02     LDY #$02
  $D5BA  20 3E DB  JSR QueuePaletteWrite
  $D5BD  A9 30     LDA #$30
  $D5BF  A0 03     LDY #$03
  $D5C1  20 3E DB  JSR QueuePaletteWrite
  $D5C4  A9 16     LDA #$16
  $D5C6  A0 07     LDY #$07
  $D5C8  20 3E DB  JSR QueuePaletteWrite
  $D5CB  A9 27     LDA #$27
  $D5CD  A0 0B     LDY #$0B
  $D5CF  20 3E DB  JSR QueuePaletteWrite
  $D5D2  60        RTS 

SetTitlePalette:
  $D5D3  A0 01     LDY #$01
  $D5D5  B9 4A D4  LDA PaletteData,Y
  $D5D8  20 3E DB  JSR QueuePaletteWrite
  $D5DB  A0 02     LDY #$02
  $D5DD  B9 4A D4  LDA PaletteData,Y
  $D5E0  20 3E DB  JSR QueuePaletteWrite
  $D5E3  A0 03     LDY #$03
  $D5E5  B9 4A D4  LDA PaletteData,Y
  $D5E8  20 3E DB  JSR QueuePaletteWrite
  $D5EB  A0 07     LDY #$07
  $D5ED  B9 4A D4  LDA PaletteData,Y
  $D5F0  20 3E DB  JSR QueuePaletteWrite
  $D5F3  A0 0B     LDY #$0B
  $D5F5  B9 4A D4  LDA PaletteData,Y
  $D5F8  20 3E DB  JSR QueuePaletteWrite
  $D5FB  60        RTS 

CalcPPUAddr:
  $D5FC  A9 00     LDA #$00
  $D5FE  85 00     STA $00
  $D600  98        TYA 
  $D601  4A        LSR 
  $D602  66 00     ROR $00
  $D604  4A        LSR 
  $D605  66 00     ROR $00
  $D607  4A        LSR 
  $D608  66 00     ROR $00
  $D60A  48        PHA 
  $D60B  8A        TXA 
  $D60C  05 00     ORA $00
  $D60E  A8        TAY 
  $D60F  68        PLA 
  $D610  09 04     ORA #$04
  $D612  60        RTS 
  $D613  20 36 D6  JSR $D636
  $D616  A6 0C     LDX $0C
  $D618  A9 23     LDA #$23
  $D61A  9D 80 01  STA $0180,X
  $D61D  E8        INX 
  $D61E  98        TYA 
  $D61F  18        CLC 
  $D620  69 C0     ADC #$C0
  $D622  9D 80 01  STA $0180,X
  $D625  E8        INX 
  $D626  B9 C0 07  LDA $07C0,Y
  $D629  9D 80 01  STA $0180,X
  $D62C  E8        INX 
  $D62D  A9 FF     LDA #$FF
  $D62F  9D 80 01  STA $0180,X
  $D632  E8        INX 
  $D633  86 0C     STX $0C
  $D635  60        RTS 
  $D636  A5 04     LDA $04
  $D638  20 85 D6  JSR $D685
  $D63B  20 85 D6  JSR $D685
  $D63E  20 85 D6  JSR $D685
  $D641  85 02     STA $02
  $D643  98        TYA 
  $D644  29 02     AND #$02
  $D646  D0 0F     BNE $D657
  $D648  8A        TXA 
  $D649  29 02     AND #$02
  $D64B  F0 05     BEQ $D652
  $D64D  A9 F3     LDA #$F3
  $D64F  4C 63 D6  JMP $D663
  $D652  A9 FC     LDA #$FC
  $D654  4C 63 D6  JMP $D663
  $D657  8A        TXA 
  $D658  29 02     AND #$02
  $D65A  F0 05     BEQ $D661
  $D65C  A9 3F     LDA #$3F
  $D65E  4C 63 D6  JMP $D663
  $D661  A9 CF     LDA #$CF
  $D663  85 01     STA $01
  $D665  98        TYA 
  $D666  0A        ASL 
  $D667  29 F8     AND #$F8
  $D669  85 00     STA $00
  $D66B  8A        TXA 
  $D66C  4A        LSR 
  $D66D  4A        LSR 
  $D66E  18        CLC 
  $D66F  65 00     ADC $00
  $D671  A8        TAY 
  $D672  A5 01     LDA $01
  $D674  49 FF     EOR #$FF
  $D676  25 02     AND $02
  $D678  85 02     STA $02
  $D67A  B9 C0 07  LDA $07C0,Y
  $D67D  25 01     AND $01
  $D67F  05 02     ORA $02
  $D681  99 C0 07  STA $07C0,Y
  $D684  60        RTS 
  $D685  0A        ASL 
  $D686  0A        ASL 
  $D687  05 04     ORA $04
  $D689  60        RTS 

NMI_Sub2:
  $D68A  A6 06     LDX $06
  $D68C  A4 07     LDY $07
  $D68E  86 07     STX $07
  $D690  84 06     STY $06
  $D692  A2 01     LDX #$01
  $D694  8E 16 40  STX $4016
  $D697  A0 00     LDY #$00
  $D699  8C 16 40  STY $4016
  $D69C  94 00     STY $00,X
  $D69E  A0 08     LDY #$08
  $D6A0  BD 16 40  LDA $4016,X
  $D6A3  29 03     AND #$03
  $D6A5  C9 01     CMP #$01
  $D6A7  76 00     ROR $00,X
  $D6A9  EA        NOP 
  $D6AA  EA        NOP 
  $D6AB  88        DEY 
  $D6AC  D0 F2     BNE $D6A0
  $D6AE  CA        DEX 
  $D6AF  10 EB     BPL $D69C
  $D6B1  A2 01     LDX #$01
  $D6B3  B5 06     LDA $06,X
  $D6B5  49 FF     EOR #$FF
  $D6B7  35 00     AND $00,X
  $D6B9  95 08     STA $08,X
  $D6BB  B5 00     LDA $00,X
  $D6BD  95 06     STA $06,X
  $D6BF  CA        DEX 
  $D6C0  10 F1     BPL $D6B3
  $D6C2  A6 06     LDX $06
  $D6C4  A4 07     LDY $07
  $D6C6  86 07     STX $07
  $D6C8  84 06     STY $06
  $D6CA  A6 08     LDX $08
  $D6CC  A4 09     LDY $09
  $D6CE  86 09     STX $09
  $D6D0  84 08     STY $08
  $D6D2  60        RTS 

PPUQueueTiles:
  $D6D3  20 FC D5  JSR CalcPPUAddr
  $D6D6  85 14     STA $14
  $D6D8  18        CLC 
  $D6D9  65 05     ADC $05
  $D6DB  A6 0C     LDX $0C
  $D6DD  9D 80 01  STA $0180,X
  $D6E0  E8        INX 
  $D6E1  98        TYA 
  $D6E2  9D 80 01  STA $0180,X
  $D6E5  E8        INX 
  $D6E6  85 13     STA $13
  $D6E8  A0 00     LDY #$00
  $D6EA  B1 11     LDA ($11),Y
  $D6EC  9D 80 01  STA $0180,X
  $D6EF  E8        INX 
  $D6F0  C9 FF     CMP #$FF
  $D6F2  F0 06     BEQ $D6FA
  $D6F4  91 13     STA ($13),Y
  $D6F6  C8        INY 
  $D6F7  4C EA D6  JMP $D6EA
  $D6FA  86 0C     STX $0C
  $D6FC  60        RTS 

PPUQueueTilesB:
  $D6FD  20 FC D5  JSR CalcPPUAddr
  $D700  18        CLC 
  $D701  65 05     ADC $05
  $D703  A6 0C     LDX $0C
  $D705  9D 80 01  STA $0180,X
  $D708  E8        INX 
  $D709  98        TYA 
  $D70A  9D 80 01  STA $0180,X
  $D70D  E8        INX 
  $D70E  A0 00     LDY #$00
  $D710  B1 11     LDA ($11),Y
  $D712  30 03     BMI $D717
  $D714  18        CLC 
  $D715  65 60     ADC $60
  $D717  9D 80 01  STA $0180,X
  $D71A  E8        INX 
  $D71B  C9 FF     CMP #$FF
  $D71D  F0 04     BEQ $D723
  $D71F  C8        INY 
  $D720  4C 10 D7  JMP $D710
  $D723  86 0C     STX $0C
  $D725  60        RTS 

PPUAddrFromXY:
  $D726  20 33 D7  JSR PixelToTile
  $D729  20 FC D5  JSR CalcPPUAddr
  $D72C  85 12     STA $12
  $D72E  84 11     STY $11
  $D730  A0 00     LDY #$00
  $D732  60        RTS 

PixelToTile:
  $D733  98        TYA  ; PixelToTileCoord: converts X and Y pixel coords (each 3xLSR /8) to tile indices; returns X=tileX Y=tileY
  $D734  4A        LSR 
  $D735  4A        LSR 
  $D736  4A        LSR 
  $D737  A8        TAY 
  $D738  8A        TXA 
  $D739  4A        LSR 
  $D73A  4A        LSR 
  $D73B  4A        LSR 
  $D73C  AA        TAX 
  $D73D  60        RTS 
  $D73E  86 47     STX $47
  $D740  84 48     STY $48
  $D742  20 26 D7  JSR PPUAddrFromXY
  $D745  A9 01     LDA #$01
  $D747  85 00     STA $00
  $D749  A5 48     LDA $48
  $D74B  29 04     AND #$04
  $D74D  F0 04     BEQ $D753
  $D74F  06 00     ASL $00
  $D751  06 00     ASL $00
  $D753  A5 47     LDA $47
  $D755  29 04     AND #$04
  $D757  F0 02     BEQ $D75B
  $D759  06 00     ASL $00
  $D75B  60        RTS 
  $D75C  A5 00     LDA $00
  $D75E  09 F0     ORA #$F0
  $D760  31 11     AND ($11),Y
  $D762  60        RTS 
  $D763  A5 00     LDA $00
  $D765  49 FF     EOR #$FF
  $D767  31 11     AND ($11),Y
  $D769  20 A4 D7  JSR $D7A4
  $D76C  60        RTS 
  $D76D  B1 11     LDA ($11),Y
  $D76F  29 F0     AND #$F0
  $D771  D0 08     BNE $D77B
  $D773  A5 00     LDA $00
  $D775  49 FF     EOR #$FF
  $D777  31 11     AND ($11),Y
  $D779  91 11     STA ($11),Y
  $D77B  60        RTS 
  $D77C  A5 00     LDA $00
  $D77E  11 11     ORA ($11),Y
  $D780  20 A4 D7  JSR $D7A4
  $D783  60        RTS 
  $D784  B1 11     LDA ($11),Y
  $D786  29 F0     AND #$F0
  $D788  D0 06     BNE $D790
  $D78A  A5 00     LDA $00
  $D78C  11 11     ORA ($11),Y
  $D78E  91 11     STA ($11),Y
  $D790  60        RTS 
  $D791  A5 12     LDA $12
  $D793  18        CLC 
  $D794  65 05     ADC $05
  $D796  8D 06 20  STA $2006
  $D799  A5 11     LDA $11
  $D79B  8D 06 20  STA $2006
  $D79E  B1 11     LDA ($11),Y
  $D7A0  8D 07 20  STA $2007
  $D7A3  60        RTS 
  $D7A4  91 11     STA ($11),Y
  $D7A6  86 47     STX $47
  $D7A8  A6 0C     LDX $0C
  $D7AA  A5 12     LDA $12
  $D7AC  18        CLC 
  $D7AD  69 1C     ADC #$1C
  $D7AF  9D 80 01  STA $0180,X
  $D7B2  E8        INX 
  $D7B3  A5 11     LDA $11
  $D7B5  9D 80 01  STA $0180,X
  $D7B8  E8        INX 
  $D7B9  B1 11     LDA ($11),Y
  $D7BB  9D 80 01  STA $0180,X
  $D7BE  E8        INX 
  $D7BF  A9 FF     LDA #$FF
  $D7C1  9D 80 01  STA $0180,X
  $D7C4  E8        INX 
  $D7C5  86 0C     STX $0C
  $D7C7  A6 47     LDX $47
  $D7C9  60        RTS 

AdvanceNTPointer:
  $D7CA  18        CLC 
  $D7CB  65 11     ADC $11
  $D7CD  85 11     STA $11
  $D7CF  90 02     BCC $D7D3
  $D7D1  E6 12     INC $12
  $D7D3  60        RTS 

WriteNametable:
  $D7D4  A9 00     LDA #$00
  $D7D6  85 11     STA $11
  $D7D8  A8        TAY 
  $D7D9  A9 04     LDA #$04
  $D7DB  85 12     STA $12
  $D7DD  20 91 D7  JSR $D791
  $D7E0  A9 01     LDA #$01
  $D7E2  20 CA D7  JSR AdvanceNTPointer
  $D7E5  A5 12     LDA $12
  $D7E7  C9 08     CMP #$08
  $D7E9  D0 F2     BNE $D7DD
  $D7EB  60        RTS 

NametableClearAll:
  $D7EC  A2 00     LDX #$00
  $D7EE  A9 11     LDA #$11
  $D7F0  9D 00 04  STA $0400,X
  $D7F3  9D 00 05  STA $0500,X
  $D7F6  9D 00 06  STA $0600,X
  $D7F9  9D 00 07  STA $0700,X
  $D7FC  E8        INX 
  $D7FD  D0 F1     BNE $D7F0
  $D7FF  A9 00     LDA #$00
  $D801  A2 C0     LDX #$C0
  $D803  9D 00 07  STA $0700,X
  $D806  E8        INX 
  $D807  D0 FA     BNE $D803
  $D809  A6 56     LDX $56
  $D80B  A4 57     LDY $57
  $D80D  20 FC D5  JSR CalcPPUAddr
  $D810  85 12     STA $12
  $D812  84 11     STY $11
  $D814  A4 5B     LDY $5B
  $D816  88        DEY 
  $D817  A9 00     LDA #$00
  $D819  91 11     STA ($11),Y
  $D81B  88        DEY 
  $D81C  10 F9     BPL $D817
  $D81E  C6 5A     DEC $5A
  $D820  F0 08     BEQ $D82A
  $D822  A9 20     LDA #$20
  $D824  20 CA D7  JSR AdvanceNTPointer
  $D827  4C 14 D8  JMP $D814
  $D82A  60        RTS 

DrawNametableTile:
  $D82B  48        PHA  ; DrawNametableTile(A=tile_type 0-15
  $D82C  85 00     STA $00
  $D82E  20 33 D7  JSR PixelToTile
  $D831  86 47     STX $47
  $D833  84 48     STY $48
  $D835  A4 00     LDY $00
  $D837  B9 69 DB  LDA TileAttrTable,Y
  $D83A  85 04     STA $04
  $D83C  A4 48     LDY $48
  $D83E  20 13 D6  JSR $D613
  $D841  A5 48     LDA $48
  $D843  29 FE     AND #$FE
  $D845  A8        TAY 
  $D846  A5 47     LDA $47
  $D848  29 FE     AND #$FE
  $D84A  AA        TAX 
  $D84B  20 29 D7  JSR $D729
  $D84E  68        PLA 
  $D84F  0A        ASL 
  $D850  0A        ASL 
  $D851  AA        TAX 
  $D852  BD 79 DB  LDA TileCHRTable,X
  $D855  E8        INX 
  $D856  20 A4 D7  JSR $D7A4
  $D859  A9 01     LDA #$01
  $D85B  20 CA D7  JSR AdvanceNTPointer
  $D85E  BD 79 DB  LDA TileCHRTable,X
  $D861  E8        INX 
  $D862  20 A4 D7  JSR $D7A4
  $D865  A9 1F     LDA #$1F
  $D867  20 CA D7  JSR AdvanceNTPointer
  $D86A  BD 79 DB  LDA TileCHRTable,X
  $D86D  E8        INX 
  $D86E  20 A4 D7  JSR $D7A4
  $D871  A9 01     LDA #$01
  $D873  20 CA D7  JSR AdvanceNTPointer
  $D876  BD 79 DB  LDA TileCHRTable,X
  $D879  E8        INX 
  $D87A  20 A4 D7  JSR $D7A4
  $D87D  60        RTS 

DrawBigSpriteTile:
  $D87E  48        PHA 
  $D87F  20 5F D9  JSR WaitVBlank
  $D882  68        PLA 
  $D883  86 5D     STX $5D
  $D885  AA        TAX 
  $D886  98        TYA 
  $D887  18        CLC 
  $D888  69 20     ADC #$20
  $D88A  85 5E     STA $5E
  $D88C  A9 00     LDA #$00
  $D88E  85 11     STA $11
  $D890  A9 10     LDA #$10
  $D892  85 12     STA $12
  $D894  CA        DEX 
  $D895  30 08     BMI $D89F
  $D897  A9 10     LDA #$10
  $D899  20 CA D7  JSR AdvanceNTPointer
  $D89C  4C 94 D8  JMP $D894
  $D89F  A5 12     LDA $12
  $D8A1  8D 06 20  STA $2006
  $D8A4  A5 11     LDA $11
  $D8A6  8D 06 20  STA $2006
  $D8A9  AD 07 20  LDA $2007
  $D8AC  A9 08     LDA #$08
  $D8AE  85 5A     STA $5A
  $D8B0  AD 07 20  LDA $2007
  $D8B3  48        PHA 
  $D8B4  C6 5A     DEC $5A
  $D8B6  D0 F8     BNE $D8B0
  $D8B8  A9 08     LDA #$08
  $D8BA  85 5A     STA $5A
  $D8BC  68        PLA 
  $D8BD  85 02     STA $02
  $D8BF  A9 80     LDA #$80
  $D8C1  85 03     STA $03
  $D8C3  A6 5D     LDX $5D
  $D8C5  A4 5E     LDY $5E
  $D8C7  20 3E D7  JSR $D73E
  $D8CA  A5 02     LDA $02
  $D8CC  25 03     AND $03
  $D8CE  F0 06     BEQ $D8D6
  $D8D0  20 84 D7  JSR $D784
  $D8D3  4C D9 D8  JMP $D8D9
  $D8D6  20 6D D7  JSR $D76D
  $D8D9  A5 5D     LDA $5D
  $D8DB  18        CLC 
  $D8DC  69 04     ADC #$04
  $D8DE  85 5D     STA $5D
  $D8E0  46 03     LSR $03
  $D8E2  90 DF     BCC $D8C3
  $D8E4  A5 5D     LDA $5D
  $D8E6  38        SEC 
  $D8E7  E9 20     SBC #$20
  $D8E9  85 5D     STA $5D
  $D8EB  A5 5E     LDA $5E
  $D8ED  38        SEC 
  $D8EE  E9 04     SBC #$04
  $D8F0  85 5E     STA $5E
  $D8F2  C6 5A     DEC $5A
  $D8F4  D0 C6     BNE $D8BC
  $D8F6  60        RTS 

DrawSpriteString:
  $D8F7  A0 00     LDY #$00
  $D8F9  84 5F     STY $5F
  $D8FB  B1 13     LDA ($13),Y
  $D8FD  C9 FF     CMP #$FF
  $D8FF  F0 19     BEQ $D91A
  $D901  C8        INY 
  $D902  84 5F     STY $5F
  $D904  A6 56     LDX $56
  $D906  A4 57     LDY $57
  $D908  18        CLC 
  $D909  65 60     ADC $60
  $D90B  20 7E D8  JSR DrawBigSpriteTile
  $D90E  A5 56     LDA $56
  $D910  18        CLC 
  $D911  69 20     ADC #$20
  $D913  85 56     STA $56
  $D915  A4 5F     LDY $5F
  $D917  4C FB D8  JMP $D8FB
  $D91A  60        RTS 

DrawRowTiles:
  $D91B  A0 00     LDY #$00 ; DrawRowTiles: draw byte stream from ($13/$14) ptr horizontally; per non-FF byte: calc PPU addr $D5FC(col=$5D row=$5E); enqueue to PPU queue $0180; INC $5D; set $0313=$0314=1; until FF; RTS
  $D91D  84 5F     STY $5F
  $D91F  A4 5F     LDY $5F
  $D921  B1 13     LDA ($13),Y
  $D923  C9 FF     CMP #$FF
  $D925  F0 37     BEQ $D95E
  $D927  48        PHA 
  $D928  A6 5D     LDX $5D
  $D92A  A4 5E     LDY $5E
  $D92C  20 FC D5  JSR CalcPPUAddr
  $D92F  18        CLC 
  $D930  65 05     ADC $05
  $D932  A6 0C     LDX $0C
  $D934  9D 80 01  STA $0180,X
  $D937  E8        INX 
  $D938  98        TYA 
  $D939  9D 80 01  STA $0180,X
  $D93C  E8        INX 
  $D93D  68        PLA 
  $D93E  9D 80 01  STA $0180,X
  $D941  E8        INX 
  $D942  A9 FF     LDA #$FF
  $D944  9D 80 01  STA $0180,X
  $D947  E8        INX 
  $D948  86 0C     STX $0C
  $D94A  A9 01     LDA #$01
  $D94C  8D 13 03  STA $0313
  $D94F  8D 14 03  STA $0314
  $D952  A2 0C     LDX #$0C
  $D954  20 66 D9  JSR WaitVBlankX
  $D957  E6 5D     INC $5D
  $D959  E6 5F     INC $5F
  $D95B  4C 1F D9  JMP $D91F
  $D95E  60        RTS 

WaitVBlank:
  $D95F  A5 0B     LDA $0B
  $D961  C5 0B     CMP $0B
  $D963  F0 FC     BEQ $D961
  $D965  60        RTS 

WaitVBlankX:
  $D966  20 5F D9  JSR WaitVBlank
  $D969  CA        DEX 
  $D96A  D0 FA     BNE WaitVBlankX
  $D96C  60        RTS 

NMI_Scroll:
  $D96D  A6 0C     LDX $0C
  $D96F  A9 00     LDA #$00
  $D971  9D 80 01  STA $0180,X
  $D974  AA        TAX 
  $D975  E4 0C     CPX $0C
  $D977  F0 26     BEQ $D99F
  $D979  BD 80 01  LDA $0180,X
  $D97C  E8        INX 
  $D97D  8D 06 20  STA $2006
  $D980  BD 80 01  LDA $0180,X
  $D983  E8        INX 
  $D984  8D 06 20  STA $2006
  $D987  BD 80 01  LDA $0180,X
  $D98A  E8        INX 
  $D98B  C9 FF     CMP #$FF
  $D98D  D0 0A     BNE $D999
  $D98F  BD 80 01  LDA $0180,X
  $D992  C9 FF     CMP #$FF
  $D994  D0 DF     BNE $D975
  $D996  BD 7F 01  LDA $017F,X
  $D999  8D 07 20  STA $2007
  $D99C  4C 87 D9  JMP $D987
  $D99F  A9 00     LDA #$00
  $D9A1  85 0C     STA $0C
  $D9A3  20 39 D4  JSR ResetPPUAddr
  $D9A6  60        RTS 

SkipLeadingZeros:
  $D9A7  B9 00 00  LDA $0000,Y
  $D9AA  D0 05     BNE $D9B1
  $D9AC  C8        INY 
  $D9AD  E8        INX 
  $D9AE  4C A7 D9  JMP SkipLeadingZeros
  $D9B1  C9 FF     CMP #$FF
  $D9B3  D0 08     BNE $D9BD
  $D9B5  A5 6B     LDA $6B
  $D9B7  D0 02     BNE $D9BB
  $D9B9  CA        DEX 
  $D9BA  88        DEY 
  $D9BB  CA        DEX 
  $D9BC  88        DEY 
  $D9BD  A9 00     LDA #$00
  $D9BF  85 12     STA $12
  $D9C1  84 11     STY $11
  $D9C3  60        RTS 

DrawHiScoreSprite:
  $D9C4  A9 30     LDA #$30
  $D9C6  85 56     STA $56
  $D9C8  A9 64     LDA #$64
  $D9CA  85 57     STA $57
  $D9CC  A9 30     LDA #$30
  $D9CE  85 60     STA $60
  $D9D0  A0 3E     LDY #$3E
  $D9D2  B9 00 00  LDA $0000,Y
  $D9D5  D0 0B     BNE $D9E2
  $D9D7  C8        INY 
  $D9D8  A5 56     LDA $56
  $D9DA  18        CLC 
  $D9DB  69 20     ADC #$20
  $D9DD  85 56     STA $56
  $D9DF  4C D2 D9  JMP $D9D2
  $D9E2  A9 00     LDA #$00
  $D9E4  85 14     STA $14
  $D9E6  84 13     STY $13
  $D9E8  20 F7 D8  JSR DrawSpriteString
  $D9EB  A9 00     LDA #$00
  $D9ED  85 60     STA $60
  $D9EF  60        RTS 

CompareAndUpdateHiScore:
  $D9F0  A2 00     LDX #$00 ; CompareAndUpdateHiScore: compare P1 score ($15-$1B 7 bytes BCD) vs hi-score ($3D-$43); if P1>hi update $3D-$43 Y=1; compare P2 ($1D-$23); if P2>hi update Y=$FF; else Y=0; only caller: $C216
  $D9F2  A0 00     LDY #$00
  $D9F4  B5 15     LDA $15,X
  $D9F6  D5 3D     CMP $3D,X
  $D9F8  D0 08     BNE $DA02
  $D9FA  E8        INX 
  $D9FB  E0 07     CPX #$07
  $D9FD  F0 12     BEQ $DA11
  $D9FF  4C F4 D9  JMP $D9F4
  $DA02  30 0D     BMI $DA11
  $DA04  A2 00     LDX #$00
  $DA06  B5 15     LDA $15,X
  $DA08  95 3D     STA $3D,X
  $DA0A  E8        INX 
  $DA0B  E0 07     CPX #$07
  $DA0D  D0 F7     BNE $DA06
  $DA0F  A0 01     LDY #$01
  $DA11  A2 00     LDX #$00
  $DA13  B5 1D     LDA $1D,X
  $DA15  D5 3D     CMP $3D,X
  $DA17  D0 08     BNE $DA21
  $DA19  E8        INX 
  $DA1A  E0 07     CPX #$07
  $DA1C  F0 12     BEQ $DA30
  $DA1E  4C 13 DA  JMP $DA13
  $DA21  30 0D     BMI $DA30
  $DA23  A2 00     LDX #$00
  $DA25  B5 1D     LDA $1D,X
  $DA27  95 3D     STA $3D,X
  $DA29  E8        INX 
  $DA2A  E0 07     CPX #$07
  $DA2C  D0 F7     BNE $DA25
  $DA2E  A0 FF     LDY #$FF
  $DA30  60        RTS 

ScoreAdd:
  $DA31  8A        TXA  ; ScoreAdd: X=player slot (2=P1
  $DA32  0A        ASL 
  $DA33  0A        ASL 
  $DA34  0A        ASL 
  $DA35  18        CLC 
  $DA36  69 06     ADC #$06
  $DA38  AA        TAX 
  $DA39  A0 06     LDY #$06
  $DA3B  18        CLC 
  $DA3C  B9 35 00  LDA $0035,Y
  $DA3F  75 15     ADC $15,X
  $DA41  C9 0A     CMP #$0A
  $DA43  30 07     BMI $DA4C
  $DA45  38        SEC 
  $DA46  E9 0A     SBC #$0A
  $DA48  38        SEC 
  $DA49  4C 4D DA  JMP $DA4D
  $DA4C  18        CLC 
  $DA4D  95 15     STA $15,X
  $DA4F  CA        DEX 
  $DA50  88        DEY 
  $DA51  10 E9     BPL $DA3C
  $DA53  B5 16     LDA $16,X
  $DA55  F0 0A     BEQ $DA61
  $DA57  A9 09     LDA #$09
  $DA59  95 17     STA $17,X
  $DA5B  95 18     STA $18,X
  $DA5D  95 19     STA $19,X
  $DA5F  95 1A     STA $1A,X
  $DA61  60        RTS 

SetScoreWeight:
  $DA62  85 00     STA $00 ; SetScoreWeight: A=nibble-BCD value; ZeroSlot at $35; A!=0: $3A=A>>4(hi tens) $3B=A&$0F(lo units); A==0: $38=1(free tank flag)
  $DA64  A2 35     LDX #$35
  $DA66  20 7F DA  JSR ZeroSlot
  $DA69  A5 00     LDA $00
  $DA6B  F0 0D     BEQ $DA7A
  $DA6D  29 0F     AND #$0F
  $DA6F  85 3A     STA $3A
  $DA71  A5 00     LDA $00
  $DA73  4A        LSR 
  $DA74  4A        LSR 
  $DA75  4A        LSR 
  $DA76  4A        LSR 
  $DA77  85 39     STA $39
  $DA79  60        RTS 
  $DA7A  A9 01     LDA #$01
  $DA7C  85 38     STA $38
  $DA7E  60        RTS 

ZeroSlot:
  $DA7F  A9 00     LDA #$00
  $DA81  95 00     STA $00,X
  $DA83  95 01     STA $01,X
  $DA85  95 02     STA $02,X
  $DA87  95 03     STA $03,X
  $DA89  95 04     STA $04,X
  $DA8B  95 05     STA $05,X
  $DA8D  95 06     STA $06,X
  $DA8F  A9 FF     LDA #$FF
  $DA91  95 07     STA $07,X
  $DA93  60        RTS 

BCD_Div:
  $DA94  85 00     STA $00
  $DA96  A2 35     LDX #$35
  $DA98  20 7F DA  JSR ZeroSlot
  $DA9B  A5 00     LDA $00
  $DA9D  C9 0A     CMP #$0A
  $DA9F  90 08     BCC $DAA9
  $DAA1  38        SEC 
  $DAA2  E9 0A     SBC #$0A
  $DAA4  E6 3A     INC $3A
  $DAA6  4C 9D DA  JMP $DA9D
  $DAA9  85 3B     STA $3B
  $DAAB  A5 3A     LDA $3A
  $DAAD  C9 0A     CMP #$0A
  $DAAF  90 08     BCC $DAB9
  $DAB1  38        SEC 
  $DAB2  E9 0A     SBC #$0A
  $DAB4  85 3A     STA $3A
  $DAB6  4C AD DA  JMP $DAAD
  $DAB9  60        RTS 

DrawEntityTile:
  $DABA  8A        TXA 
  $DABB  85 47     STA $47
  $DABD  18        CLC 
  $DABE  69 03     ADC #$03
  $DAC0  AA        TAX 
  $DAC1  98        TYA 
  $DAC2  38        SEC 
  $DAC3  E9 08     SBC #$08
  $DAC5  85 48     STA $48
  $DAC7  20 26 D7  JSR PPUAddrFromXY
  $DACA  B1 11     LDA ($11),Y
  $DACC  C9 22     CMP #$22
  $DACE  D0 06     BNE $DAD6
  $DAD0  A5 04     LDA $04
  $DAD2  05 6E     ORA $6E
  $DAD4  85 04     STA $04
  $DAD6  A6 0D     LDX $0D
  $DAD8  A5 48     LDA $48
  $DADA  9D 00 02  STA $0200,X
  $DADD  A5 53     LDA $53
  $DADF  9D 01 02  STA $0201,X
  $DAE2  A5 04     LDA $04
  $DAE4  9D 02 02  STA $0202,X
  $DAE7  A5 47     LDA $47
  $DAE9  9D 03 02  STA $0203,X
  $DAEC  8A        TXA 
  $DAED  18        CLC 
  $DAEE  65 0E     ADC $0E
  $DAF0  85 0D     STA $0D
  $DAF2  60        RTS 

BulletExplosionDraw:
  $DAF3  0A        ASL  ; BulletExplode helper: encodes dir into tile offset; adjusts X by -5; calls DrawEntityTile
  $DAF4  18        CLC 
  $DAF5  65 53     ADC $53
  $DAF7  85 53     STA $53
  $DAF9  8A        TXA 
  $DAFA  38        SEC 
  $DAFB  E9 05     SBC #$05
  $DAFD  AA        TAX 
  $DAFE  20 BA DA  JSR DrawEntityTile
  $DB01  60        RTS 

DrawTank2x2:
  $DB02  0A        ASL 
  $DB03  0A        ASL 
  $DB04  0A        ASL 
  $DB05  18        CLC 
  $DB06  65 53     ADC $53
  $DB08  85 53     STA $53

DrawTank:
  $DB0A  86 54     STX $54
  $DB0C  84 55     STY $55
  $DB0E  8A        TXA 
  $DB0F  38        SEC 
  $DB10  E9 08     SBC #$08
  $DB12  AA        TAX 
  $DB13  20 BA DA  JSR DrawEntityTile
  $DB16  E6 53     INC $53
  $DB18  E6 53     INC $53
  $DB1A  A6 54     LDX $54
  $DB1C  A4 55     LDY $55
  $DB1E  20 BA DA  JSR DrawEntityTile
  $DB21  60        RTS 

NMI_Sub4:
  $DB22  A6 0D     LDX $0D
  $DB24  A5 0E     LDA $0E
  $DB26  49 FF     EOR #$FF
  $DB28  18        CLC 
  $DB29  69 01     ADC #$01
  $DB2B  85 0E     STA $0E
  $DB2D  8A        TXA 
  $DB2E  18        CLC 
  $DB2F  65 0E     ADC $0E
  $DB31  AA        TAX 
  $DB32  A9 F0     LDA #$F0
  $DB34  9D 00 02  STA $0200,X
  $DB37  E0 04     CPX #$04
  $DB39  D0 F2     BNE $DB2D
  $DB3B  86 0D     STX $0D
  $DB3D  60        RTS 

QueuePaletteWrite:
  $DB3E  20 6A D4  JSR PaletteApplyDIP
  $DB41  A6 0C     LDX $0C
  $DB43  48        PHA 
  $DB44  A9 3F     LDA #$3F
  $DB46  9D 80 01  STA $0180,X
  $DB49  E8        INX 
  $DB4A  98        TYA 
  $DB4B  9D 80 01  STA $0180,X
  $DB4E  E8        INX 
  $DB4F  68        PLA 
  $DB50  9D 80 01  STA $0180,X
  $DB53  E8        INX 
  $DB54  A9 FF     LDA #$FF
  $DB56  9D 80 01  STA $0180,X
  $DB59  E8        INX 
  $DB5A  86 0C     STX $0C
  $DB5C  60        RTS 

SignFn:
  $DB5D  F0 09     BEQ $DB68
  $DB5F  B0 05     BCS $DB66
  $DB61  A9 FF     LDA #$FF
  $DB63  4C 68 DB  JMP $DB68
  $DB66  A9 01     LDA #$01
  $DB68  60        RTS 

TileAttrTable:
  $DB69  00        BRK  ; TileAttrTable[16]: palette slot (0-3) per metatile type; types 0-4=pal0(open/brick)
  $DB6A  00        BRK 
  $DB6B  00        BRK 
  $DB6C  00        BRK 
  $DB6D  00        BRK 
  $DB6E  03 03     SLO ($03,X)
  $DB70  03 03     SLO ($03,X)
  $DB72  03 01     SLO ($01,X)
  $DB74  02        ??? 
  $DB75  03 00     SLO ($00,X)
  $DB77  00        BRK 
  $DB78  00        BRK 

TileCHRTable:
  $DB79  00        BRK  ; TileCHRTable[16*4]: 4 CHR tile IDs (TL TR BL BR) per 2x2 metatile type; tile $0F=open ground (all zeros)
  $DB7A  0F 00 0F  SLO $0F00
  $DB7D  00        BRK 
  $DB7E  00        BRK 
  $DB7F  0F 0F 0F  SLO $0F0F
  $DB82  00        BRK 
  $DB83  0F 00 0F  SLO $0F00
  $DB86  0F 00 00  SLO $0000
  $DB89  0F 0F 0F  SLO $0F0F
  $DB8C  0F 20 10  SLO $1020
  $DB8F  20 10 20  JSR $2010
  $DB92  20 10 10  JSR $1010
  $DB95  10 20     BPL $DBB7
  $DB97  10 20     BPL CheckPlayersMoving
  $DB99  10 10     BPL $DBAB
  $DB9B  20 20 10  JSR $1020
  $DB9E  10 10     BPL $DBB0
  $DBA0  10 12     BPL $DBB4
  $DBA2  12        ??? 
  $DBA3  12        ??? 
  $DBA4  12        ??? 
  $DBA5  22        ??? 
  $DBA6  22        ??? 
  $DBA7  22        ??? 
  $DBA8  22        ??? 
  $DBA9  21 21     AND ($21,X)
  $DBAB  21 21     AND ($21,X)
  $DBAD  00        BRK 
  $DBAE  00        BRK 
  $DBAF  00        BRK 
  $DBB0  00        BRK 
  $DBB1  00        BRK 
  $DBB2  00        BRK 
  $DBB3  00        BRK 
  $DBB4  00        BRK 
  $DBB5  00        BRK 
  $DBB6  00        BRK 
  $DBB7  00        BRK 
  $DBB8  00        BRK 

CheckPlayersMoving:
  $DBB9  AD 11 03  LDA $0311
  $DBBC  F0 14     BEQ $DBD2
  $DBBE  A2 00     LDX #$00
  $DBC0  20 E6 DB  JSR PlayerMovingCheck
  $DBC3  D0 20     BNE $DBE5
  $DBC5  A2 01     LDX #$01
  $DBC7  20 E6 DB  JSR PlayerMovingCheck
  $DBCA  D0 19     BNE $DBE5
  $DBCC  A9 00     LDA #$00
  $DBCE  8D 11 03  STA $0311
  $DBD1  60        RTS 
  $DBD2  A2 00     LDX #$00
  $DBD4  20 E6 DB  JSR PlayerMovingCheck
  $DBD7  D0 07     BNE $DBE0
  $DBD9  A2 01     LDX #$01
  $DBDB  20 E6 DB  JSR PlayerMovingCheck
  $DBDE  F0 05     BEQ $DBE5
  $DBE0  A9 01     LDA #$01
  $DBE2  8D 11 03  STA $0311
  $DBE5  60        RTS 

PlayerMovingCheck:
  $DBE6  B5 06     LDA $06,X
  $DBE8  29 F0     AND #$F0
  $DBEA  F0 07     BEQ $DBF3
  $DBEC  B5 A0     LDA $A0,X
  $DBEE  F0 03     BEQ $DBF3
  $DBF0  A9 01     LDA #$01
  $DBF2  60        RTS 
  $DBF3  A9 00     LDA #$00
  $DBF5  60        RTS 

EnemySpawnDispatch:
  $DBF6  A5 82     LDA $82
  $DBF8  F0 03     BEQ $DBFD
  $DBFA  C6 82     DEC $82
  $DBFC  60        RTS 
  $DBFD  A5 7F     LDA $7F
  $DBFF  F0 21     BEQ $DC22
  $DC01  A5 6C     LDA $6C
  $DC03  85 5A     STA $5A
  $DC05  A6 5A     LDX $5A
  $DC07  B5 A0     LDA $A0,X
  $DC09  D0 0F     BNE $DC1A
  $DC0B  A5 84     LDA $84
  $DC0D  85 82     STA $82
  $DC0F  20 17 E4  JSR PlayerRespawn
  $DC12  C6 7F     DEC $7F
  $DC14  A5 7F     LDA $7F
  $DC16  20 AE C7  JSR DrawHUDKillIconB
  $DC19  60        RTS 
  $DC1A  C6 5A     DEC $5A
  $DC1C  A5 5A     LDA $5A
  $DC1E  C9 01     CMP #$01
  $DC20  D0 E3     BNE $DC05
  $DC22  60        RTS 

PlayerInputUpdate:
  $DC23  A5 0B     LDA $0B ; PlayerInputUpdate (was mislabeled EnemyAI): processes P1(X=0) and P2(X=1) tanks each frame; frame-throttled (odd OR frame%4==0); LDX #$01 loop↓X=0; checks $6F
  $DC25  29 01     AND #$01
  $DC27  D0 06     BNE $DC2F
  $DC29  A5 0B     LDA $0B
  $DC2B  29 03     AND #$03
  $DC2D  D0 6F     BNE NullHandler
  $DC2F  A2 01     LDX #$01 ; PlayerInputUpdate loop start: LDX #$01; BPL loop checks active state ($80-$DF); if $6F
  $DC31  B5 A0     LDA $A0,X
  $DC33  10 66     BPL $DC9B
  $DC35  C9 E0     CMP #$E0
  $DC37  B0 62     BCS $DC9B
  $DC39  B5 6F     LDA $6F,X
  $DC3B  F0 05     BEQ $DC42
  $DC3D  D6 6F     DEC $6F,X
  $DC3F  4C 54 DC  JMP $DC54
  $DC42  BD 03 01  LDA $0103,X ; AI-mode fire timer: if $0103
  $DC45  10 04     BPL $DC4B
  $DC47  29 10     AND #$10
  $DC49  D0 09     BNE $DC54
  $DC4B  B5 06     LDA $06,X ; read player directional input: LDA $06
  $DC4D  20 0E E5  JSR DecodeDirection
  $DC50  85 00     STA $00
  $DC52  10 0E     BPL $DC62
  $DC54  A9 80     LDA #$80 ; no-direction path: SetStateLo($80)+ORA $08 into $A0
  $DC56  20 DD E4  JSR SetStateLo
  $DC59  A9 08     LDA #$08
  $DC5B  15 A0     ORA $A0,X
  $DC5D  95 A0     STA $A0,X
  $DC5F  4C 9B DC  JMP $DC9B
  $DC62  BD 03 01  LDA $0103,X
  $DC65  10 0E     BPL $DC75
  $DC67  29 1F     AND #$1F
  $DC69  D0 0A     BNE $DC75
  $DC6B  A9 9C     LDA #$9C
  $DC6D  9D 03 01  STA $0103,X
  $DC70  A9 01     LDA #$01
  $DC72  8D 10 03  STA $0310
  $DC75  B5 A0     LDA $A0,X ; direction-vs-state check: if new dir==current dir(bits0-1) skip snap; if new dir==opposite dir skip snap; else snap X/Y

PlayerDirChangeCheck:
  $DC77  29 03     AND #$03
  $DC79  C5 00     CMP $00
  $DC7B  F0 18     BEQ $DC95
  $DC7D  49 02     EOR #$02
  $DC7F  C5 00     CMP $00
  $DC81  F0 12     BEQ $DC95

PlayerGridSnap:
  $DC83  B5 90     LDA $90,X ; grid-snap on turn: $90
  $DC85  18        CLC 
  $DC86  69 04     ADC #$04
  $DC88  29 F8     AND #$F8
  $DC8A  95 90     STA $90,X
  $DC8C  B5 98     LDA $98,X
  $DC8E  18        CLC 
  $DC8F  69 04     ADC #$04
  $DC91  29 F8     AND #$F8
  $DC93  95 98     STA $98,X
  $DC95  A5 00     LDA $00 ; commit player direction: A=decoded_dir|$A0; STA $A0
  $DC97  09 A0     ORA #$A0
  $DC99  95 A0     STA $A0,X
  $DC9B  CA        DEX 
  $DC9C  10 93     BPL $DC31

NullHandler:
  $DC9E  60        RTS 

EntityMovement:
  $DC9F  A9 07     LDA #$07
  $DCA1  85 5A     STA $5A
  $DCA3  AD 00 01  LDA $0100
  $DCA6  F0 09     BEQ $DCB1
  $DCA8  A5 0B     LDA $0B
  $DCAA  29 3F     AND #$3F
  $DCAC  D0 03     BNE $DCB1
  $DCAE  CE 00 01  DEC $0100
  $DCB1  A6 5A     LDX $5A
  $DCB3  E0 02     CPX #$02
  $DCB5  B0 0F     BCS $DCC6
  $DCB7  A5 0B     LDA $0B
  $DCB9  29 01     AND #$01
  $DCBB  D0 2C     BNE $DCE9
  $DCBD  A5 0B     LDA $0B
  $DCBF  29 03     AND #$03
  $DCC1  D0 29     BNE $DCEC
  $DCC3  4C E9 DC  JMP $DCE9
  $DCC6  AD 00 01  LDA $0100
  $DCC9  F0 08     BEQ $DCD3
  $DCCB  B5 A0     LDA $A0,X
  $DCCD  10 04     BPL $DCD3
  $DCCF  C9 E0     CMP #$E0
  $DCD1  90 19     BCC $DCEC
  $DCD3  B5 A8     LDA $A8,X
  $DCD5  29 F0     AND #$F0
  $DCD7  C9 A0     CMP #$A0
  $DCD9  F0 0E     BEQ $DCE9
  $DCDB  A5 85     LDA $85
  $DCDD  C9 41     CMP #$41
  $DCDF  B0 08     BCS $DCE9
  $DCE1  A5 5A     LDA $5A
  $DCE3  45 0B     EOR $0B
  $DCE5  29 01     AND #$01
  $DCE7  F0 03     BEQ $DCEC
  $DCE9  20 F1 DC  JSR EntityDispatch
  $DCEC  C6 5A     DEC $5A
  $DCEE  10 C1     BPL $DCB1
  $DCF0  60        RTS 

EntityDispatch:
  $DCF1  B5 A0     LDA $A0,X ; EntityDispatch: $A0
  $DCF3  4A        LSR 
  $DCF4  4A        LSR 
  $DCF5  4A        LSR 
  $DCF6  29 FE     AND #$FE
  $DCF8  A8        TAY 
  $DCF9  B9 55 E5  LDA MovementDispatch,Y
  $DCFC  85 11     STA $11
  $DCFE  B9 56 E5  LDA $E556,Y
  $DD01  85 12     STA $12
  $DD03  6C 11 00  JMP ($0011)

ShieldHandler:
  $DD06  E0 02     CPX #$02
  $DD08  B0 15     BCS $DD1F
  $DD0A  BD 03 01  LDA $0103,X
  $DD0D  10 10     BPL $DD1F
  $DD0F  29 7F     AND #$7F
  $DD11  F0 0C     BEQ $DD1F
  $DD13  DE 03 01  DEC $0103,X
  $DD16  B5 B0     LDA $B0,X
  $DD18  49 04     EOR #$04
  $DD1A  95 B0     STA $B0,X
  $DD1C  4C 4B DD  JMP $DD4B
  $DD1F  B5 A0     LDA $A0,X
  $DD21  38        SEC 
  $DD22  E9 04     SBC #$04
  $DD24  95 A0     STA $A0,X
  $DD26  29 0C     AND #$0C
  $DD28  D0 05     BNE $DD2F
  $DD2A  A9 A0     LDA #$A0
  $DD2C  20 DD E4  JSR SetStateLo
  $DD2F  60        RTS 

MoveGridSnap:
  $DD30  E0 02     CPX #$02 ; MoveGridSnap: entity coords ($90
  $DD32  90 17     BCC $DD4B
  $DD34  B5 90     LDA $90,X
  $DD36  29 07     AND #$07
  $DD38  D0 11     BNE $DD4B
  $DD3A  B5 98     LDA $98,X
  $DD3C  29 07     AND #$07
  $DD3E  D0 0B     BNE $DD4B
  $DD40  20 7C D3  JSR RNG
  $DD43  29 0F     AND #$0F
  $DD45  D0 04     BNE $DD4B
  $DD47  20 26 DF  JSR SpeedCtrlMove
  $DD4A  60        RTS 
  $DD4B  B5 A0     LDA $A0,X ; MoveGridSnap_ProbeSetup: $58=|dx|*8 $59=|dy|*8 $56=entity_X+dx $57=entity_Y+dy; probe1=(X+$58+$59
  $DD4D  29 03     AND #$03
  $DD4F  A8        TAY 
  $DD50  B9 2D E5  LDA DirDeltaX,Y
  $DD53  0A        ASL 
  $DD54  0A        ASL 
  $DD55  0A        ASL 
  $DD56  85 59     STA $59
  $DD58  B9 2D E5  LDA DirDeltaX,Y
  $DD5B  18        CLC 
  $DD5C  75 98     ADC $98,X
  $DD5E  85 57     STA $57
  $DD60  B9 29 E5  LDA DirDeltaY,Y
  $DD63  0A        ASL 
  $DD64  0A        ASL 
  $DD65  0A        ASL 
  $DD66  85 58     STA $58
  $DD68  B9 29 E5  LDA DirDeltaY,Y
  $DD6B  18        CLC 
  $DD6C  75 90     ADC $90,X
  $DD6E  85 56     STA $56
  $DD70  18        CLC 
  $DD71  65 58     ADC $58
  $DD73  18        CLC 
  $DD74  65 59     ADC $59
  $DD76  20 22 DE  JSR ClampXMove
  $DD79  AA        TAX 
  $DD7A  A5 57     LDA $57
  $DD7C  18        CLC 
  $DD7D  65 58     ADC $58
  $DD7F  18        CLC 
  $DD80  65 59     ADC $59
  $DD82  20 2A DE  JSR ClampYMove
  $DD85  A8        TAY 
  $DD86  20 26 D7  JSR PPUAddrFromXY
  $DD89  B1 11     LDA ($11),Y
  $DD8B  30 38     BMI $DDC5
  $DD8D  F0 04     BEQ $DD93
  $DD8F  C9 20     CMP #$20
  $DD91  90 32     BCC $DDC5
  $DD93  A5 56     LDA $56
  $DD95  18        CLC 
  $DD96  65 58     ADC $58
  $DD98  38        SEC 
  $DD99  E5 59     SBC $59
  $DD9B  20 22 DE  JSR ClampXMove
  $DD9E  AA        TAX 
  $DD9F  A5 57     LDA $57
  $DDA1  18        CLC 
  $DDA2  65 59     ADC $59
  $DDA4  38        SEC 
  $DDA5  E5 58     SBC $58
  $DDA7  20 2A DE  JSR ClampYMove
  $DDAA  A8        TAY 
  $DDAB  20 26 D7  JSR PPUAddrFromXY
  $DDAE  B1 11     LDA ($11),Y
  $DDB0  30 13     BMI $DDC5
  $DDB2  F0 04     BEQ $DDB8
  $DDB4  C9 20     CMP #$20
  $DDB6  90 0D     BCC $DDC5
  $DDB8  A6 5A     LDX $5A
  $DDBA  A5 56     LDA $56
  $DDBC  95 90     STA $90,X
  $DDBE  A5 57     LDA $57
  $DDC0  95 98     STA $98,X
  $DDC2  4C DD DD  JMP $DDDD
  $DDC5  A6 5A     LDX $5A
  $DDC7  E0 02     CPX #$02
  $DDC9  90 12     BCC $DDDD
  $DDCB  20 7C D3  JSR RNG
  $DDCE  29 03     AND #$03
  $DDD0  F0 12     BEQ $DDE4
  $DDD2  A9 80     LDA #$80
  $DDD4  20 DD E4  JSR SetStateLo
  $DDD7  A9 08     LDA #$08
  $DDD9  15 A0     ORA $A0,X
  $DDDB  95 A0     STA $A0,X
  $DDDD  B5 B0     LDA $B0,X
  $DDDF  49 04     EOR #$04
  $DDE1  95 B0     STA $B0,X
  $DDE3  60        RTS 
  $DDE4  B5 90     LDA $90,X
  $DDE6  29 07     AND #$07
  $DDE8  D0 0B     BNE $DDF5
  $DDEA  B5 98     LDA $98,X
  $DDEC  29 07     AND #$07
  $DDEE  D0 05     BNE $DDF5
  $DDF0  A9 90     LDA #$90
  $DDF2  20 DD E4  JSR SetStateLo
  $DDF5  B5 A0     LDA $A0,X
  $DDF7  49 02     EOR #$02
  $DDF9  95 A0     STA $A0,X
  $DDFB  60        RTS 

RandomDirChange:
  $DDFC  20 7C D3  JSR RNG
  $DDFF  29 01     AND #$01
  $DE01  F0 1B     BEQ $DE1E
  $DE03  20 7C D3  JSR RNG
  $DE06  29 01     AND #$01
  $DE08  F0 08     BEQ $DE12
  $DE0A  B5 A0     LDA $A0,X
  $DE0C  18        CLC 
  $DE0D  69 01     ADC #$01
  $DE0F  4C 17 DE  JMP $DE17
  $DE12  B5 A0     LDA $A0,X
  $DE14  38        SEC 
  $DE15  E9 01     SBC #$01
  $DE17  29 03     AND #$03
  $DE19  09 A0     ORA #$A0
  $DE1B  95 A0     STA $A0,X
  $DE1D  60        RTS 
  $DE1E  20 26 DF  JSR SpeedCtrlMove
  $DE21  60        RTS 

ClampXMove:
  $DE22  C5 56     CMP $56
  $DE24  90 03     BCC $DE29
  $DE26  38        SEC 
  $DE27  E9 01     SBC #$01
  $DE29  60        RTS 

ClampYMove:
  $DE2A  C5 57     CMP $57
  $DE2C  90 03     BCC $DE31
  $DE2E  38        SEC 
  $DE2F  E9 01     SBC #$01
  $DE31  60        RTS 

DirTowardP1:
  $DE32  A5 90     LDA $90
  $DE34  85 71     STA $71
  $DE36  A5 98     LDA $98
  $DE38  85 72     STA $72
  $DE3A  4C 50 DE  JMP DirTowardTarget

DirTowardP2:
  $DE3D  A5 91     LDA $91
  $DE3F  85 71     STA $71
  $DE41  A5 99     LDA $99
  $DE43  85 72     STA $72
  $DE45  4C 50 DE  JMP DirTowardTarget

DirTowardHQ:
  $DE48  A9 78     LDA #$78
  $DE4A  85 71     STA $71
  $DE4C  A9 D8     LDA #$D8
  $DE4E  85 72     STA $72

DirTowardTarget:
  $DE50  20 56 DE  JSR CalcDirToTarget
  $DE53  95 A0     STA $A0,X
  $DE55  60        RTS 

CalcDirToTarget:
  $DE56  A5 71     LDA $71 ; CalcDirToTarget: sign(TargetX-EntityX)+1->$64; sign(TargetY-EntityY)+1->$65; idx=$65*3+$64 (0..8)
  $DE58  38        SEC 
  $DE59  F5 90     SBC $90,X
  $DE5B  20 5D DB  JSR SignFn
  $DE5E  18        CLC 
  $DE5F  69 01     ADC #$01
  $DE61  85 64     STA $64
  $DE63  A5 72     LDA $72
  $DE65  38        SEC 
  $DE66  F5 98     SBC $98,X
  $DE68  20 5D DB  JSR SignFn
  $DE6B  18        CLC 
  $DE6C  69 01     ADC #$01
  $DE6E  85 65     STA $65
  $DE70  0A        ASL  ; idx formula: A=$65*3+$64; enemy uses RNG to pick +9(X-prefer); player uses fire-btn bit
  $DE71  18        CLC 
  $DE72  65 65     ADC $65
  $DE74  18        CLC 
  $DE75  65 64     ADC $64
  $DE77  85 64     STA $64
  $DE79  E0 02     CPX #$02
  $DE7B  B0 0B     BCS $DE88
  $DE7D  8A        TXA 
  $DE7E  0A        ASL 
  $DE7F  45 0A     EOR $0A
  $DE81  29 02     AND #$02
  $DE83  F0 13     BEQ $DE98
  $DE85  4C 8F DE  JMP $DE8F
  $DE88  20 7C D3  JSR RNG ; Enemy: 50% chance use X-preferred table (idx+9); else Y-preferred
  $DE8B  29 01     AND #$01
  $DE8D  F0 09     BEQ $DE98
  $DE8F  A9 09     LDA #$09
  $DE91  18        CLC 
  $DE92  65 64     ADC $64
  $DE94  A8        TAY 
  $DE95  4C 9A DE  JMP $DE9A
  $DE98  A4 64     LDY $64
  $DE9A  B9 43 E5  LDA DirToStateTable,Y
  $DE9D  60        RTS 

StateCountdown:
  $DE9E  D6 A0     DEC $A0,X
  $DEA0  B5 A0     LDA $A0,X
  $DEA2  29 0F     AND #$0F
  $DEA4  D0 53     BNE $DEF9
  $DEA6  B5 A0     LDA $A0,X
  $DEA8  38        SEC 
  $DEA9  E9 10     SBC #$10
  $DEAB  F0 0E     BEQ $DEBB
  $DEAD  C9 10     CMP #$10
  $DEAF  D0 05     BNE $DEB6
  $DEB1  09 06     ORA #$06
  $DEB3  4C B8 DE  JMP $DEB8
  $DEB6  09 03     ORA #$03
  $DEB8  95 A0     STA $A0,X

PlayerKilled:
  $DEBA  60        RTS 
  $DEBB  95 A0     STA $A0,X
  $DEBD  E0 02     CPX #$02
  $DEBF  B0 08     BCS EnemyKilled
  $DEC1  D6 51     DEC $51,X
  $DEC3  F0 07     BEQ PlayerDeathScrollCheck
  $DEC5  20 17 E4  JSR PlayerRespawn
  $DEC8  60        RTS 

EnemyKilled:
  $DEC9  C6 80     DEC $80
  $DECB  60        RTS 

PlayerDeathScrollCheck:
  $DECC  A5 68     LDA $68
  $DECE  C9 80     CMP #$80
  $DED0  D0 27     BNE $DEF9
  $DED2  E0 01     CPX #$01
  $DED4  F0 12     BEQ P2DeathScrollLeft
  $DED6  A5 52     LDA $52
  $DED8  F0 1F     BEQ $DEF9
  $DEDA  A9 03     LDA #$03
  $DEDC  8D 07 01  STA $0107
  $DEDF  A9 20     LDA #$20
  $DEE1  8D 05 01  STA $0105
  $DEE4  20 FA DE  JSR SetDeathScrollParams
  $DEE7  60        RTS 

P2DeathScrollLeft:
  $DEE8  A5 51     LDA $51
  $DEEA  F0 0D     BEQ $DEF9
  $DEEC  A9 01     LDA #$01
  $DEEE  8D 07 01  STA $0107
  $DEF1  A9 C0     LDA #$C0
  $DEF3  8D 05 01  STA $0105
  $DEF6  20 FA DE  JSR SetDeathScrollParams
  $DEF9  60        RTS 

SetDeathScrollParams:
  $DEFA  A9 0D     LDA #$0D
  $DEFC  8D 08 01  STA $0108
  $DEFF  A9 D8     LDA #$D8
  $DF01  8D 06 01  STA $0106
  $DF04  A9 00     LDA #$00
  $DF06  85 0B     STA $0B
  $DF08  60        RTS 

StateIncSlot:
  $DF09  F6 A0     INC $A0,X
  $DF0B  B5 A0     LDA $A0,X
  $DF0D  29 0F     AND #$0F
  $DF0F  C9 0E     CMP #$0E
  $DF11  D0 04     BNE $DF17
  $DF13  A9 E0     LDA #$E0
  $DF15  95 A0     STA $A0,X
  $DF17  60        RTS 

StateIncFire:
  $DF18  F6 A0     INC $A0,X
  $DF1A  B5 A0     LDA $A0,X
  $DF1C  29 0F     AND #$0F
  $DF1E  C9 0E     CMP #$0E
  $DF20  D0 03     BNE $DF25
  $DF22  20 6C E4  JSR EnemySpawn
  $DF25  60        RTS 

SpeedCtrlMove:
  $DF26  A5 84     LDA $84
  $DF28  4A        LSR 
  $DF29  4A        LSR 
  $DF2A  C5 0A     CMP $0A
  $DF2C  B0 05     BCS $DF33
  $DF2E  A9 B0     LDA #$B0
  $DF30  4C 56 DF  JMP $DF56
  $DF33  4A        LSR 
  $DF34  C5 0A     CMP $0A
  $DF36  90 0A     BCC $DF42
  $DF38  20 7C D3  JSR RNG
  $DF3B  29 03     AND #$03
  $DF3D  09 A0     ORA #$A0
  $DF3F  95 A0     STA $A0,X
  $DF41  60        RTS 
  $DF42  A5 A0     LDA $A0
  $DF44  F0 09     BEQ $DF4F
  $DF46  8A        TXA 
  $DF47  29 01     AND #$01
  $DF49  F0 09     BEQ $DF54
  $DF4B  A5 A1     LDA $A1
  $DF4D  F0 05     BEQ $DF54
  $DF4F  A9 C0     LDA #$C0
  $DF51  4C 56 DF  JMP $DF56
  $DF54  A9 D0     LDA #$D0
  $DF56  20 DD E4  JSR SetStateLo
  $DF59  60        RTS 

MoveUpdate:
  $DF5A  A9 00     LDA #$00
  $DF5C  85 5A     STA $5A
  $DF5E  A6 5A     LDX $5A
  $DF60  20 6C DF  JSR $DF6C
  $DF63  E6 5A     INC $5A
  $DF65  A5 5A     LDA $5A
  $DF67  C9 08     CMP #$08
  $DF69  D0 F3     BNE $DF5E
  $DF6B  60        RTS 
  $DF6C  B5 A0     LDA $A0,X
  $DF6E  4A        LSR 
  $DF6F  4A        LSR 
  $DF70  4A        LSR 
  $DF71  29 FE     AND #$FE
  $DF73  A8        TAY 
  $DF74  B9 75 E5  LDA MoveUpdateDispatch,Y
  $DF77  85 11     STA $11
  $DF79  B9 76 E5  LDA $E576,Y
  $DF7C  85 12     STA $12
  $DF7E  6C 11 00  JMP ($0011)

DrawMovingSprite:
  $DF81  A9 00     LDA #$00
  $DF83  85 6E     STA $6E
  $DF85  B5 A0     LDA $A0,X
  $DF87  48        PHA 
  $DF88  B4 98     LDY $98,X
  $DF8A  B5 90     LDA $90,X
  $DF8C  AA        TAX 
  $DF8D  68        PLA 
  $DF8E  20 96 DF  JSR CalcSprTile
  $DF91  A9 20     LDA #$20
  $DF93  85 6E     STA $6E
  $DF95  60        RTS 

CalcSprTile:
  $DF96  4A        LSR 
  $DF97  4A        LSR 
  $DF98  4A        LSR 
  $DF99  4A        LSR 
  $DF9A  38        SEC 
  $DF9B  E9 07     SBC #$07
  $DF9D  49 FF     EOR #$FF
  $DF9F  18        CLC 
  $DFA0  69 01     ADC #$01
  $DFA2  0A        ASL 
  $DFA3  0A        ASL 
  $DFA4  18        CLC 
  $DFA5  69 F1     ADC #$F1
  $DFA7  85 53     STA $53
  $DFA9  A9 03     LDA #$03
  $DFAB  85 04     STA $04
  $DFAD  20 0A DB  JSR DrawTank
  $DFB0  60        RTS 

DrawSpawnSprite:
  $DFB1  A9 00     LDA #$00
  $DFB3  85 6E     STA $6E
  $DFB5  B5 A8     LDA $A8,X
  $DFB7  F0 1E     BEQ $DFD7
  $DFB9  B5 A8     LDA $A8,X
  $DFBB  4A        LSR 
  $DFBC  4A        LSR 
  $DFBD  4A        LSR 
  $DFBE  29 FC     AND #$FC
  $DFC0  38        SEC 
  $DFC1  E9 10     SBC #$10
  $DFC3  18        CLC 
  $DFC4  69 B9     ADC #$B9
  $DFC6  85 53     STA $53 ; DrawSpawnSprite tile: $53=(($A8
  $DFC8  A9 03     LDA #$03
  $DFCA  85 04     STA $04
  $DFCC  B4 98     LDY $98,X
  $DFCE  B5 90     LDA $90,X
  $DFD0  AA        TAX 
  $DFD1  20 0A DB  JSR DrawTank
  $DFD4  4C E2 DF  JMP $DFE2
  $DFD7  B5 98     LDA $98,X
  $DFD9  A8        TAY 
  $DFDA  B5 90     LDA $90,X
  $DFDC  AA        TAX 
  $DFDD  A9 00     LDA #$00
  $DFDF  20 A4 DF  JSR $DFA4
  $DFE2  A9 20     LDA #$20
  $DFE4  85 6E     STA $6E
  $DFE6  60        RTS 

DrawSmallSprite:
  $DFE7  A9 00     LDA #$00
  $DFE9  85 6E     STA $6E
  $DFEB  B4 98     LDY $98,X
  $DFED  B5 90     LDA $90,X
  $DFEF  AA        TAX 
  $DFF0  A9 08     LDA #$08
  $DFF2  20 A4 DF  JSR $DFA4
  $DFF5  A9 20     LDA #$20
  $DFF7  85 6E     STA $6E
  $DFF9  60        RTS 

DrawExpandSprite:
  $DFFA  A9 03     LDA #$03
  $DFFC  85 04     STA $04
  $DFFE  A9 00     LDA #$00
  $E000  85 6E     STA $6E
  $E002  20 4D E0  JSR $E04D
  $E005  8A        TXA 
  $E006  38        SEC 
  $E007  E9 08     SBC #$08
  $E009  AA        TAX 
  $E00A  98        TYA 
  $E00B  38        SEC 
  $E00C  E9 08     SBC #$08
  $E00E  A8        TAY 
  $E00F  20 0A DB  JSR DrawTank
  $E012  A9 01     LDA #$01
  $E014  20 4D E0  JSR $E04D
  $E017  8A        TXA 
  $E018  18        CLC 
  $E019  69 08     ADC #$08
  $E01B  AA        TAX 
  $E01C  98        TYA 
  $E01D  38        SEC 
  $E01E  E9 08     SBC #$08
  $E020  A8        TAY 
  $E021  20 0A DB  JSR DrawTank
  $E024  A9 02     LDA #$02
  $E026  20 4D E0  JSR $E04D
  $E029  8A        TXA 
  $E02A  38        SEC 
  $E02B  E9 08     SBC #$08
  $E02D  AA        TAX 
  $E02E  98        TYA 
  $E02F  18        CLC 
  $E030  69 08     ADC #$08
  $E032  A8        TAY 
  $E033  20 0A DB  JSR DrawTank
  $E036  A9 03     LDA #$03
  $E038  20 4D E0  JSR $E04D
  $E03B  8A        TXA 
  $E03C  18        CLC 
  $E03D  69 08     ADC #$08
  $E03F  AA        TAX 
  $E040  98        TYA 
  $E041  18        CLC 
  $E042  69 08     ADC #$08
  $E044  A8        TAY 
  $E045  20 0A DB  JSR DrawTank
  $E048  A9 20     LDA #$20
  $E04A  85 6E     STA $6E
  $E04C  60        RTS 
  $E04D  A6 5A     LDX $5A
  $E04F  0A        ASL 
  $E050  0A        ASL 
  $E051  18        CLC 
  $E052  69 D1     ADC #$D1
  $E054  85 00     STA $00
  $E056  B5 A0     LDA $A0,X
  $E058  29 F0     AND #$F0
  $E05A  38        SEC 
  $E05B  E9 30     SBC #$30
  $E05D  49 10     EOR #$10
  $E05F  18        CLC 
  $E060  65 00     ADC $00
  $E062  85 53     STA $53
  $E064  B4 98     LDY $98,X
  $E066  B5 90     LDA $90,X
  $E068  AA        TAX 
  $E069  60        RTS 

MoveTank:
  $E06A  E0 02     CPX #$02
  $E06C  90 23     BCC $E091
  $E06E  B5 A8     LDA $A8,X
  $E070  29 04     AND #$04
  $E072  F0 0D     BEQ $E081
  $E074  A5 0B     LDA $0B
  $E076  4A        LSR 
  $E077  4A        LSR 
  $E078  4A        LSR 
  $E079  29 01     AND #$01
  $E07B  18        CLC 
  $E07C  69 02     ADC #$02
  $E07E  4C 9D E0  JMP $E09D
  $E081  A5 0B     LDA $0B
  $E083  0A        ASL 
  $E084  0A        ASL 
  $E085  18        CLC 
  $E086  75 A8     ADC $A8,X
  $E088  29 07     AND #$07
  $E08A  A8        TAY 
  $E08B  B9 B7 E0  LDA EnemySpeedTable,Y
  $E08E  4C 9D E0  JMP $E09D
  $E091  B5 6F     LDA $6F,X
  $E093  F0 07     BEQ $E09C
  $E095  A5 0B     LDA $0B
  $E097  29 08     AND #$08
  $E099  F0 01     BEQ $E09C
  $E09B  60        RTS 
  $E09C  8A        TXA 
  $E09D  85 04     STA $04

MoveTankSpriteCalc:
  $E09F  B5 A0     LDA $A0,X ; MoveTankSpriteCalc: A=$A0
  $E0A1  29 03     AND #$03
  $E0A3  48        PHA 
  $E0A4  B5 A8     LDA $A8,X
  $E0A6  29 F0     AND #$F0
  $E0A8  18        CLC 
  $E0A9  75 B0     ADC $B0,X
  $E0AB  85 53     STA $53
  $E0AD  B4 98     LDY $98,X
  $E0AF  B5 90     LDA $90,X
  $E0B1  AA        TAX 
  $E0B2  68        PLA 
  $E0B3  20 02 DB  JSR DrawTank2x2
  $E0B6  60        RTS 

EnemySpeedTable:
  $E0B7  02        ??? 
  $E0B8  00        BRK 
  $E0B9  00        BRK 
  $E0BA  01 02     ORA ($02,X)
  $E0BC  01 02     ORA ($02,X)
  $E0BE  02        ??? 

DrawShootSprite:
  $E0BF  B5 A0     LDA $A0,X ; DrawShootSprite: in-flight bullet visible sprite; A=|($A0
  $E0C1  29 0F     AND #$0F
  $E0C3  38        SEC 
  $E0C4  E9 07     SBC #$07
  $E0C6  10 05     BPL $E0CD
  $E0C8  49 FF     EOR #$FF
  $E0CA  18        CLC 
  $E0CB  69 01     ADC #$01
  $E0CD  0A        ASL 
  $E0CE  29 FC     AND #$FC
  $E0D0  18        CLC 
  $E0D1  69 A1     ADC #$A1
  $E0D3  85 53     STA $53
  $E0D5  A9 03     LDA #$03
  $E0D7  85 04     STA $04
  $E0D9  B4 98     LDY $98,X
  $E0DB  B5 90     LDA $90,X
  $E0DD  AA        TAX 
  $E0DE  20 0A DB  JSR DrawTank
  $E0E1  60        RTS 

BulletUpdate:
  $E0E2  A9 09     LDA #$09
  $E0E4  85 5A     STA $5A
  $E0E6  A6 5A     LDX $5A
  $E0E8  20 F0 E0  JSR BulletDispatch
  $E0EB  C6 5A     DEC $5A
  $E0ED  10 F7     BPL $E0E6
  $E0EF  60        RTS 

BulletDispatch:
  $E0F0  B5 CC     LDA $CC,X
  $E0F2  4A        LSR 
  $E0F3  4A        LSR 
  $E0F4  4A        LSR 
  $E0F5  29 FE     AND #$FE
  $E0F7  A8        TAY 
  $E0F8  B9 95 E5  LDA BulletDispatchTable,Y
  $E0FB  85 11     STA $11
  $E0FD  B9 96 E5  LDA $E596,Y
  $E100  85 12     STA $12
  $E102  6C 11 00  JMP ($0011)

BulletImpact:
  $E105  B5 CC     LDA $CC,X
  $E107  29 03     AND #$03
  $E109  A8        TAY 
  $E10A  20 17 E1  JSR BulletDelta
  $E10D  B5 D6     LDA $D6,X
  $E10F  29 01     AND #$01
  $E111  F0 03     BEQ $E116
  $E113  20 17 E1  JSR BulletDelta
  $E116  60        RTS 

BulletDelta:
  $E117  B9 29 E5  LDA DirDeltaY,Y
  $E11A  0A        ASL 
  $E11B  18        CLC 
  $E11C  75 B8     ADC $B8,X
  $E11E  95 B8     STA $B8,X
  $E120  B9 2D E5  LDA DirDeltaX,Y
  $E123  0A        ASL 
  $E124  18        CLC 
  $E125  75 C2     ADC $C2,X
  $E127  95 C2     STA $C2,X
  $E129  60        RTS 

BulletCountdown:
  $E12A  D6 CC     DEC $CC,X
  $E12C  B5 CC     LDA $CC,X
  $E12E  29 0F     AND #$0F
  $E130  D0 0D     BNE $E13F
  $E132  B5 CC     LDA $CC,X
  $E134  29 F0     AND #$F0
  $E136  38        SEC 
  $E137  E9 10     SBC #$10
  $E139  F0 02     BEQ $E13D
  $E13B  09 03     ORA #$03
  $E13D  95 CC     STA $CC,X
  $E13F  60        RTS 

FireBullet:
  $E140  B5 CC     LDA $CC,X
  $E142  D0 47     BNE $E18B
  $E144  E0 02     CPX #$02
  $E146  B0 05     BCS $E14D
  $E148  A9 01     LDA #$01
  $E14A  8D 0F 03  STA $030F
  $E14D  B5 A0     LDA $A0,X
  $E14F  29 03     AND #$03
  $E151  A8        TAY 
  $E152  09 40     ORA #$40
  $E154  95 CC     STA $CC,X
  $E156  B9 29 E5  LDA DirDeltaY,Y
  $E159  0A        ASL 
  $E15A  0A        ASL 
  $E15B  0A        ASL 
  $E15C  18        CLC 
  $E15D  75 90     ADC $90,X
  $E15F  95 B8     STA $B8,X
  $E161  B9 2D E5  LDA DirDeltaX,Y
  $E164  0A        ASL 
  $E165  0A        ASL 
  $E166  0A        ASL 
  $E167  18        CLC 
  $E168  75 98     ADC $98,X
  $E16A  95 C2     STA $C2,X
  $E16C  A9 00     LDA #$00
  $E16E  95 D6     STA $D6,X
  $E170  B5 A8     LDA $A8,X
  $E172  29 F0     AND #$F0
  $E174  F0 15     BEQ $E18B
  $E176  C9 C0     CMP #$C0
  $E178  F0 08     BEQ $E182
  $E17A  C9 60     CMP #$60
  $E17C  F0 09     BEQ $E187
  $E17E  29 80     AND #$80
  $E180  D0 09     BNE $E18B
  $E182  A9 01     LDA #$01
  $E184  95 D6     STA $D6,X
  $E186  60        RTS 
  $E187  A9 03     LDA #$03
  $E189  95 D6     STA $D6,X
  $E18B  60        RTS 

CollisionUpdate:
  $E18C  A9 09     LDA #$09
  $E18E  85 5A     STA $5A
  $E190  A6 5A     LDX $5A
  $E192  20 9A E1  JSR $E19A
  $E195  C6 5A     DEC $5A
  $E197  10 F7     BPL $E190
  $E199  60        RTS 
  $E19A  B5 CC     LDA $CC,X
  $E19C  4A        LSR 
  $E19D  4A        LSR 
  $E19E  4A        LSR 
  $E19F  29 FE     AND #$FE
  $E1A1  A8        TAY 
  $E1A2  B9 9F E5  LDA $E59F,Y
  $E1A5  85 11     STA $11
  $E1A7  B9 A0 E5  LDA $E5A0,Y
  $E1AA  85 12     STA $12
  $E1AC  6C 11 00  JMP ($0011)

BulletExplode:
  $E1AF  B5 CC     LDA $CC,X
  $E1B1  29 03     AND #$03
  $E1B3  48        PHA 
  $E1B4  B4 C2     LDY $C2,X
  $E1B6  B5 B8     LDA $B8,X
  $E1B8  AA        TAX 
  $E1B9  A9 02     LDA #$02
  $E1BB  85 04     STA $04
  $E1BD  A9 B1     LDA #$B1
  $E1BF  85 53     STA $53 ; BulletExplode tile setup: $53=$B1 → ODD→PT1(BG bank); dir*2 added by $DAF3; tiles $B0-$B7
  $E1C1  68        PLA 
  $E1C2  20 F3 DA  JSR BulletExplosionDraw
  $E1C5  60        RTS 

BulletTravel:
  $E1C6  B5 CC     LDA $CC,X
  $E1C8  48        PHA 
  $E1C9  B4 C2     LDY $C2,X
  $E1CB  B5 B8     LDA $B8,X
  $E1CD  AA        TAX 
  $E1CE  68        PLA 
  $E1CF  18        CLC 
  $E1D0  69 40     ADC #$40
  $E1D2  20 96 DF  JSR CalcSprTile
  $E1D5  60        RTS 

PlayerFireCheck:
  $E1D6  A9 01     LDA #$01 ; PlayerFireCheck: loops X=1→0 (player slots); reads $08
  $E1D8  85 5A     STA $5A
  $E1DA  A6 5A     LDX $5A
  $E1DC  B5 A0     LDA $A0,X
  $E1DE  10 31     BPL $E211
  $E1E0  C9 E0     CMP #$E0
  $E1E2  B0 2D     BCS $E211
  $E1E4  B5 08     LDA $08,X
  $E1E6  29 03     AND #$03
  $E1E8  F0 27     BEQ $E211
  $E1EA  B5 A8     LDA $A8,X
  $E1EC  29 C0     AND #$C0
  $E1EE  C9 40     CMP #$40
  $E1F0  D0 1C     BNE $E20E
  $E1F2  B5 CC     LDA $CC,X
  $E1F4  F0 18     BEQ $E20E
  $E1F6  B5 D4     LDA $D4,X
  $E1F8  D0 17     BNE $E211
  $E1FA  B5 CC     LDA $CC,X
  $E1FC  95 D4     STA $D4,X
  $E1FE  B5 B8     LDA $B8,X
  $E200  95 C0     STA $C0,X
  $E202  B5 C2     LDA $C2,X
  $E204  95 CA     STA $CA,X
  $E206  B5 D6     LDA $D6,X
  $E208  95 DE     STA $DE,X
  $E20A  A9 00     LDA #$00
  $E20C  95 CC     STA $CC,X
  $E20E  20 40 E1  JSR FireBullet
  $E211  C6 5A     DEC $5A
  $E213  10 C5     BPL $E1DA
  $E215  60        RTS 

EnemyFireCheck:
  $E216  AD 00 01  LDA $0100 ; EnemyFireCheck: if $0100!=0 skip; loops X=7→2 (enemy slots only; exits at X=1); active entity: JSR RNG AND$1F==0 → FireBullet (random 1-in-32 fire per update)
  $E219  D0 19     BNE $E234
  $E21B  A2 07     LDX #$07
  $E21D  B5 A0     LDA $A0,X
  $E21F  10 0E     BPL $E22F
  $E221  C9 E0     CMP #$E0
  $E223  B0 0A     BCS $E22F
  $E225  20 7C D3  JSR RNG
  $E228  29 1F     AND #$1F
  $E22A  D0 03     BNE $E22F
  $E22C  20 40 E1  JSR FireBullet
  $E22F  CA        DEX 
  $E230  E0 01     CPX #$01
  $E232  D0 E9     BNE $E21D
  $E234  60        RTS 

CalcTilePos:
  $E235  A9 07     LDA #$07
  $E237  85 5A     STA $5A
  $E239  A6 5A     LDX $5A
  $E23B  B5 A0     LDA $A0,X
  $E23D  10 63     BPL $E2A2
  $E23F  C9 E0     CMP #$E0
  $E241  B0 5F     BCS $E2A2
  $E243  B5 98     LDA $98,X
  $E245  38        SEC 
  $E246  E9 08     SBC #$08
  $E248  A8        TAY 
  $E249  B5 90     LDA $90,X
  $E24B  38        SEC 
  $E24C  E9 08     SBC #$08
  $E24E  AA        TAX 
  $E24F  20 26 D7  JSR PPUAddrFromXY
  $E252  A6 5A     LDX $5A
  $E254  A5 11     LDA $11
  $E256  95 E0     STA $E0,X
  $E258  A5 12     LDA $12
  $E25A  29 03     AND #$03
  $E25C  95 E8     STA $E8,X
  $E25E  A0 21     LDY #$21
  $E260  E0 02     CPX #$02
  $E262  B0 19     BCS $E27D
  $E264  B1 11     LDA ($11),Y
  $E266  C9 21     CMP #$21
  $E268  D0 0B     BNE $E275
  $E26A  A9 80     LDA #$80
  $E26C  1D 03 01  ORA $0103,X
  $E26F  9D 03 01  STA $0103,X
  $E272  4C 7D E2  JMP $E27D
  $E275  BD 03 01  LDA $0103,X
  $E278  29 7F     AND #$7F
  $E27A  9D 03 01  STA $0103,X
  $E27D  20 A7 E2  JSR $E2A7
  $E280  B5 90     LDA $90,X
  $E282  29 07     AND #$07
  $E284  D0 0B     BNE $E291
  $E286  B5 E8     LDA $E8,X
  $E288  09 80     ORA #$80
  $E28A  95 E8     STA $E8,X
  $E28C  A0 20     LDY #$20
  $E28E  20 A7 E2  JSR $E2A7
  $E291  B5 98     LDA $98,X
  $E293  29 07     AND #$07
  $E295  D0 0B     BNE $E2A2
  $E297  B5 E8     LDA $E8,X
  $E299  09 40     ORA #$40
  $E29B  95 E8     STA $E8,X
  $E29D  A0 01     LDY #$01
  $E29F  20 A7 E2  JSR $E2A7
  $E2A2  C6 5A     DEC $5A
  $E2A4  10 93     BPL $E239
  $E2A6  60        RTS 
  $E2A7  B1 11     LDA ($11),Y
  $E2A9  09 80     ORA #$80
  $E2AB  91 11     STA ($11),Y
  $E2AD  60        RTS 

ClearTileFlags:
  $E2AE  A9 07     LDA #$07 ; ClearTileFlags: loops X=7→0; for each active entity: compute nametable tile ptr ($E0
  $E2B0  85 5A     STA $5A
  $E2B2  A6 5A     LDX $5A
  $E2B4  B5 A0     LDA $A0,X
  $E2B6  10 2B     BPL $E2E3
  $E2B8  C9 E0     CMP #$E0
  $E2BA  B0 27     BCS $E2E3
  $E2BC  B5 E0     LDA $E0,X
  $E2BE  85 11     STA $11
  $E2C0  B5 E8     LDA $E8,X
  $E2C2  29 03     AND #$03
  $E2C4  09 04     ORA #$04
  $E2C6  85 12     STA $12
  $E2C8  A0 21     LDY #$21
  $E2CA  20 E8 E2  JSR $E2E8
  $E2CD  B5 E8     LDA $E8,X
  $E2CF  29 80     AND #$80
  $E2D1  F0 05     BEQ $E2D8
  $E2D3  A0 20     LDY #$20
  $E2D5  20 E8 E2  JSR $E2E8
  $E2D8  B5 E8     LDA $E8,X
  $E2DA  29 40     AND #$40
  $E2DC  F0 05     BEQ $E2E3
  $E2DE  A0 01     LDY #$01
  $E2E0  20 E8 E2  JSR $E2E8
  $E2E3  C6 5A     DEC $5A
  $E2E5  10 CB     BPL $E2B2
  $E2E7  60        RTS 
  $E2E8  B1 11     LDA ($11),Y
  $E2EA  29 7F     AND #$7F
  $E2EC  91 11     STA ($11),Y
  $E2EE  60        RTS 

EntityUpdate:
  $E2EF  A5 86     LDA $86
  $E2F1  F0 3C     BEQ $E32F
  $E2F3  A5 62     LDA $62
  $E2F5  F0 16     BEQ PowerUpActiveDraw
  $E2F7  C6 62     DEC $62
  $E2F9  D0 07     BNE PowerUpFlashDraw
  $E2FB  A9 00     LDA #$00
  $E2FD  85 86     STA $86
  $E2FF  4C 2F E3  JMP $E32F

PowerUpFlashDraw:
  $E302  A9 02     LDA #$02 ; PowerUpFlashDraw: $53=$3B → ODD→PT1(BG bank); tiles $3A-$3D at collect position
  $E304  85 04     STA $04
  $E306  A9 3B     LDA #$3B
  $E308  85 53     STA $53
  $E30A  4C 20 E3  JMP $E320

PowerUpActiveDraw:
  $E30D  A5 0B     LDA $0B ; PowerUpActiveDraw: $53=$88*4+$81 → ODD→PT1(BG bank); type 0-5 → tiles $80-$97 FROM BG BANK (not sprite bank!)
  $E30F  29 08     AND #$08
  $E311  F0 1C     BEQ $E32F
  $E313  A9 02     LDA #$02
  $E315  85 04     STA $04
  $E317  A5 88     LDA $88
  $E319  0A        ASL 
  $E31A  0A        ASL 
  $E31B  18        CLC 
  $E31C  69 81     ADC #$81
  $E31E  85 53     STA $53
  $E320  A6 86     LDX $86
  $E322  A4 87     LDY $87
  $E324  A9 00     LDA #$00
  $E326  85 6E     STA $6E
  $E328  20 0A DB  JSR DrawTank
  $E32B  A9 20     LDA #$20
  $E32D  85 6E     STA $6E
  $E32F  60        RTS 

PlayerShieldDraw:
  $E330  A9 01     LDA #$01
  $E332  85 5A     STA $5A
  $E334  A6 5A     LDX $5A
  $E336  B5 89     LDA $89,X
  $E338  F0 1E     BEQ $E358
  $E33A  A5 0B     LDA $0B
  $E33C  29 3F     AND #$3F
  $E33E  D0 02     BNE $E342
  $E340  D6 89     DEC $89,X
  $E342  A9 02     LDA #$02
  $E344  85 04     STA $04
  $E346  B4 98     LDY $98,X
  $E348  B5 90     LDA $90,X
  $E34A  AA        TAX 
  $E34B  A5 0B     LDA $0B
  $E34D  29 02     AND #$02
  $E34F  0A        ASL 
  $E350  18        CLC 
  $E351  69 29     ADC #$29
  $E353  85 53     STA $53
  $E355  20 0A DB  JSR DrawTank
  $E358  C6 5A     DEC $5A
  $E35A  10 D8     BPL $E334
  $E35C  60        RTS 

ShovelTimerUpdate:
  $E35D  A5 45     LDA $45
  $E35F  F0 25     BEQ EagleStateUpdate
  $E361  A5 0B     LDA $0B
  $E363  29 0F     AND #$0F
  $E365  D0 1F     BNE EagleStateUpdate
  $E367  A5 0B     LDA $0B
  $E369  29 3F     AND #$3F
  $E36B  D0 04     BNE $E371
  $E36D  C6 45     DEC $45
  $E36F  F0 12     BEQ $E383
  $E371  A5 45     LDA $45
  $E373  C9 04     CMP #$04
  $E375  B0 0F     BCS EagleStateUpdate
  $E377  A5 0B     LDA $0B
  $E379  29 10     AND #$10
  $E37B  F0 06     BEQ $E383
  $E37D  20 BB C9  JSR SteelWallFortify
  $E380  4C 86 E3  JMP EagleStateUpdate
  $E383  20 12 C9  JSR BrickWallInit

EagleStateUpdate:
  $E386  A5 68     LDA $68 ; EagleStateUpdate: exit if $68=0 or neg; DEC $68; x=$68>>2; Y=2×||(x-5)|-5|; JMP via EagleHandlerTable (39-frame animation)
  $E388  F0 2F     BEQ $E3B9
  $E38A  30 2D     BMI $E3B9
  $E38C  A9 03     LDA #$03
  $E38E  85 04     STA $04
  $E390  C6 68     DEC $68
  $E392  A5 68     LDA $68
  $E394  4A        LSR 
  $E395  4A        LSR 
  $E396  38        SEC 
  $E397  E9 05     SBC #$05
  $E399  10 05     BPL $E3A0
  $E39B  49 FF     EOR #$FF
  $E39D  18        CLC 
  $E39E  69 01     ADC #$01
  $E3A0  38        SEC 
  $E3A1  E9 05     SBC #$05
  $E3A3  10 05     BPL $E3AA
  $E3A5  49 FF     EOR #$FF
  $E3A7  18        CLC 
  $E3A8  69 01     ADC #$01
  $E3AA  0A        ASL 
  $E3AB  A8        TAY 
  $E3AC  B9 BA E3  LDA EagleHandlerTable,Y
  $E3AF  85 11     STA $11
  $E3B1  B9 BB E3  LDA $E3BB,Y
  $E3B4  85 12     STA $12
  $E3B6  6C 11 00  JMP ($0011)
  $E3B9  60        RTS 

EagleHandlerTable:
  $E3BA  9E        ???  ; EagleHandlerTable[6]: Y=0→NullHandler($DC9E); Y=2→EagleExplosion1(tile$F1); Y=4→EagleExplosion2(tile$F5); Y=6→EagleExplosion3(tile$F9); Y=8→EagleDrawIntact; Y=10→EagleDrawDamaged
  $E3BB  DC C6 E3  NOP EagleExplosion1,X
  $E3BE  CB        ??? 
  $E3BF  E3 D0     ISC ($D0,X)
  $E3C1  E3 E2     ISC ($E2,X)
  $E3C3  E3 EA     ISC ($EA,X)
  $E3C5  E3 A9     ISC ($A9,X)
  $E3C7  F1 4C     SBC ($4C),Y
  $E3C9  D2        ??? 
  $E3CA  E3 A9     ISC ($A9,X)
  $E3CC  F5 4C     SBC $4C,X
  $E3CE  D2        ??? 
  $E3CF  E3 A9     ISC ($A9,X)
  $E3D1  F9 A2 78  SBC $78A2,Y
  $E3D4  A0 D8     LDY #$D8
  $E3D6  85 53     STA $53
  $E3D8  20 0A DB  JSR DrawTank
  $E3DB  60        RTS 

EagleDrawSingle:
  $E3DC  18        CLC 
  $E3DD  65 69     ADC $69
  $E3DF  4C D6 E3  JMP $E3D6

EagleDrawIntact:
  $E3E2  A9 00     LDA #$00
  $E3E4  85 69     STA $69
  $E3E6  20 F2 E3  JSR EagleDrawFull
  $E3E9  60        RTS 

EagleDrawDamaged:
  $E3EA  A9 10     LDA #$10
  $E3EC  85 69     STA $69
  $E3EE  20 F2 E3  JSR EagleDrawFull
  $E3F1  60        RTS 

EagleDrawFull:
  $E3F2  A2 70     LDX #$70 ; EagleDrawFull: tiles $D1/$D5/$D9/$DD (+$69 for damaged); ALL ODD→PT1(BG bank); tiles $D0-$EF from BG bank
  $E3F4  A0 D0     LDY #$D0
  $E3F6  A9 D1     LDA #$D1
  $E3F8  20 DC E3  JSR EagleDrawSingle
  $E3FB  A2 80     LDX #$80
  $E3FD  A0 D0     LDY #$D0
  $E3FF  A9 D5     LDA #$D5
  $E401  20 DC E3  JSR EagleDrawSingle
  $E404  A2 70     LDX #$70
  $E406  A0 E0     LDY #$E0
  $E408  A9 D9     LDA #$D9
  $E40A  20 DC E3  JSR EagleDrawSingle
  $E40D  A2 80     LDX #$80
  $E40F  A0 E0     LDY #$E0
  $E411  A9 DD     LDA #$DD
  $E413  20 DC E3  JSR EagleDrawSingle
  $E416  60        RTS 

PlayerRespawn:
  $E417  A9 00     LDA #$00
  $E419  95 A8     STA $A8,X
  $E41B  E0 02     CPX #$02
  $E41D  B0 11     BCS $E430
  $E41F  BD 37 E5  LDA PlayerSpawnX,X
  $E422  95 90     STA $90,X
  $E424  BD 39 E5  LDA PlayerSpawnY,X
  $E427  95 98     STA $98,X
  $E429  A9 00     LDA #$00
  $E42B  95 6F     STA $6F,X
  $E42D  4C 5D E4  JMP $E45D
  $E430  E6 6A     INC $6A
  $E432  A4 6A     LDY $6A
  $E434  C0 03     CPY #$03
  $E436  D0 05     BNE $E43D
  $E438  A9 00     LDA #$00
  $E43A  85 6A     STA $6A
  $E43C  A8        TAY 
  $E43D  B9 31 E5  LDA EnemySpawnX,Y
  $E440  95 90     STA $90,X
  $E442  B9 34 E5  LDA EnemySpawnY,Y
  $E445  95 98     STA $98,X
  $E447  A5 7F     LDA $7F
  $E449  C9 03     CMP #$03
  $E44B  F0 08     BEQ $E455
  $E44D  C9 0A     CMP #$0A
  $E44F  F0 04     BEQ $E455
  $E451  C9 11     CMP #$11
  $E453  D0 08     BNE $E45D
  $E455  A9 04     LDA #$04
  $E457  95 A8     STA $A8,X
  $E459  A9 00     LDA #$00
  $E45B  85 86     STA $86
  $E45D  A9 F0     LDA #$F0
  $E45F  95 A0     STA $A0,X
  $E461  B4 98     LDY $98,X
  $E463  B5 90     LDA $90,X
  $E465  AA        TAX 
  $E466  A9 0F     LDA #$0F
  $E468  20 2B D8  JSR DrawNametableTile
  $E46B  60        RTS 

EnemySpawn:
  $E46C  BD 3B E5  LDA InitState,X
  $E46F  95 A0     STA $A0,X
  $E471  E0 02     CPX #$02
  $E473  B0 0A     BCS $E47F
  $E475  A9 03     LDA #$03
  $E477  95 89     STA $89,X
  $E479  BD 01 01  LDA $0101,X
  $E47C  4C B7 E4  JMP $E4B7
  $E47F  A4 8F     LDY $8F
  $E481  B9 8B 00  LDA $008B,Y
  $E484  D0 05     BNE $E48B
  $E486  E6 8F     INC $8F
  $E488  4C 7F E4  JMP $E47F
  $E48B  38        SEC 
  $E48C  E9 01     SBC #$01
  $E48E  99 8B 00  STA $008B,Y
  $E491  A5 46     LDA $46
  $E493  F0 05     BEQ $E49A
  $E495  A9 23     LDA #$23
  $E497  4C A5 E4  JMP $E4A5
  $E49A  A5 85     LDA $85
  $E49C  C9 41     CMP #$41
  $E49E  90 05     BCC $E4A5
  $E4A0  A9 E3     LDA #$E3
  $E4A2  4C B7 E4  JMP $E4B7
  $E4A5  38        SEC 
  $E4A6  E9 01     SBC #$01
  $E4A8  0A        ASL 
  $E4A9  0A        ASL 
  $E4AA  18        CLC 
  $E4AB  65 8F     ADC $8F
  $E4AD  A8        TAY 
  $E4AE  B9 A9 E5  LDA EnemyTypeTable,Y
  $E4B1  C9 E0     CMP #$E0
  $E4B3  D0 02     BNE $E4B7
  $E4B5  09 03     ORA #$03
  $E4B7  15 A8     ORA $A8,X
  $E4B9  C9 E7     CMP #$E7
  $E4BB  D0 02     BNE $E4BF
  $E4BD  A9 E4     LDA #$E4
  $E4BF  95 A8     STA $A8,X
  $E4C1  A9 00     LDA #$00
  $E4C3  95 B0     STA $B0,X
  $E4C5  60        RTS 

ClearBulletSlots:
  $E4C6  A2 09     LDX #$09
  $E4C8  A9 00     LDA #$00
  $E4CA  95 CC     STA $CC,X
  $E4CC  CA        DEX 
  $E4CD  10 FB     BPL $E4CA
  $E4CF  60        RTS 

ClearEntitySlots:
  $E4D0  A9 00     LDA #$00
  $E4D2  A2 07     LDX #$07
  $E4D4  95 A0     STA $A0,X
  $E4D6  9D 03 01  STA $0103,X
  $E4D9  CA        DEX 
  $E4DA  10 F8     BPL $E4D4
  $E4DC  60        RTS 

SetStateLo:
  $E4DD  85 00     STA $00
  $E4DF  B5 A0     LDA $A0,X
  $E4E1  29 0F     AND #$0F
  $E4E3  05 00     ORA $00
  $E4E5  95 A0     STA $A0,X
  $E4E7  60        RTS 

SetSpeedPtr:
  $E4E8  A5 46     LDA $46
  $E4EA  F0 05     BEQ $E4F1
  $E4EC  A9 23     LDA #$23
  $E4EE  4C F3 E4  JMP $E4F3
  $E4F1  A5 85     LDA $85
  $E4F3  38        SEC 
  $E4F4  E9 01     SBC #$01
  $E4F6  0A        ASL 
  $E4F7  0A        ASL 
  $E4F8  A8        TAY 
  $E4F9  B9 A9 E6  LDA SpeedTable,Y
  $E4FC  85 8B     STA $8B
  $E4FE  B9 AA E6  LDA $E6AA,Y
  $E501  85 8C     STA $8C
  $E503  B9 AB E6  LDA $E6AB,Y
  $E506  85 8D     STA $8D
  $E508  B9 AC E6  LDA $E6AC,Y
  $E50B  85 8E     STA $8E
  $E50D  60        RTS 

DecodeDirection:
  $E50E  0A        ASL 
  $E50F  90 03     BCC $E514
  $E511  A9 03     LDA #$03
  $E513  60        RTS 
  $E514  0A        ASL 
  $E515  90 03     BCC $E51A
  $E517  A9 01     LDA #$01
  $E519  60        RTS 
  $E51A  0A        ASL 
  $E51B  90 03     BCC $E520
  $E51D  A9 02     LDA #$02
  $E51F  60        RTS 
  $E520  0A        ASL 
  $E521  90 03     BCC $E526
  $E523  A9 00     LDA #$00
  $E525  60        RTS 
  $E526  A9 FF     LDA #$FF
  $E528  60        RTS 
; ---------------------------------------------------------------------------
; Range $E529–$E531 (s8) DirDeltaTable
; ---------------------------------------------------------------------------

DirDeltaY:
  $E529  00        .byte $00  ; +0
  $E52A  FF        .byte $FF  ; -1
  $E52B  00        .byte $00  ; +0
  $E52C  01        .byte $01  ; +1

DirDeltaX:
  $E52D  FF        .byte $FF  ; -1
  $E52E  00        .byte $00  ; +0
  $E52F  01        .byte $01  ; +1
  $E530  00        .byte $00  ; +0
; ---------------------------------------------------------------------------
; Range $E531–$E537 (u8) EnemySpawnX
; ---------------------------------------------------------------------------

EnemySpawnX:
  $E531  18        .byte $18  ; 24
  $E532  78        .byte $78  ; 120
  $E533  D8        .byte $D8  ; 216

EnemySpawnY:
  $E534  18        .byte $18  ; 24
  $E535  18        .byte $18  ; 24
  $E536  18        .byte $18  ; 24
; ---------------------------------------------------------------------------
; Range $E537–$E539 (u8) PlayerSpawnX
; ---------------------------------------------------------------------------

PlayerSpawnX:
  $E537  58        .byte $58  ; 88
  $E538  98        .byte $98  ; 152
; ---------------------------------------------------------------------------
; Range $E539–$E53B (u8) PlayerSpawnY
; ---------------------------------------------------------------------------

PlayerSpawnY:
  $E539  D8        .byte $D8  ; 216
  $E53A  D8        .byte $D8  ; 216
; ---------------------------------------------------------------------------
; Range $E53B–$E543 (u8) InitState
; ---------------------------------------------------------------------------

InitState:
  $E53B  A0        .byte $A0  ; 160
  $E53C  A0        .byte $A0  ; 160
  $E53D  A2        .byte $A2  ; 162
  $E53E  A2        .byte $A2  ; 162
  $E53F  A2        .byte $A2  ; 162
  $E540  A2        .byte $A2  ; 162
  $E541  A2        .byte $A2  ; 162
  $E542  A2        .byte $A2  ; 162
; ---------------------------------------------------------------------------
; Range $E543–$E555 (u8) DirToStateTable
; ---------------------------------------------------------------------------

DirToStateTable:
  $E543  A0        .byte $A0  ; 160 ; DirToStateTable [18 bytes]: idx=dy_sign01*3+dx_sign01; [0..8]=prefer-Y states; [9..17]=prefer-X states (applied +9 for enemy RNG or player fire)
  $E544  A0        .byte $A0  ; 160
  $E545  A0        .byte $A0  ; 160
  $E546  A1        .byte $A1  ; 161
  $E547  A0        .byte $A0  ; 160
  $E548  A3        .byte $A3  ; 163
  $E549  A2        .byte $A2  ; 162
  $E54A  A2        .byte $A2  ; 162
  $E54B  A2        .byte $A2  ; 162
  $E54C  A1        .byte $A1  ; 161
  $E54D  A0        .byte $A0  ; 160
  $E54E  A3        .byte $A3  ; 163
  $E54F  A1        .byte $A1  ; 161
  $E550  A0        .byte $A0  ; 160
  $E551  A3        .byte $A3  ; 163
  $E552  A1        .byte $A1  ; 161
  $E553  A2        .byte $A2  ; 162
  $E554  A3        .byte $A3  ; 163
; ---------------------------------------------------------------------------
; Range $E555–$E575 (ptr16) MovementDispatch
; ---------------------------------------------------------------------------

MovementDispatch:
  $E555  9E DC     .word $DC9E -> NullHandler
  $E557  9E DE     .word $DE9E -> StateCountdown
  $E559  9E DE     .word $DE9E -> StateCountdown
  $E55B  9E DE     .word $DE9E -> StateCountdown
  $E55D  9E DE     .word $DE9E -> StateCountdown
  $E55F  9E DE     .word $DE9E -> StateCountdown
  $E561  9E DE     .word $DE9E -> StateCountdown
  $E563  9E DE     .word $DE9E -> StateCountdown
  $E565  06 DD     .word $DD06 -> ShieldHandler
  $E567  FC DD     .word $DDFC -> RandomDirChange
  $E569  30 DD     .word $DD30 -> MoveGridSnap
  $E56B  48 DE     .word $DE48 -> DirTowardHQ
  $E56D  3D DE     .word $DE3D -> DirTowardP2
  $E56F  32 DE     .word $DE32 -> DirTowardP1
  $E571  18 DF     .word $DF18 -> StateIncFire
  $E573  09 DF     .word $DF09 -> StateIncSlot
; ---------------------------------------------------------------------------
; Range $E575–$E595 (ptr16) MoveUpdateDispatch
; ---------------------------------------------------------------------------

MoveUpdateDispatch:
  $E575  9E DC     .word $DC9E -> NullHandler
  $E577  B1 DF     .word $DFB1 -> DrawSpawnSprite
  $E579  E7 DF     .word $DFE7 -> DrawSmallSprite
  $E57B  FA DF     .word $DFFA -> DrawExpandSprite
  $E57D  FA DF     .word $DFFA -> DrawExpandSprite
  $E57F  81 DF     .word $DF81 -> DrawMovingSprite
  $E581  81 DF     .word $DF81 -> DrawMovingSprite
  $E583  81 DF     .word $DF81 -> DrawMovingSprite
  $E585  6A E0     .word $E06A -> MoveTank
  $E587  6A E0     .word $E06A -> MoveTank
  $E589  6A E0     .word $E06A -> MoveTank
  $E58B  6A E0     .word $E06A -> MoveTank
  $E58D  6A E0     .word $E06A -> MoveTank
  $E58F  6A E0     .word $E06A -> MoveTank
  $E591  BF E0     .word $E0BF -> DrawShootSprite
  $E593  BF E0     .word $E0BF -> DrawShootSprite
; ---------------------------------------------------------------------------
; Range $E595–$E5A9 (ptr16) BulletDispatch
; ---------------------------------------------------------------------------

BulletDispatchTable:
  $E595  9E DC     .word $DC9E -> NullHandler
  $E597  2A E1     .word $E12A -> BulletCountdown
  $E599  2A E1     .word $E12A -> BulletCountdown
  $E59B  2A E1     .word $E12A -> BulletCountdown
  $E59D  05 E1     .word $E105 -> BulletImpact
  $E59F  9E DC     .word $DC9E -> NullHandler
  $E5A1  C6 E1     .word $E1C6 -> BulletTravel
  $E5A3  C6 E1     .word $E1C6 -> BulletTravel
  $E5A5  C6 E1     .word $E1C6 -> BulletTravel
  $E5A7  AF E1     .word $E1AF -> BulletExplode
; ---------------------------------------------------------------------------
; Range $E5A9–$E5D1 (u8) EnemyTypeTable
; ---------------------------------------------------------------------------

EnemyTypeTable:
  $E5A9  80        .byte $80  ; 128 ; EnemyTypeTable[40]: Y=(GameSpeed-1)*4+slot; maps 4 enemy type slots to EntityType bytes; $80=Basic/$A0=Fast/$C0=Power/$E0=Armor; order shuffled per difficulty
  $E5AA  A0        .byte $A0  ; 160
  $E5AB  C0        .byte $C0  ; 192
  $E5AC  E0        .byte $E0  ; 224
  $E5AD  80        .byte $80  ; 128
  $E5AE  A0        .byte $A0  ; 160
  $E5AF  C0        .byte $C0  ; 192
  $E5B0  E0        .byte $E0  ; 224
  $E5B1  A0        .byte $A0  ; 160
  $E5B2  C0        .byte $C0  ; 192
  $E5B3  E0        .byte $E0  ; 224
  $E5B4  80        .byte $80  ; 128
  $E5B5  C0        .byte $C0  ; 192
  $E5B6  A0        .byte $A0  ; 160
  $E5B7  80        .byte $80  ; 128
  $E5B8  E0        .byte $E0  ; 224
  $E5B9  C0        .byte $C0  ; 192
  $E5BA  E0        .byte $E0  ; 224
  $E5BB  80        .byte $80  ; 128
  $E5BC  A0        .byte $A0  ; 160
  $E5BD  E0        .byte $E0  ; 224
  $E5BE  A0        .byte $A0  ; 160
  $E5BF  C0        .byte $C0  ; 192
  $E5C0  80        .byte $80  ; 128
  $E5C1  80        .byte $80  ; 128
  $E5C2  A0        .byte $A0  ; 160
  $E5C3  C0        .byte $C0  ; 192
  $E5C4  E0        .byte $E0  ; 224
  $E5C5  C0        .byte $C0  ; 192
  $E5C6  E0        .byte $E0  ; 224
  $E5C7  A0        .byte $A0  ; 160
  $E5C8  80        .byte $80  ; 128
  $E5C9  C0        .byte $C0  ; 192
  $E5CA  A0        .byte $A0  ; 160
  $E5CB  80        .byte $80  ; 128
  $E5CC  E0        .byte $E0  ; 224
  $E5CD  A0        .byte $A0  ; 160
  $E5CE  E0        .byte $E0  ; 224
  $E5CF  C0        .byte $C0  ; 192
  $E5D0  A0        .byte $A0  ; 160
; ---------------------------------------------------------------------------
; Range $E5D1–$E6A9 (hex8)
; ---------------------------------------------------------------------------
  $E5D1  C0        .byte $C0
  $E5D2  A0        .byte $A0
  $E5D3  80        .byte $80
  $E5D4  E0        .byte $E0
  $E5D5  C0        .byte $C0
  $E5D6  A0        .byte $A0
  $E5D7  80        .byte $80
  $E5D8  E0        .byte $E0
  $E5D9  C0        .byte $C0
  $E5DA  E0        .byte $E0
  $E5DB  A0        .byte $A0
  $E5DC  80        .byte $80
  $E5DD  80        .byte $80
  $E5DE  A0        .byte $A0
  $E5DF  C0        .byte $C0
  $E5E0  E0        .byte $E0
  $E5E1  80        .byte $80
  $E5E2  C0        .byte $C0
  $E5E3  A0        .byte $A0
  $E5E4  E0        .byte $E0
  $E5E5  80        .byte $80
  $E5E6  C0        .byte $C0
  $E5E7  A0        .byte $A0
  $E5E8  E0        .byte $E0
  $E5E9  E0        .byte $E0
  $E5EA  A0        .byte $A0
  $E5EB  C0        .byte $C0
  $E5EC  80        .byte $80
  $E5ED  E0        .byte $E0
  $E5EE  80        .byte $80
  $E5EF  C0        .byte $C0
  $E5F0  A0        .byte $A0
  $E5F1  A0        .byte $A0
  $E5F2  E0        .byte $E0
  $E5F3  80        .byte $80
  $E5F4  C0        .byte $C0
  $E5F5  A0        .byte $A0
  $E5F6  E0        .byte $E0
  $E5F7  C0        .byte $C0
  $E5F8  A0        .byte $A0
  $E5F9  C0        .byte $C0
  $E5FA  A0        .byte $A0
  $E5FB  80        .byte $80
  $E5FC  E0        .byte $E0
  $E5FD  A0        .byte $A0
  $E5FE  80        .byte $80
  $E5FF  C0        .byte $C0
  $E600  E0        .byte $E0
  $E601  E0        .byte $E0
  $E602  80        .byte $80
  $E603  C0        .byte $C0
  $E604  A0        .byte $A0
  $E605  C0        .byte $C0
  $E606  E0        .byte $E0
  $E607  A0        .byte $A0
  $E608  80        .byte $80
  $E609  C0        .byte $C0
  $E60A  A0        .byte $A0
  $E60B  80        .byte $80
  $E60C  E0        .byte $E0
  $E60D  A0        .byte $A0
  $E60E  E0        .byte $E0
  $E60F  80        .byte $80
  $E610  C0        .byte $C0
  $E611  C0        .byte $C0
  $E612  E0        .byte $E0
  $E613  A0        .byte $A0
  $E614  80        .byte $80
  $E615  A0        .byte $A0
  $E616  E0        .byte $E0
  $E617  80        .byte $80
  $E618  C0        .byte $C0
  $E619  C0        .byte $C0
  $E61A  A0        .byte $A0
  $E61B  80        .byte $80
  $E61C  E0        .byte $E0
  $E61D  80        .byte $80
  $E61E  A0        .byte $A0
  $E61F  C0        .byte $C0
  $E620  E0        .byte $E0
  $E621  C0        .byte $C0
  $E622  A0        .byte $A0
  $E623  E0        .byte $E0
  $E624  C0        .byte $C0
  $E625  E0        .byte $E0
  $E626  80        .byte $80
  $E627  C0        .byte $C0
  $E628  A0        .byte $A0
  $E629  A0        .byte $A0
  $E62A  E0        .byte $E0
  $E62B  C0        .byte $C0
  $E62C  A0        .byte $A0
  $E62D  C0        .byte $C0
  $E62E  A0        .byte $A0
  $E62F  E0        .byte $E0
  $E630  80        .byte $80
  $E631  C0        .byte $C0
  $E632  A0        .byte $A0
  $E633  80        .byte $80
  $E634  E0        .byte $E0
  $E635  C0        .byte $C0
  $E636  A0        .byte $A0
  $E637  80        .byte $80
  $E638  E0        .byte $E0
  $E639  C0        .byte $C0
  $E63A  A0        .byte $A0
  $E63B  80        .byte $80
  $E63C  E0        .byte $E0
  $E63D  C0        .byte $C0
  $E63E  A0        .byte $A0
  $E63F  80        .byte $80
  $E640  E0        .byte $E0
  $E641  C0        .byte $C0
  $E642  A0        .byte $A0
  $E643  80        .byte $80
  $E644  E0        .byte $E0
  $E645  A0        .byte $A0
  $E646  E0        .byte $E0
  $E647  A0        .byte $A0
  $E648  E0        .byte $E0
  $E649  C0        .byte $C0
  $E64A  A0        .byte $A0
  $E64B  80        .byte $80
  $E64C  E0        .byte $E0
  $E64D  C0        .byte $C0
  $E64E  A0        .byte $A0
  $E64F  80        .byte $80
  $E650  E0        .byte $E0
  $E651  C0        .byte $C0
  $E652  A0        .byte $A0
  $E653  80        .byte $80
  $E654  E0        .byte $E0
  $E655  C0        .byte $C0
  $E656  A0        .byte $A0
  $E657  80        .byte $80
  $E658  E0        .byte $E0
  $E659  A0        .byte $A0
  $E65A  E0        .byte $E0
  $E65B  A0        .byte $A0
  $E65C  E0        .byte $E0
  $E65D  C0        .byte $C0
  $E65E  A0        .byte $A0
  $E65F  80        .byte $80
  $E660  E0        .byte $E0
  $E661  A0        .byte $A0
  $E662  E0        .byte $E0
  $E663  A0        .byte $A0
  $E664  E0        .byte $E0
  $E665  C0        .byte $C0
  $E666  E0        .byte $E0
  $E667  80        .byte $80
  $E668  A0        .byte $A0
  $E669  A0        .byte $A0
  $E66A  E0        .byte $E0
  $E66B  A0        .byte $A0
  $E66C  E0        .byte $E0
  $E66D  E0        .byte $E0
  $E66E  A0        .byte $A0
  $E66F  E0        .byte $E0
  $E670  A0        .byte $A0
  $E671  C0        .byte $C0
  $E672  A0        .byte $A0
  $E673  80        .byte $80
  $E674  E0        .byte $E0
  $E675  C0        .byte $C0
  $E676  A0        .byte $A0
  $E677  80        .byte $80
  $E678  E0        .byte $E0
  $E679  C0        .byte $C0
  $E67A  A0        .byte $A0
  $E67B  80        .byte $80
  $E67C  E0        .byte $E0
  $E67D  E0        .byte $E0
  $E67E  A0        .byte $A0
  $E67F  E0        .byte $E0
  $E680  A0        .byte $A0
  $E681  A0        .byte $A0
  $E682  E0        .byte $E0
  $E683  A0        .byte $A0
  $E684  E0        .byte $E0
  $E685  C0        .byte $C0
  $E686  A0        .byte $A0
  $E687  80        .byte $80
  $E688  E0        .byte $E0
  $E689  A0        .byte $A0
  $E68A  80        .byte $80
  $E68B  C0        .byte $C0
  $E68C  E0        .byte $E0
  $E68D  A0        .byte $A0
  $E68E  E0        .byte $E0
  $E68F  A0        .byte $A0
  $E690  E0        .byte $E0
  $E691  A0        .byte $A0
  $E692  E0        .byte $E0
  $E693  A0        .byte $A0
  $E694  E0        .byte $E0
  $E695  C0        .byte $C0
  $E696  A0        .byte $A0
  $E697  80        .byte $80
  $E698  E0        .byte $E0
  $E699  A0        .byte $A0
  $E69A  E0        .byte $E0
  $E69B  A0        .byte $A0
  $E69C  E0        .byte $E0
  $E69D  C0        .byte $C0
  $E69E  A0        .byte $A0
  $E69F  80        .byte $80
  $E6A0  E0        .byte $E0
  $E6A1  A0        .byte $A0
  $E6A2  E0        .byte $E0
  $E6A3  A0        .byte $A0
  $E6A4  E0        .byte $E0
  $E6A5  C0        .byte $C0
  $E6A6  A0        .byte $A0
  $E6A7  80        .byte $80
  $E6A8  E0        .byte $E0
; ---------------------------------------------------------------------------
; Range $E6A9–$E739 (u8) SpeedTable
; ---------------------------------------------------------------------------

SpeedTable:
  $E6A9  12        .byte $12  ; 18
  $E6AA  02        .byte $02  ; 2
  $E6AB  00        .byte $00  ; 0
  $E6AC  00        .byte $00  ; 0
  $E6AD  10        .byte $10  ; 16
  $E6AE  02        .byte $02  ; 2
  $E6AF  00        .byte $00  ; 0
  $E6B0  02        .byte $02  ; 2
  $E6B1  05        .byte $05  ; 5
  $E6B2  05        .byte $05  ; 5
  $E6B3  05        .byte $05  ; 5
  $E6B4  05        .byte $05  ; 5
  $E6B5  08        .byte $08  ; 8
  $E6B6  05        .byte $05  ; 5
  $E6B7  04        .byte $04  ; 4
  $E6B8  03        .byte $03  ; 3
  $E6B9  05        .byte $05  ; 5
  $E6BA  02        .byte $02  ; 2
  $E6BB  08        .byte $08  ; 8
  $E6BC  05        .byte $05  ; 5
  $E6BD  03        .byte $03  ; 3
  $E6BE  04        .byte $04  ; 4
  $E6BF  06        .byte $06  ; 6
  $E6C0  07        .byte $07  ; 7
  $E6C1  08        .byte $08  ; 8
  $E6C2  06        .byte $06  ; 6
  $E6C3  04        .byte $04  ; 4
  $E6C4  02        .byte $02  ; 2
  $E6C5  07        .byte $07  ; 7
  $E6C6  02        .byte $02  ; 2
  $E6C7  04        .byte $04  ; 4
  $E6C8  07        .byte $07  ; 7
  $E6C9  08        .byte $08  ; 8
  $E6CA  06        .byte $06  ; 6
  $E6CB  00        .byte $00  ; 0
  $E6CC  06        .byte $06  ; 6
  $E6CD  05        .byte $05  ; 5
  $E6CE  04        .byte $04  ; 4
  $E6CF  06        .byte $06  ; 6
  $E6D0  05        .byte $05  ; 5
  $E6D1  0C        .byte $0C  ; 12
  $E6D2  04        .byte $04  ; 4
  $E6D3  00        .byte $00  ; 0
  $E6D4  04        .byte $04  ; 4
  $E6D5  08        .byte $08  ; 8
  $E6D6  08        .byte $08  ; 8
  $E6D7  00        .byte $00  ; 0
  $E6D8  04        .byte $04  ; 4
  $E6D9  08        .byte $08  ; 8
  $E6DA  04        .byte $04  ; 4
  $E6DB  05        .byte $05  ; 5
  $E6DC  03        .byte $03  ; 3
  $E6DD  08        .byte $08  ; 8
  $E6DE  03        .byte $03  ; 3
  $E6DF  07        .byte $07  ; 7
  $E6E0  02        .byte $02  ; 2
  $E6E1  02        .byte $02  ; 2
  $E6E2  00        .byte $00  ; 0
  $E6E3  0A        .byte $0A  ; 10
  $E6E4  08        .byte $08  ; 8
  $E6E5  06        .byte $06  ; 6
  $E6E6  02        .byte $02  ; 2
  $E6E7  08        .byte $08  ; 8
  $E6E8  04        .byte $04  ; 4
  $E6E9  02        .byte $02  ; 2
  $E6EA  02        .byte $02  ; 2
  $E6EB  08        .byte $08  ; 8
  $E6EC  08        .byte $08  ; 8
  $E6ED  05        .byte $05  ; 5
  $E6EE  02        .byte $02  ; 2
  $E6EF  04        .byte $04  ; 4
  $E6F0  09        .byte $09  ; 9
  $E6F1  04        .byte $04  ; 4
  $E6F2  08        .byte $08  ; 8
  $E6F3  04        .byte $04  ; 4
  $E6F4  04        .byte $04  ; 4
  $E6F5  06        .byte $06  ; 6
  $E6F6  08        .byte $08  ; 8
  $E6F7  02        .byte $02  ; 2
  $E6F8  04        .byte $04  ; 4
  $E6F9  07        .byte $07  ; 7
  $E6FA  03        .byte $03  ; 3
  $E6FB  08        .byte $08  ; 8
  $E6FC  02        .byte $02  ; 2
  $E6FD  09        .byte $09  ; 9
  $E6FE  02        .byte $02  ; 2
  $E6FF  05        .byte $05  ; 5
  $E700  04        .byte $04  ; 4
  $E701  06        .byte $06  ; 6
  $E702  00        .byte $00  ; 0
  $E703  04        .byte $04  ; 4
  $E704  0A        .byte $0A  ; 10
  $E705  02        .byte $02  ; 2
  $E706  06        .byte $06  ; 6
  $E707  0C        .byte $0C  ; 12
  $E708  00        .byte $00  ; 0
  $E709  02        .byte $02  ; 2
  $E70A  08        .byte $08  ; 8
  $E70B  00        .byte $00  ; 0
  $E70C  0A        .byte $0A  ; 10
  $E70D  08        .byte $08  ; 8
  $E70E  08        .byte $08  ; 8
  $E70F  02        .byte $02  ; 2
  $E710  02        .byte $02  ; 2
  $E711  02        .byte $02  ; 2
  $E712  08        .byte $08  ; 8
  $E713  0A        .byte $0A  ; 10
  $E714  00        .byte $00  ; 0
  $E715  07        .byte $07  ; 7
  $E716  04        .byte $04  ; 4
  $E717  04        .byte $04  ; 4
  $E718  05        .byte $05  ; 5
  $E719  0A        .byte $0A  ; 10
  $E71A  04        .byte $04  ; 4
  $E71B  00        .byte $00  ; 0
  $E71C  06        .byte $06  ; 6
  $E71D  02        .byte $02  ; 2
  $E71E  08        .byte $08  ; 8
  $E71F  02        .byte $02  ; 2
  $E720  08        .byte $08  ; 8
  $E721  03        .byte $03  ; 3
  $E722  08        .byte $08  ; 8
  $E723  06        .byte $06  ; 6
  $E724  03        .byte $03  ; 3
  $E725  08        .byte $08  ; 8
  $E726  04        .byte $04  ; 4
  $E727  02        .byte $02  ; 2
  $E728  06        .byte $06  ; 6
  $E729  08        .byte $08  ; 8
  $E72A  04        .byte $04  ; 4
  $E72B  00        .byte $00  ; 0
  $E72C  08        .byte $08  ; 8
  $E72D  02        .byte $02  ; 2
  $E72E  0B        .byte $0B  ; 11
  $E72F  07        .byte $07  ; 7
  $E730  00        .byte $00  ; 0
  $E731  04        .byte $04  ; 4
  $E732  06        .byte $06  ; 6
  $E733  00        .byte $00  ; 0
  $E734  0A        .byte $0A  ; 10
  $E735  04        .byte $04  ; 4
  $E736  06        .byte $06  ; 6
  $E737  00        .byte $00  ; 0
  $E738  0A        .byte $0A  ; 10
; ---------------------------------------------------------------------------
; Range $E739–$EE8B (code)
; ---------------------------------------------------------------------------
  $E739  04 06     NOP $06
  $E73B  00        BRK 
  $E73C  0A        ASL 
  $E73D  04 06     NOP $06
  $E73F  00        BRK 
  $E740  0A        ASL 
  $E741  04 06     NOP $06
  $E743  00        BRK 
  $E744  0A        ASL 
  $E745  05 05     ORA $05
  $E747  05 05     ORA $05
  $E749  00        BRK 
  $E74A  14 00     NOP $00,X
  $E74C  00        BRK 
  $E74D  05 00     ORA $00
  $E74F  0F 00 00  SLO $0000
  $E752  0A        ASL 
  $E753  00        BRK 
  $E754  0A        ASL 
  $E755  00        BRK 
  $E756  0A        ASL 
  $E757  00        BRK 
  $E758  0A        ASL 
  $E759  05 05     ORA $05
  $E75B  05 05     ORA $05
  $E75D  02        ??? 
  $E75E  08        PHP 
  $E75F  00        BRK 
  $E760  0A        ASL 
  $E761  05 05     ORA $05
  $E763  05 05     ORA $05
  $E765  02        ??? 
  $E766  0A        ASL 
  $E767  00        BRK 
  $E768  08        PHP 
  $E769  05 05     ORA $05
  $E76B  05 05     ORA $05
  $E76D  05 05     ORA $05
  $E76F  05 05     ORA $05
  $E771  00        BRK 
  $E772  14 00     NOP $00,X
  $E774  00        BRK 
  $E775  04 06     NOP $06
  $E777  00        BRK 
  $E778  0A        ASL 
  $E779  00        BRK 
  $E77A  00        BRK 
  $E77B  00        BRK 
  $E77C  14 05     NOP $05,X
  $E77E  05 05     ORA $05
  $E780  05 05     ORA $05
  $E782  05 05     ORA $05
  $E784  05 0A     ORA $0A
  $E786  00        BRK 
  $E787  0A        ASL 
  $E788  00        BRK 
  $E789  0A        ASL 
  $E78A  00        BRK 
  $E78B  04 06     NOP $06
  $E78D  06 04     ASL $04
  $E78F  06 04     ASL $04
  $E791  07 03     SLO $03
  $E793  07 03     SLO $03
  $E795  0A        ASL 
  $E796  0A        ASL 
  $E797  00        BRK 
  $E798  00        BRK 
  $E799  06 04     ASL $04
  $E79B  06 04     ASL $04
  $E79D  00        BRK 
  $E79E  00        BRK 
  $E79F  00        BRK 
  $E7A0  14 04     NOP $04,X
  $E7A2  06 04     ASL $04
  $E7A4  06 0A     ASL $0A
  $E7A6  00        BRK 
  $E7A7  00        BRK 
  $E7A8  0A        ASL 

BulletMoveCollision:
  $E7A9  A9 09     LDA #$09 ; BulletMoveCollision: loop slots 9→0; skip non-active; compute |dx|/|dy| and *4; probe1=BulletTileCollision(BX
  $E7AB  85 5A     STA $5A
  $E7AD  A6 5A     LDX $5A
  $E7AF  B5 CC     LDA $CC,X
  $E7B1  29 F0     AND #$F0
  $E7B3  C9 40     CMP #$40
  $E7B5  D0 79     BNE $E830
  $E7B7  B5 D6     LDA $D6,X
  $E7B9  D0 07     BNE $E7C2
  $E7BB  8A        TXA 
  $E7BC  45 0B     EOR $0B
  $E7BE  29 01     AND #$01
  $E7C0  F0 6E     BEQ $E830
  $E7C2  B5 CC     LDA $CC,X
  $E7C4  29 03     AND #$03
  $E7C6  A8        TAY 
  $E7C7  B9 EE EB  LDA BulletDeltaX,Y
  $E7CA  10 05     BPL $E7D1
  $E7CC  49 FF     EOR #$FF
  $E7CE  18        CLC 
  $E7CF  69 01     ADC #$01
  $E7D1  85 54     STA $54
  $E7D3  0A        ASL 
  $E7D4  0A        ASL 
  $E7D5  85 64     STA $64
  $E7D7  B9 F2 EB  LDA BulletDeltaY,Y
  $E7DA  10 05     BPL $E7E1
  $E7DC  49 FF     EOR #$FF
  $E7DE  18        CLC 
  $E7DF  69 01     ADC #$01
  $E7E1  85 55     STA $55
  $E7E3  0A        ASL 
  $E7E4  0A        ASL 
  $E7E5  85 65     STA $65
  $E7E7  B4 C2     LDY $C2,X
  $E7E9  B5 B8     LDA $B8,X
  $E7EB  AA        TAX 
  $E7EC  20 38 E8  JSR BulletTileCollision
  $E7EF  F0 13     BEQ $E804
  $E7F1  A6 5A     LDX $5A
  $E7F3  B5 C2     LDA $C2,X
  $E7F5  18        CLC 
  $E7F6  65 64     ADC $64
  $E7F8  85 48     STA $48
  $E7FA  B5 B8     LDA $B8,X
  $E7FC  18        CLC 
  $E7FD  65 65     ADC $65
  $E7FF  85 47     STA $47
  $E801  20 3F E8  JSR $E83F
  $E804  A6 5A     LDX $5A
  $E806  B5 C2     LDA $C2,X
  $E808  38        SEC 
  $E809  E5 54     SBC $54
  $E80B  A8        TAY 
  $E80C  B5 B8     LDA $B8,X
  $E80E  38        SEC 
  $E80F  E5 55     SBC $55
  $E811  AA        TAX 
  $E812  20 38 E8  JSR BulletTileCollision
  $E815  F0 19     BEQ $E830
  $E817  A6 5A     LDX $5A
  $E819  B5 C2     LDA $C2,X
  $E81B  38        SEC 
  $E81C  E5 64     SBC $64
  $E81E  38        SEC 
  $E81F  E5 54     SBC $54
  $E821  85 48     STA $48
  $E823  B5 B8     LDA $B8,X
  $E825  38        SEC 
  $E826  E5 65     SBC $65
  $E828  38        SEC 
  $E829  E5 55     SBC $55
  $E82B  85 47     STA $47
  $E82D  20 3F E8  JSR $E83F
  $E830  C6 5A     DEC $5A
  $E832  30 03     BMI $E837
  $E834  4C AD E7  JMP $E7AD
  $E837  60        RTS 

BulletTileCollision:
  $E838  86 47     STX $47 ; BulletTileCollision: (X=px
  $E83A  84 48     STY $48
  $E83C  20 26 D7  JSR PPUAddrFromXY
  $E83F  20 45 D7  JSR $D745
  $E842  20 5C D7  JSR $D75C
  $E845  F0 67     BEQ $E8AE
  $E847  B1 11     LDA ($11),Y
  $E849  29 FC     AND #$FC
  $E84B  C9 C8     CMP #$C8
  $E84D  D0 1C     BNE $E86B
  $E84F  A5 68     LDA $68
  $E851  F0 18     BEQ $E86B
  $E853  A9 27     LDA #$27
  $E855  85 68     STA $68 ; Eagle bullet hit: if $68≠0 set $68=$27 (start 39-frame destruction timer); $030B=$0307=1; STA $CC
  $E857  A9 01     LDA #$01
  $E859  8D 0B 03  STA $030B
  $E85C  8D 07 03  STA $0307
  $E85F  20 25 CA  JSR $CA25
  $E862  A6 5A     LDX $5A
  $E864  A9 33     LDA #$33
  $E866  95 CC     STA $CC,X
  $E868  4C AE E8  JMP $E8AE
  $E86B  B1 11     LDA ($11),Y
  $E86D  C9 12     CMP #$12
  $E86F  B0 3D     BCS $E8AE
  $E871  A6 5A     LDX $5A
  $E873  A9 33     LDA #$33
  $E875  95 CC     STA $CC,X
  $E877  B1 11     LDA ($11),Y
  $E879  C9 11     CMP #$11
  $E87B  F0 28     BEQ $E8A5
  $E87D  B5 D6     LDA $D6,X
  $E87F  29 02     AND #$02
  $E881  F0 0D     BEQ $E890
  $E883  A9 00     LDA #$00
  $E885  20 A4 D7  JSR $D7A4
  $E888  A9 01     LDA #$01
  $E88A  8D 0C 03  STA $030C
  $E88D  4C AE E8  JMP $E8AE
  $E890  B1 11     LDA ($11),Y
  $E892  C9 10     CMP #$10
  $E894  F0 0F     BEQ $E8A5
  $E896  E0 02     CPX #$02
  $E898  B0 05     BCS $E89F
  $E89A  A9 01     LDA #$01
  $E89C  8D 0C 03  STA $030C
  $E89F  20 63 D7  JSR $D763
  $E8A2  A9 01     LDA #$01
  $E8A4  60        RTS 
  $E8A5  E0 02     CPX #$02
  $E8A7  B0 05     BCS $E8AE
  $E8A9  A9 01     LDA #$01
  $E8AB  8D 0D 03  STA $030D
  $E8AE  A9 00     LDA #$00
  $E8B0  60        RTS 

EnemyBulletPlayerHit:
  $E8B1  A9 01     LDA #$01 ; EnemyBulletPlayerHit: dual loop — Loop1(players X=1→0 vs enemy bullets Y=7→1): 10x10px check; shield→deflect; else death $A0
  $E8B3  85 5A     STA $5A
  $E8B5  A6 5A     LDX $5A
  $E8B7  B5 A0     LDA $A0,X
  $E8B9  10 04     BPL $E8BF
  $E8BB  C9 E0     CMP #$E0
  $E8BD  90 03     BCC $E8C2
  $E8BF  4C 1F E9  JMP $E91F
  $E8C2  A9 07     LDA #$07
  $E8C4  85 5B     STA $5B
  $E8C6  A4 5B     LDY $5B
  $E8C8  B9 CC 00  LDA $00CC,Y
  $E8CB  29 F0     AND #$F0
  $E8CD  C9 40     CMP #$40
  $E8CF  D0 46     BNE $E917
  $E8D1  B9 B8 00  LDA $00B8,Y
  $E8D4  38        SEC 
  $E8D5  F5 90     SBC $90,X
  $E8D7  10 05     BPL $E8DE
  $E8D9  49 FF     EOR #$FF
  $E8DB  18        CLC 
  $E8DC  69 01     ADC #$01
  $E8DE  C9 0A     CMP #$0A
  $E8E0  B0 35     BCS $E917
  $E8E2  B9 C2 00  LDA $00C2,Y
  $E8E5  38        SEC 
  $E8E6  F5 98     SBC $98,X
  $E8E8  10 05     BPL $E8EF
  $E8EA  49 FF     EOR #$FF
  $E8EC  18        CLC 
  $E8ED  69 01     ADC #$01
  $E8EF  C9 0A     CMP #$0A
  $E8F1  B0 24     BCS $E917
  $E8F3  A9 33     LDA #$33
  $E8F5  99 CC 00  STA $00CC,Y
  $E8F8  B5 89     LDA $89,X
  $E8FA  F0 08     BEQ $E904
  $E8FC  A9 00     LDA #$00
  $E8FE  99 CC 00  STA $00CC,Y
  $E901  4C 17 E9  JMP $E917
  $E904  A9 73     LDA #$73
  $E906  95 A0     STA $A0,X
  $E908  A9 01     LDA #$01
  $E90A  8D 07 03  STA $0307
  $E90D  A9 00     LDA #$00
  $E90F  9D 01 01  STA $0101,X
  $E912  95 A8     STA $A8,X
  $E914  4C 1F E9  JMP $E91F
  $E917  C6 5B     DEC $5B
  $E919  A5 5B     LDA $5B
  $E91B  C9 01     CMP #$01
  $E91D  D0 A7     BNE $E8C6
  $E91F  C6 5A     DEC $5A
  $E921  10 92     BPL $E8B5
  $E923  A9 07     LDA #$07
  $E925  85 5A     STA $5A
  $E927  A6 5A     LDX $5A
  $E929  B5 A0     LDA $A0,X
  $E92B  10 04     BPL $E931
  $E92D  C9 E0     CMP #$E0
  $E92F  90 03     BCC $E934
  $E931  4C D9 E9  JMP $E9D9
  $E934  A9 09     LDA #$09
  $E936  85 5B     STA $5B
  $E938  A5 5B     LDA $5B
  $E93A  29 06     AND #$06
  $E93C  F0 03     BEQ $E941
  $E93E  4C D2 E9  JMP $E9D2
  $E941  A4 5B     LDY $5B
  $E943  B9 CC 00  LDA $00CC,Y
  $E946  29 F0     AND #$F0
  $E948  C9 40     CMP #$40
  $E94A  F0 03     BEQ $E94F
  $E94C  4C D2 E9  JMP $E9D2
  $E94F  B9 B8 00  LDA $00B8,Y
  $E952  38        SEC 
  $E953  F5 90     SBC $90,X
  $E955  10 05     BPL $E95C
  $E957  49 FF     EOR #$FF
  $E959  18        CLC 
  $E95A  69 01     ADC #$01
  $E95C  C9 0A     CMP #$0A
  $E95E  B0 72     BCS $E9D2
  $E960  B9 C2 00  LDA $00C2,Y
  $E963  38        SEC 
  $E964  F5 98     SBC $98,X
  $E966  10 05     BPL $E96D
  $E968  49 FF     EOR #$FF
  $E96A  18        CLC 
  $E96B  69 01     ADC #$01
  $E96D  C9 0A     CMP #$0A
  $E96F  B0 61     BCS $E9D2
  $E971  A9 33     LDA #$33
  $E973  99 CC 00  STA $00CC,Y
  $E976  B5 A8     LDA $A8,X
  $E978  29 04     AND #$04
  $E97A  F0 0B     BEQ $E987
  $E97C  20 63 EA  JSR PowerUpSpawnPickPos
  $E97F  B5 A8     LDA $A8,X
  $E981  C9 E4     CMP #$E4
  $E983  D0 02     BNE $E987
  $E985  D6 A8     DEC $A8,X
  $E987  B5 A8     LDA $A8,X
  $E989  29 03     AND #$03
  $E98B  F0 0A     BEQ $E997
  $E98D  D6 A8     DEC $A8,X
  $E98F  A9 01     LDA #$01
  $E991  8D 0E 03  STA $030E
  $E994  4C D2 E9  JMP $E9D2
  $E997  A9 73     LDA #$73
  $E999  95 A0     STA $A0,X
  $E99B  A9 01     LDA #$01
  $E99D  8D 0A 03  STA $030A
  $E9A0  B5 A8     LDA $A8,X
  $E9A2  4A        LSR 
  $E9A3  4A        LSR 
  $E9A4  4A        LSR 
  $E9A5  4A        LSR 
  $E9A6  4A        LSR 
  $E9A7  38        SEC 
  $E9A8  E9 04     SBC #$04
  $E9AA  AA        TAX 
  $E9AB  A5 5B     LDA $5B
  $E9AD  29 01     AND #$01
  $E9AF  85 47     STA $47
  $E9B1  D0 05     BNE $E9B8
  $E9B3  F6 73     INC $73,X
  $E9B5  4C BA E9  JMP $E9BA
  $E9B8  F6 77     INC $77,X
  $E9BA  A5 46     LDA $46
  $E9BC  C9 02     CMP #$02
  $E9BE  F0 19     BEQ $E9D9
  $E9C0  BD 5F EA  LDA $EA5F,X
  $E9C3  20 62 DA  JSR SetScoreWeight
  $E9C6  A5 47     LDA $47
  $E9C8  AA        TAX 
  $E9C9  20 31 DA  JSR ScoreAdd
  $E9CC  20 44 CF  JSR LivesGrantCheck
  $E9CF  4C D9 E9  JMP $E9D9
  $E9D2  C6 5B     DEC $5B
  $E9D4  30 03     BMI $E9D9
  $E9D6  4C 38 E9  JMP $E938
  $E9D9  C6 5A     DEC $5A
  $E9DB  A5 5A     LDA $5A
  $E9DD  C9 01     CMP #$01
  $E9DF  F0 03     BEQ $E9E4
  $E9E1  4C 27 E9  JMP $E927
  $E9E4  A9 01     LDA #$01
  $E9E6  85 5A     STA $5A
  $E9E8  A6 5A     LDX $5A
  $E9EA  B5 A0     LDA $A0,X
  $E9EC  10 04     BPL $E9F2
  $E9EE  C9 E0     CMP #$E0
  $E9F0  90 03     BCC $E9F5
  $E9F2  4C 5A EA  JMP $EA5A
  $E9F5  A9 09     LDA #$09
  $E9F7  85 5B     STA $5B
  $E9F9  A5 5B     LDA $5B
  $E9FB  29 06     AND #$06
  $E9FD  D0 57     BNE $EA56
  $E9FF  A4 5B     LDY $5B
  $EA01  B9 CC 00  LDA $00CC,Y
  $EA04  29 F0     AND #$F0
  $EA06  C9 40     CMP #$40
  $EA08  D0 4C     BNE $EA56
  $EA0A  A5 5A     LDA $5A
  $EA0C  45 5B     EOR $5B
  $EA0E  29 01     AND #$01
  $EA10  F0 44     BEQ $EA56
  $EA12  B9 B8 00  LDA $00B8,Y
  $EA15  38        SEC 
  $EA16  F5 90     SBC $90,X
  $EA18  10 05     BPL $EA1F
  $EA1A  49 FF     EOR #$FF
  $EA1C  18        CLC 
  $EA1D  69 01     ADC #$01
  $EA1F  C9 0A     CMP #$0A
  $EA21  B0 33     BCS $EA56
  $EA23  B9 C2 00  LDA $00C2,Y
  $EA26  38        SEC 
  $EA27  F5 98     SBC $98,X
  $EA29  10 05     BPL $EA30
  $EA2B  49 FF     EOR #$FF
  $EA2D  18        CLC 
  $EA2E  69 01     ADC #$01
  $EA30  C9 0A     CMP #$0A
  $EA32  B0 22     BCS $EA56
  $EA34  A9 33     LDA #$33
  $EA36  99 CC 00  STA $00CC,Y
  $EA39  B5 89     LDA $89,X
  $EA3B  F0 08     BEQ $EA45
  $EA3D  A9 00     LDA #$00
  $EA3F  99 CC 00  STA $00CC,Y
  $EA42  4C 56 EA  JMP $EA56
  $EA45  B5 6F     LDA $6F,X
  $EA47  D0 0D     BNE $EA56
  $EA49  A5 46     LDA $46
  $EA4B  C9 02     CMP #$02
  $EA4D  F0 07     BEQ $EA56
  $EA4F  A9 C8     LDA #$C8
  $EA51  95 6F     STA $6F,X
  $EA53  4C 5A EA  JMP $EA5A
  $EA56  C6 5B     DEC $5B
  $EA58  10 9F     BPL $E9F9
  $EA5A  C6 5A     DEC $5A
  $EA5C  10 8A     BPL $E9E8
  $EA5E  60        RTS 
  $EA5F  10 20     BPL $EA81
  $EA61  30 40     BMI $EAA3

PowerUpSpawnPickPos:
  $EA63  A9 01     LDA #$01
  $EA65  8D 09 03  STA $0309
  $EA68  20 7C D3  JSR RNG
  $EA6B  29 03     AND #$03
  $EA6D  20 A7 EA  JSR RNGToCoord
  $EA70  85 86     STA $86
  $EA72  20 7C D3  JSR RNG
  $EA75  29 03     AND #$03
  $EA77  20 A7 EA  JSR RNGToCoord
  $EA7A  85 87     STA $87
  $EA7C  A9 FF     LDA #$FF
  $EA7E  85 88     STA $88
  $EA80  A9 00     LDA #$00
  $EA82  85 62     STA $62
  $EA84  20 17 EB  JSR PowerUpCollision
  $EA87  A5 62     LDA $62
  $EA89  D0 DD     BNE $EA68
  $EA8B  20 7C D3  JSR RNG
  $EA8E  29 07     AND #$07
  $EA90  A8        TAY 
  $EA91  B9 9F EA  LDA PowerUpTypeRNG,Y
  $EA94  85 88     STA $88
  $EA96  A9 00     LDA #$00
  $EA98  85 62     STA $62
  $EA9A  A6 5A     LDX $5A
  $EA9C  A4 5B     LDY $5B
  $EA9E  60        RTS 

PowerUpTypeRNG:
  $EA9F  00        BRK 
  $EAA0  01 02     ORA ($02,X)
  $EAA2  03 04     SLO ($04,X)
  $EAA4  00        BRK 
  $EAA5  04 03     NOP $03

RNGToCoord:
  $EAA7  85 00     STA $00
  $EAA9  0A        ASL 
  $EAAA  18        CLC 
  $EAAB  65 00     ADC $00
  $EAAD  0A        ASL 
  $EAAE  18        CLC 
  $EAAF  69 06     ADC #$06
  $EAB1  0A        ASL 
  $EAB2  0A        ASL 
  $EAB3  0A        ASL 
  $EAB4  60        RTS 

BulletVsBulletCancel:
  $EAB5  A9 09     LDA #$09 ; BulletVsBulletCancel: only player bullet slots (slot&6==0); inner loop all slots; same-entity skip; both active $40-$4F within 6x6px → both CC=0
  $EAB7  85 5A     STA $5A
  $EAB9  A5 5A     LDA $5A
  $EABB  29 06     AND #$06
  $EABD  D0 53     BNE $EB12
  $EABF  A6 5A     LDX $5A
  $EAC1  B5 CC     LDA $CC,X
  $EAC3  29 F0     AND #$F0
  $EAC5  C9 40     CMP #$40
  $EAC7  D0 49     BNE $EB12
  $EAC9  A9 09     LDA #$09
  $EACB  85 5B     STA $5B
  $EACD  A5 5B     LDA $5B
  $EACF  A8        TAY 
  $EAD0  29 07     AND #$07
  $EAD2  85 00     STA $00
  $EAD4  A5 5A     LDA $5A
  $EAD6  29 07     AND #$07
  $EAD8  C5 00     CMP $00
  $EADA  F0 32     BEQ $EB0E
  $EADC  B9 CC 00  LDA $00CC,Y
  $EADF  29 F0     AND #$F0
  $EAE1  C9 40     CMP #$40
  $EAE3  D0 29     BNE $EB0E
  $EAE5  B9 B8 00  LDA $00B8,Y
  $EAE8  38        SEC 
  $EAE9  F5 B8     SBC $B8,X
  $EAEB  10 05     BPL $EAF2
  $EAED  49 FF     EOR #$FF
  $EAEF  18        CLC 
  $EAF0  69 01     ADC #$01
  $EAF2  C9 06     CMP #$06
  $EAF4  B0 18     BCS $EB0E
  $EAF6  B9 C2 00  LDA $00C2,Y
  $EAF9  38        SEC 
  $EAFA  F5 C2     SBC $C2,X
  $EAFC  10 05     BPL $EB03
  $EAFE  49 FF     EOR #$FF
  $EB00  18        CLC 
  $EB01  69 01     ADC #$01
  $EB03  C9 06     CMP #$06
  $EB05  B0 07     BCS $EB0E
  $EB07  A9 00     LDA #$00
  $EB09  95 CC     STA $CC,X
  $EB0B  99 CC 00  STA $00CC,Y
  $EB0E  C6 5B     DEC $5B
  $EB10  10 BB     BPL $EACD
  $EB12  C6 5A     DEC $5A
  $EB14  10 A3     BPL $EAB9
  $EB16  60        RTS 

PowerUpCollision:
  $EB17  A5 86     LDA $86
  $EB19  F0 6B     BEQ $EB86
  $EB1B  A5 62     LDA $62
  $EB1D  D0 67     BNE $EB86
  $EB1F  A9 01     LDA #$01
  $EB21  85 49     STA $49
  $EB23  A6 49     LDX $49
  $EB25  B5 A0     LDA $A0,X
  $EB27  10 59     BPL $EB82
  $EB29  C9 E0     CMP #$E0
  $EB2B  B0 55     BCS $EB82
  $EB2D  B5 90     LDA $90,X
  $EB2F  38        SEC 
  $EB30  E5 86     SBC $86
  $EB32  10 05     BPL $EB39
  $EB34  49 FF     EOR #$FF
  $EB36  18        CLC 
  $EB37  69 01     ADC #$01
  $EB39  C9 0C     CMP #$0C
  $EB3B  B0 45     BCS $EB82
  $EB3D  B5 98     LDA $98,X
  $EB3F  38        SEC 
  $EB40  E5 87     SBC $87
  $EB42  10 05     BPL $EB49
  $EB44  49 FF     EOR #$FF
  $EB46  18        CLC 
  $EB47  69 01     ADC #$01
  $EB49  C9 0C     CMP #$0C
  $EB4B  B0 35     BCS $EB82
  $EB4D  A9 32     LDA #$32
  $EB4F  85 62     STA $62
  $EB51  A5 88     LDA $88
  $EB53  30 31     BMI $EB86
  $EB55  A5 46     LDA $46
  $EB57  C9 02     CMP #$02
  $EB59  F0 14     BEQ $EB6F
  $EB5B  A9 50     LDA #$50
  $EB5D  20 62 DA  JSR SetScoreWeight
  $EB60  A6 49     LDX $49
  $EB62  20 31 DA  JSR ScoreAdd
  $EB65  20 44 CF  JSR LivesGrantCheck
  $EB68  A6 49     LDX $49
  $EB6A  A9 01     LDA #$01
  $EB6C  8D 06 03  STA $0306
  $EB6F  A5 88     LDA $88
  $EB71  0A        ASL 
  $EB72  A8        TAY 
  $EB73  B9 87 EB  LDA $EB87,Y
  $EB76  85 11     STA $11
  $EB78  B9 88 EB  LDA $EB88,Y
  $EB7B  85 12     STA $12
  $EB7D  68        PLA 
  $EB7E  68        PLA 
  $EB7F  6C 11 00  JMP ($0011)
  $EB82  C6 49     DEC $49
  $EB84  10 9D     BPL $EB23
  $EB86  60        RTS 
  $EB87  95 EB     STA $EB,X
  $EB89  9A        TXS 
  $EB8A  EB        ??? 
  $EB8B  A0 EB     LDY #$EB
  $EB8D  AC EB BC  LDY $BCEB
  $EB90  EB        ??? 
  $EB91  E3 EB     ISC ($EB,X)
  $EB93  ED EB A9  SBC $A9EB
  $EB96  0A        ASL 
  $EB97  95 89     STA $89,X
  $EB99  60        RTS 
  $EB9A  A9 0A     LDA #$0A
  $EB9C  8D 00 01  STA $0100
  $EB9F  60        RTS 
  $EBA0  A5 68     LDA $68
  $EBA2  10 07     BPL $EBAB
  $EBA4  20 BB C9  JSR SteelWallFortify
  $EBA7  A9 14     LDA #$14
  $EBA9  85 45     STA $45
  $EBAB  60        RTS 
  $EBAC  BD 01 01  LDA $0101,X
  $EBAF  C9 60     CMP #$60
  $EBB1  F0 08     BEQ $EBBB
  $EBB3  18        CLC 
  $EBB4  69 20     ADC #$20
  $EBB6  9D 01 01  STA $0101,X
  $EBB9  95 A8     STA $A8,X
  $EBBB  60        RTS 
  $EBBC  A9 07     LDA #$07
  $EBBE  85 5A     STA $5A
  $EBC0  A9 01     LDA #$01
  $EBC2  8D 0A 03  STA $030A
  $EBC5  A4 5A     LDY $5A
  $EBC7  B9 A0 00  LDA $00A0,Y
  $EBCA  10 0E     BPL $EBDA
  $EBCC  C9 E0     CMP #$E0
  $EBCE  B0 0A     BCS $EBDA
  $EBD0  A9 73     LDA #$73
  $EBD2  99 A0 00  STA $00A0,Y
  $EBD5  A9 00     LDA #$00
  $EBD7  99 A8 00  STA $00A8,Y
  $EBDA  C6 5A     DEC $5A
  $EBDC  A5 5A     LDA $5A
  $EBDE  C9 01     CMP #$01
  $EBE0  D0 E3     BNE $EBC5
  $EBE2  60        RTS 
  $EBE3  F6 51     INC $51,X
  $EBE5  A9 01     LDA #$01
  $EBE7  8D 04 03  STA $0304
  $EBEA  8D 05 03  STA $0305
  $EBED  60        RTS 

BulletDeltaX:
  $EBEE  00        BRK 
  $EBEF  FF 00 01  ISC $0100,X

BulletDeltaY:
  $EBF2  FF 00 01  ISC $0100,X
  $EBF5  00        BRK 

SoundResetInit:
  $EBF6  A9 0F     LDA #$0F ; SoundResetInit: STA $4015=$0F (enable sq1/sq2/tri/noise) + STA $4017=$C0 (5-step frame IRQ-inhibit); zero 28 slots in $031C-$03F3 (stride 8 via $F0/$F1) and counters $0300-$031B
  $EBF8  8D 15 40  STA $4015
  $EBFB  A9 C0     LDA #$C0
  $EBFD  8D 17 40  STA $4017
  $EC00  A9 1C     LDA #$1C
  $EC02  85 F0     STA $F0
  $EC04  A9 03     LDA #$03
  $EC06  85 F1     STA $F1
  $EC08  A2 00     LDX #$00
  $EC0A  A0 00     LDY #$00
  $EC0C  98        TYA 
  $EC0D  91 F0     STA ($F0),Y
  $EC0F  9D 00 03  STA $0300,X
  $EC12  18        CLC 
  $EC13  A5 F0     LDA $F0
  $EC15  69 08     ADC #$08
  $EC17  85 F0     STA $F0
  $EC19  90 02     BCC $EC1D
  $EC1B  E6 F1     INC $F1
  $EC1D  E8        INX 
  $EC1E  E0 1C     CPX #$1C
  $EC20  D0 EA     BNE $EC0C
  $EC22  60        RTS 

SoundEngine:
  $EC23  A5 6D     LDA $6D ; SoundEngine: per-frame APU driver; 28 sound slots at $031C+; ZP $F0/$F1=slot-ptr $F4=idx $F5=limit $F9-$FC=active; writes 4 regs via STA $4000
  $EC25  D0 06     BNE SoundEngineUpdate
  $EC27  A9 1C     LDA #$1C
  $EC29  85 F5     STA $F5
  $EC2B  10 04     BPL $EC31

SoundEngineUpdate:
  $EC2D  A9 01     LDA #$01
  $EC2F  85 F5     STA $F5
  $EC31  A9 00     LDA #$00
  $EC33  A2 03     LDX #$03
  $EC35  95 F9     STA $F9,X
  $EC37  CA        DEX 
  $EC38  10 FB     BPL $EC35
  $EC3A  A9 00     LDA #$00
  $EC3C  85 F4     STA $F4
  $EC3E  A9 1C     LDA #$1C
  $EC40  85 F0     STA $F0
  $EC42  A9 03     LDA #$03
  $EC44  85 F1     STA $F1
  $EC46  A6 F4     LDX $F4
  $EC48  BD 00 03  LDA $0300,X
  $EC4B  F0 3B     BEQ $EC88
  $EC4D  A0 00     LDY #$00
  $EC4F  B1 F0     LDA ($F0),Y
  $EC51  F0 35     BEQ $EC88
  $EC53  C9 05     CMP #$05
  $EC55  90 0B     BCC $EC62
  $EC57  38        SEC 
  $EC58  E9 05     SBC #$05
  $EC5A  AA        TAX 
  $EC5B  A9 01     LDA #$01
  $EC5D  95 F9     STA $F9,X
  $EC5F  4C 88 EC  JMP $EC88
  $EC62  AA        TAX 
  $EC63  CA        DEX 
  $EC64  B5 F9     LDA $F9,X
  $EC66  D0 20     BNE $EC88
  $EC68  A9 01     LDA #$01
  $EC6A  95 F9     STA $F9,X
  $EC6C  8A        TXA 
  $EC6D  A8        TAY 
  $EC6E  18        CLC 
  $EC6F  69 05     ADC #$05
  $EC71  A0 00     LDY #$00
  $EC73  91 F0     STA ($F0),Y
  $EC75  8A        TXA 
  $EC76  0A        ASL 
  $EC77  0A        ASL 
  $EC78  AA        TAX 
  $EC79  A9 04     LDA #$04
  $EC7B  85 FD     STA $FD
  $EC7D  C8        INY 
  $EC7E  B1 F0     LDA ($F0),Y

SoundAPUWrite:
  $EC80  9D 00 40  STA $4000,X ; SoundAPUWrite: STA $4000
  $EC83  E8        INX 
  $EC84  C6 FD     DEC $FD
  $EC86  D0 F5     BNE $EC7D
  $EC88  18        CLC 
  $EC89  A5 F0     LDA $F0
  $EC8B  69 08     ADC #$08
  $EC8D  85 F0     STA $F0
  $EC8F  90 02     BCC $EC93
  $EC91  E6 F1     INC $F1
  $EC93  E6 F4     INC $F4
  $EC95  A5 F4     LDA $F4
  $EC97  C5 F5     CMP $F5
  $EC99  90 AB     BCC $EC46
  $EC9B  A2 00     LDX #$00
  $EC9D  86 FD     STX $FD
  $EC9F  B5 F9     LDA $F9,X
  $ECA1  D0 0C     BNE $ECAF
  $ECA3  8A        TXA 
  $ECA4  0A        ASL 
  $ECA5  0A        ASL 
  $ECA6  AA        TAX 
  $ECA7  0A        ASL 
  $ECA8  29 10     AND #$10
  $ECAA  49 10     EOR #$10

SoundChSilence:
  $ECAC  9D 00 40  STA $4000,X ; SoundChSilence: mute channel: write ((ch_idx<<2)&$10)^$10 to $4000+ch_base (clears duty/volume bit4 = volume 0)
  $ECAF  A6 FD     LDX $FD
  $ECB1  E8        INX 
  $ECB2  E0 04     CPX #$04
  $ECB4  90 E7     BCC $EC9D
  $ECB6  A0 00     LDY #$00
  $ECB8  84 F4     STY $F4
  $ECBA  A9 1C     LDA #$1C
  $ECBC  85 F0     STA $F0
  $ECBE  A9 03     LDA #$03
  $ECC0  85 F1     STA $F1
  $ECC2  A6 F4     LDX $F4
  $ECC4  BD 00 03  LDA $0300,X
  $ECC7  F0 0A     BEQ $ECD3
  $ECC9  C9 01     CMP #$01
  $ECCB  D0 1A     BNE $ECE7
  $ECCD  FE 00 03  INC $0300,X
  $ECD0  4C F4 EC  JMP SoundSeqInit
  $ECD3  18        CLC 
  $ECD4  A5 F0     LDA $F0
  $ECD6  69 08     ADC #$08
  $ECD8  85 F0     STA $F0
  $ECDA  90 02     BCC $ECDE
  $ECDC  E6 F1     INC $F1
  $ECDE  E6 F4     INC $F4
  $ECE0  A5 F4     LDA $F4
  $ECE2  C5 F5     CMP $F5
  $ECE4  90 DC     BCC $ECC2
  $ECE6  60        RTS 
  $ECE7  A0 07     LDY #$07
  $ECE9  B1 F0     LDA ($F0),Y
  $ECEB  38        SEC 
  $ECEC  E9 01     SBC #$01
  $ECEE  91 F0     STA ($F0),Y
  $ECF0  F0 38     BEQ $ED2A
  $ECF2  D0 DF     BNE $ECD3

SoundSeqInit:
  $ECF4  A9 00     LDA #$00 ; SoundSeqInit: reads 4 header bytes (ch
  $ECF6  A0 05     LDY #$05
  $ECF8  91 F0     STA ($F0),Y
  $ECFA  20 54 EE  JSR SoundSeqPtrLoad
  $ECFD  20 63 EE  JSR SoundSeqReadByte
  $ED00  A0 00     LDY #$00
  $ED02  91 F0     STA ($F0),Y
  $ED04  20 63 EE  JSR SoundSeqReadByte
  $ED07  A0 01     LDY #$01
  $ED09  91 F0     STA ($F0),Y
  $ED0B  20 63 EE  JSR SoundSeqReadByte
  $ED0E  A0 02     LDY #$02
  $ED10  91 F0     STA ($F0),Y
  $ED12  20 63 EE  JSR SoundSeqReadByte
  $ED15  A0 04     LDY #$04
  $ED17  91 F0     STA ($F0),Y
  $ED19  A0 00     LDY #$00
  $ED1B  B1 F0     LDA ($F0),Y
  $ED1D  C9 04     CMP #$04
  $ED1F  D0 0C     BNE SoundSeqDecode
  $ED21  20 63 EE  JSR SoundSeqReadByte
  $ED24  A0 03     LDY #$03
  $ED26  91 F0     STA ($F0),Y
  $ED28  10 03     BPL SoundSeqDecode
  $ED2A  20 54 EE  JSR SoundSeqPtrLoad

SoundSeqDecode:
  $ED2D  20 63 EE  JSR SoundSeqReadByte ; SoundSeqDecode: main loop; $00-$5F=note(semitone=bits7-3 octave=bits2-0); $60=hold; $61-$E7=dur(byte-$60); $E8+=cmd dispatch
  $ED30  C9 E8     CMP #$E8
  $ED32  B0 52     BCS $ED86
  $ED34  C9 60     CMP #$60
  $ED36  F0 44     BEQ $ED7C
  $ED38  90 09     BCC $ED43
  $ED3A  E9 60     SBC #$60
  $ED3C  A0 06     LDY #$06
  $ED3E  91 F0     STA ($F0),Y
  $ED40  4C 2D ED  JMP SoundSeqDecode
  $ED43  48        PHA 
  $ED44  29 F8     AND #$F8
  $ED46  4A        LSR 
  $ED47  4A        LSR 
  $ED48  AA        TAX 
  $ED49  BD 8B EE  LDA NoteFreqTable,X
  $ED4C  85 FD     STA $FD
  $ED4E  BD 8C EE  LDA $EE8C,X
  $ED51  85 FE     STA $FE
  $ED53  68        PLA 
  $ED54  29 07     AND #$07
  $ED56  F0 08     BEQ $ED60
  $ED58  AA        TAX 
  $ED59  46 FD     LSR $FD
  $ED5B  66 FE     ROR $FE
  $ED5D  CA        DEX 
  $ED5E  D0 F9     BNE $ED59
  $ED60  A0 04     LDY #$04
  $ED62  B1 F0     LDA ($F0),Y
  $ED64  29 F8     AND #$F8
  $ED66  05 FD     ORA $FD
  $ED68  91 F0     STA ($F0),Y
  $ED6A  A5 FE     LDA $FE
  $ED6C  88        DEY 
  $ED6D  91 F0     STA ($F0),Y
  $ED6F  A0 00     LDY #$00
  $ED71  B1 F0     LDA ($F0),Y
  $ED73  C9 05     CMP #$05
  $ED75  90 05     BCC $ED7C
  $ED77  38        SEC 
  $ED78  E9 04     SBC #$04
  $ED7A  91 F0     STA ($F0),Y
  $ED7C  A0 06     LDY #$06
  $ED7E  B1 F0     LDA ($F0),Y
  $ED80  C8        INY 
  $ED81  91 F0     STA ($F0),Y
  $ED83  4C D3 EC  JMP $ECD3
  $ED86  E9 E8     SBC #$E8
  $ED88  20 75 EE  JSR $EE75

SoundCmdDispatchTable:
  $ED8B  AF ED C6  LAX $C6ED ; SoundCmdDispatchTable: 16×ptr16 for cmds $E8-$F7; stop/modvol/setregs/$EF-loop-reset/$F0-$F2 loops/$F3-$F7 skip
  $ED8E  ED D8 ED  SBC SoundCmdModVolHi2
  $ED91  EA        NOP 
  $ED92  ED FC ED  SBC SoundCmdSetTimerLo
  $ED95  06 EE     ASL $EE
  $ED97  10 EE     BPL $ED87
  $ED99  1A        NOP 
  $ED9A  EE 26 EE  INC SoundCmdInnerLoop
  $ED9D  2A        ROL 
  $ED9E  EE 2D EE  INC SoundCmdOuterLoop
  $EDA1  3E EE 3E  ROL $3EEE,X
  $EDA4  EE 3E EE  INC SoundCmdSkip
  $EDA7  3E EE 3E  ROL $3EEE,X
  $EDAA  EE 3E EE  INC SoundCmdSkip
  $EDAD  4A        LSR 
  $EDAE  EE A6 F4  INC $F4A6
  $EDB1  A9 00     LDA #$00
  $EDB3  9D 00 03  STA $0300,X
  $EDB6  A0 00     LDY #$00
  $EDB8  91 F0     STA ($F0),Y
  $EDBA  A0 05     LDY #$05
  $EDBC  B1 F0     LDA ($F0),Y
  $EDBE  38        SEC 
  $EDBF  E9 01     SBC #$01
  $EDC1  91 F0     STA ($F0),Y
  $EDC3  4C D3 EC  JMP $ECD3

SoundCmdModVolLo6:
  $EDC6  20 63 EE  JSR SoundSeqReadByte
  $EDC9  85 FD     STA $FD
  $EDCB  A0 01     LDY #$01
  $EDCD  B1 F0     LDA ($F0),Y
  $EDCF  29 3F     AND #$3F
  $EDD1  05 FD     ORA $FD
  $EDD3  91 F0     STA ($F0),Y
  $EDD5  4C 2D ED  JMP SoundSeqDecode

SoundCmdModVolHi2:
  $EDD8  20 63 EE  JSR SoundSeqReadByte
  $EDDB  85 FD     STA $FD
  $EDDD  A0 01     LDY #$01
  $EDDF  B1 F0     LDA ($F0),Y
  $EDE1  29 C0     AND #$C0
  $EDE3  05 FD     ORA $FD
  $EDE5  91 F0     STA ($F0),Y
  $EDE7  4C 2D ED  JMP SoundSeqDecode

SoundCmdModVolLo4:
  $EDEA  20 63 EE  JSR SoundSeqReadByte
  $EDED  85 FD     STA $FD
  $EDEF  A0 01     LDY #$01
  $EDF1  B1 F0     LDA ($F0),Y
  $EDF3  29 F0     AND #$F0
  $EDF5  05 FD     ORA $FD
  $EDF7  91 F0     STA ($F0),Y
  $EDF9  4C 2D ED  JMP SoundSeqDecode

SoundCmdSetTimerLo:
  $EDFC  20 63 EE  JSR SoundSeqReadByte
  $EDFF  A0 02     LDY #$02
  $EE01  91 F0     STA ($F0),Y
  $EE03  4C 2D ED  JMP SoundSeqDecode

SoundCmdSetTimerHi:
  $EE06  20 63 EE  JSR SoundSeqReadByte
  $EE09  A0 04     LDY #$04
  $EE0B  91 F0     STA ($F0),Y
  $EE0D  4C 2D ED  JMP SoundSeqDecode

SoundCmdSetDutyVol:
  $EE10  20 63 EE  JSR SoundSeqReadByte
  $EE13  A0 01     LDY #$01
  $EE15  91 F0     STA ($F0),Y
  $EE17  4C 2D ED  JMP SoundSeqDecode

SoundCmdLoopReset:
  $EE1A  A9 00     LDA #$00
  $EE1C  A2 02     LDX #$02
  $EE1E  95 F6     STA $F6,X
  $EE20  CA        DEX 
  $EE21  10 FB     BPL $EE1E
  $EE23  4C 2D ED  JMP SoundSeqDecode

SoundCmdInnerLoop:
  $EE26  A2 00     LDX #$00
  $EE28  F0 05     BEQ $EE2F

SoundCmdMidLoop:
  $EE2A  A2 01     LDX #$01
  $EE2C  2C A2 02  BIT $02A2
  $EE2F  20 63 EE  JSR SoundSeqReadByte
  $EE32  F6 F6     INC $F6,X
  $EE34  D5 F6     CMP $F6,X
  $EE36  D0 12     BNE $EE4A
  $EE38  A9 00     LDA #$00
  $EE3A  95 F6     STA $F6,X
  $EE3C  F0 00     BEQ SoundCmdSkip

SoundCmdSkip:
  $EE3E  A0 05     LDY #$05
  $EE40  B1 F0     LDA ($F0),Y
  $EE42  18        CLC 
  $EE43  69 01     ADC #$01
  $EE45  91 F0     STA ($F0),Y
  $EE47  4C 2D ED  JMP SoundSeqDecode
  $EE4A  20 63 EE  JSR SoundSeqReadByte
  $EE4D  A0 05     LDY #$05
  $EE4F  91 F0     STA ($F0),Y
  $EE51  4C 2D ED  JMP SoundSeqDecode

SoundSeqPtrLoad:
  $EE54  A5 F4     LDA $F4 ; SoundSeqPtrLoad: load ptr for slot $F4 from $EEA3 table (2-byte LE) into ZP $F2/$F3
  $EE56  0A        ASL 
  $EE57  AA        TAX 
  $EE58  BD A3 EE  LDA SoundSeqPtrTable,X
  $EE5B  85 F2     STA $F2
  $EE5D  BD A4 EE  LDA $EEA4,X
  $EE60  85 F3     STA $F3
  $EE62  60        RTS 

SoundSeqReadByte:
  $EE63  A5 F4     LDA $F4 ; SoundSeqReadByte: read byte from sequence at ($F2)
  $EE65  A0 05     LDY #$05
  $EE67  B1 F0     LDA ($F0),Y
  $EE69  A8        TAY 
  $EE6A  B1 F2     LDA ($F2),Y
  $EE6C  48        PHA 
  $EE6D  C8        INY 
  $EE6E  98        TYA 
  $EE6F  A0 05     LDY #$05
  $EE71  91 F0     STA ($F0),Y
  $EE73  68        PLA 
  $EE74  60        RTS 
  $EE75  0A        ASL 
  $EE76  A8        TAY 
  $EE77  C8        INY 
  $EE78  68        PLA 
  $EE79  85 FD     STA $FD
  $EE7B  68        PLA 
  $EE7C  85 FE     STA $FE
  $EE7E  B1 FD     LDA ($FD),Y
  $EE80  AA        TAX 
  $EE81  C8        INY 
  $EE82  B1 FD     LDA ($FD),Y
  $EE84  85 FE     STA $FE
  $EE86  86 FD     STX $FD
  $EE88  6C FD 00  JMP ($00FD)
; ---------------------------------------------------------------------------
; Range $EE8B–$EEA3 (u16) NotePitchTable
; ---------------------------------------------------------------------------

NoteFreqTable:
  $EE8B  07 F2     .word $F207  ; 61959 ; NoteFreqTable: 12×2-byte entries (FD=hi
  $EE8D  07 80     .word $8007  ; 32775
  $EE8F  07 14     .word $1407  ; 5127
  $EE91  06 AE     .word $AE06  ; 44550
  $EE93  06 43     .word $4306  ; 17158
  $EE95  05 F4     .word $F405  ; 62469
  $EE97  05 9E     .word $9E05  ; 40453
  $EE99  05 4E     .word $4E05  ; 19973
  $EE9B  05 02     .word $0205  ; 517
  $EE9D  04 BA     .word $BA04  ; 47620
  $EE9F  04 76     .word $7604  ; 30212
  $EEA1  04 36     .word $3604  ; 13828
; ---------------------------------------------------------------------------
; Range $EEA3–$EEDC (ptr16) SoundSeqPtrTable
; ---------------------------------------------------------------------------

SoundSeqPtrTable:
  $EEA3  D1 EF     .word $EFD1 -> SeqCoin ; SoundSeqPtrTable: 14x2-byte LE ptrs to sound sequence data; indexed by channel/slot id
  $EEA5  DB EE     .word $EEDB -> SeqBGM_Pulse1
  $EEA7  02 EF     .word $EF02 -> SeqBGM_Ch2
  $EEA9  2D EF     .word $EF2D -> SeqBGM_Ch3
  $EEAB  44 F0     .word $F044 -> SeqLifeUpP1
  $EEAD  53 F0     .word $F053 -> SeqLifeUpP2
  $EEAF  BE EF     .word $EFBE
  $EEB1  58 EF     .word $EF58
  $EEB3  7A EF     .word $EF7A
  $EEB5  ED EF     .word $EFED
  $EEB7  A8 EF     .word $EFA8
  $EEB9  99 EF     .word $EF99
  $EEBB  03 F0     .word $F003
  $EEBD  FB EF     .word $EFFB
  $EEBF  0C F0     .word $F00C
  $EEC1  B7 EF     .word $EFB7
  $EEC3  3A F0     .word $F03A
  $EEC5  31 F0     .word $F031
  $EEC7  27 F0     .word $F027
  $EEC9  18 F0     .word $F018
  $EECB  1F F0     .word $F01F
  $EECD  66 F0     .word $F066
  $EECF  84 F0     .word $F084
  $EED1  AF F0     .word $F0AF
  $EED3  E1 F0     .word $F0E1
  $EED5  F4 F0     .word $F0F4
  $EED7  07 F1     .word $F107
  $EED9  DF EF     .word $EFDF

SeqBGM_Pulse1:
  $EEDB  01 81     .word $8101
; ---------------------------------------------------------------------------
; Range $EEDC–$FFFA (code)
; ---------------------------------------------------------------------------
  $EEDC  81 7F     STA ($7F,X)
  $EEDE  40        RTI 
  $EEDF  EF 68 1B  ISC $1B68
  $EEE2  2B        ??? 
  $EEE3  33 F0     RLA ($F0),Y
  $EEE5  02        ??? 
  $EEE6  06 33     ASL $33
  $EEE8  43 53     SRE ($53,X)
  $EEEA  F0 02     BEQ $EEEE
  $EEEC  0C 43 53  NOP $5343
  $EEEF  04 F0     NOP $F0
  $EEF1  02        ??? 
  $EEF2  12        ??? 
  $EEF3  5B 0C 1C  SRE $1C0C,Y
  $EEF6  F0 02     BEQ $EEFA
  $EEF8  18        CLC 
  $EEF9  78        SEI 
  $EEFA  1C 68 1C  NOP $1C68,X
  $EEFD  1C 1C 78  NOP $781C,X
  $EF00  1C E8 03  NOP $03E8,X
  $EF03  10 7F     BPL $EF84
  $EF05  08        PHP 
  $EF06  78        SEI 
  $EF07  1A        NOP 
  $EF08  68        PLA 
  $EF09  1A        NOP 
  $EF0A  F1 03     SBC ($03),Y
  $EF0C  07 78     SLO $78
  $EF0E  32        ??? 
  $EF0F  68        PLA 
  $EF10  32        ??? 
  $EF11  F1 03     SBC ($03),Y
  $EF13  0E 78 42  ASL $4278
  $EF16  68        PLA 
  $EF17  42        ??? 
  $EF18  F1 03     SBC ($03),Y
  $EF1A  15 5A     ORA $5A,X
  $EF1C  F1 03     SBC ($03),Y
  $EF1E  19 0B F1  ORA $F10B,Y
  $EF21  03 1D     SLO ($1D,X)
  $EF23  78        SEI 
  $EF24  52        ??? 
  $EF25  68        PLA 
  $EF26  52        ??? 
  $EF27  F1 03     SBC ($03),Y
  $EF29  24 78     BIT $78
  $EF2B  52        ??? 
  $EF2C  E8        INX 

SeqBGM_Ch3:
  $EF2D  02        ??? 
  $EF2E  81 7F     STA ($7F,X)
  $EF30  40        RTI 
  $EF31  78        SEI 
  $EF32  51 68     EOR ($68),Y
  $EF34  51 F2     EOR ($F2),Y
  $EF36  03 07     SLO ($07,X)
  $EF38  78        SEI 
  $EF39  0A        ASL 
  $EF3A  68        PLA 
  $EF3B  0A        ASL 
  $EF3C  F2        ??? 
  $EF3D  03 0E     SLO ($0E,X)
  $EF3F  78        SEI 
  $EF40  1A        NOP 
  $EF41  68        PLA 
  $EF42  1A        NOP 
  $EF43  F2        ??? 
  $EF44  03 15     SLO ($15,X)
  $EF46  32        ??? 
  $EF47  F2        ??? 
  $EF48  03 19     SLO ($19,X)
  $EF4A  42        ??? 
  $EF4B  F2        ??? 
  $EF4C  03 1D     SLO ($1D,X)
  $EF4E  78        SEI 
  $EF4F  3A        NOP 
  $EF50  68        PLA 
  $EF51  3A        NOP 
  $EF52  F2        ??? 
  $EF53  03 24     SLO ($24,X)
  $EF55  78        SEI 
  $EF56  3A        NOP 
  $EF57  E8        INX 
  $EF58  04 1F     NOP $1F
  $EF5A  7F 30 0A  RRA $0A30,X
  $EF5D  62        ??? 
  $EF5E  49 49     EOR #$49
  $EF60  EA        NOP 
  $EF61  1E 49 49  ASL $4949,X
  $EF64  EA        NOP 
  $EF65  1D 49 49  ORA $4949,X
  $EF68  EA        NOP 
  $EF69  1C 49 49  NOP $4949,X
  $EF6C  EA        NOP 
  $EF6D  1B 49 49  SLO $4949,Y
  $EF70  EA        NOP 
  $EF71  1A        NOP 
  $EF72  49 EA     EOR #$EA
  $EF74  19 49 EA  ORA $EA49,Y
  $EF77  18        CLC 
  $EF78  49 E8     EOR #$E8
  $EF7A  02        ??? 
  $EF7B  1F 7F 30  SLO $307F,X
  $EF7E  62        ??? 
  $EF7F  00        BRK 
  $EF80  01 00     ORA ($00,X)
  $EF82  EA        NOP 
  $EF83  1E 01 00  ASL $0001,X
  $EF86  EA        NOP 
  $EF87  1D 01 00  ORA $0001,X
  $EF8A  01 00     ORA ($00,X)
  $EF8C  EA        NOP 
  $EF8D  1C 01 EA  NOP $EA01,X
  $EF90  1B 00 EA  SLO $EA00,Y
  $EF93  1A        NOP 
  $EF94  01 EA     ORA ($EA,X)
  $EF96  19 00 E8  ORA $E800,Y
  $EF99  02        ??? 
  $EF9A  20 7F 30  JSR $307F
  $EF9D  63 1A     RRA ($1A,X)
  $EF9F  12        ??? 
  $EFA0  51 31     EOR ($31),Y
  $EFA2  19 11 50  ORA $5011,Y
  $EFA5  30 18     BMI $EFBF
  $EFA7  E8        INX 
  $EFA8  04 1F     NOP $1F
  $EFAA  7F 40 0A  RRA $0A40,X
  $EFAD  62        ??? 
  $EFAE  51 EA     EOR ($EA),Y
  $EFB0  1E 51 EA  ASL $EA51,X
  $EFB3  08        PHP 
  $EFB4  6A        ROR 
  $EFB5  51 E8     EOR ($E8),Y
  $EFB7  01 8F     ORA ($8F,X)
  $EFB9  82 10     NOP #$10
  $EFBB  6F 2C E8  RRA $E82C
  $EFBE  02        ??? 
  $EFBF  80 7F     NOP #$7F
  $EFC1  40        RTI 
  $EFC2  63 52     RRA ($52,X)
  $EFC4  1B 3B 53  SLO $533B,Y
  $EFC7  4A        LSR 
  $EFC8  13 33     SLO ($33),Y
  $EFCA  4B        ??? 
  $EFCB  1B 3B 53  SLO $533B,Y
  $EFCE  1C 3C E8  NOP $E83C,X

SeqCoin:
  $EFD1  02        ??? 
  $EFD2  82 7F     NOP #$7F
  $EFD4  40        RTI 
  $EFD5  64 1B     NOP $1B
  $EFD7  2B        ??? 
  $EFD8  3B 1C 2C  RLA $2C1C,Y
  $EFDB  3C 6C 53  NOP $536C,X
  $EFDE  E8        INX 
  $EFDF  02        ??? 
  $EFE0  82 7F     NOP #$7F
  $EFE2  40        RTI 
  $EFE3  63 53     RRA ($53,X)
  $EFE5  1B 1C 3B  SLO $3B1C,Y
  $EFE8  3C 53 6A  NOP $6A53,X
  $EFEB  54 E8     NOP $E8,X
  $EFED  02        ??? 
  $EFEE  60        RTS 
  $EFEF  7F 40 64  RRA $6440,X
  $EFF2  52        ??? 
  $EFF3  3A        NOP 
  $EFF4  52        ??? 
  $EFF5  03 52     SLO ($52,X)
  $EFF7  03 13     SLO ($13,X)
  $EFF9  1B E8 02  SLO $02E8,Y
  $EFFC  D5 7F     CMP $7F,X
  $EFFE  00        BRK 
  $EFFF  62        ??? 
  $F000  1C 1D E8  NOP $E81D,X
  $F003  03 07     SLO ($07,X)
  $F005  7F 08 61  RRA $6108,X
  $F008  3A        NOP 
  $F009  13 22     SLO ($22),Y
  $F00B  E8        INX 
  $F00C  02        ??? 
  $F00D  40        RTI 
  $F00E  7F 00 61  RRA $6100,X
  $F011  3D 62 45  AND $4562,X
  $F014  EA        NOP 
  $F015  10 28     BPL $F03F
  $F017  E8        INX 
  $F018  02        ??? 
  $F019  80 7F     NOP #$7F
  $F01B  18        CLC 
  $F01C  61 39     ADC ($39,X)
  $F01E  E8        INX 
  $F01F  04 00     NOP $00
  $F021  7F 28 0A  RRA $0A28,X
  $F024  61 28     ADC ($28,X)
  $F026  E8        INX 
  $F027  02        ??? 
  $F028  8C 94 40  STY $4094
  $F02B  61 10     ADC ($10,X)
  $F02D  64 18     NOP $18
  $F02F  F9 05 02  SBC $0205,Y
  $F032  80 94     NOP #$94
  $F034  48        PHA 
  $F035  62        ??? 
  $F036  40        RTI 
  $F037  48        PHA 
  $F038  F9 05 01  SBC $0105,Y
  $F03B  1F 7F 28  SLO $287F,X
  $F03E  61 22     ADC ($22,X)
  $F040  42        ??? 
  $F041  5A        NOP 
  $F042  1B E8 01  SLO $01E8,Y
  $F045  A0 7F     LDY #$7F
  $F047  40        RTI 
  $F048  66 1C     ROR $1C
  $F04A  3C 1C 53  NOP $531C,X
  $F04D  1C 3C 05  NOP $053C,X
  $F050  72        ??? 
  $F051  54 E8     NOP $E8,X

SeqLifeUpP2:
  $F053  02        ??? 
  $F054  90 7F     BCC $F0D5
  $F056  40        RTI 
  $F057  62        ??? 
  $F058  38        SEC 
  $F059  66 EA     ROR $EA
  $F05B  20 3B 53  JSR $533B
  $F05E  3B 1B 3B  RLA $3B1B,Y
  $F061  53 1C     SRE ($1C),Y
  $F063  6A        ROR 
  $F064  14 E8     NOP $E8,X
  $F066  01 B8     ORA ($B8,X)
  $F068  7F 40 EF  RRA $EF40,X
  $F06B  65 0C     ADC $0C
  $F06D  53 F0     SRE ($F0),Y
  $F06F  0C 05 0C  NOP $0C05
  $F072  53 F0     SRE ($F0),Y
  $F074  0C 0B 34  NOP $340B
  $F077  24 F0     BIT $F0
  $F079  08        PHP 
  $F07A  10 EA     BPL $F066
  $F07C  30 B0     BMI $F02E
  $F07E  50 EA     BVC $F06A
  $F080  20 9C 54  JSR $549C
  $F083  E8        INX 
  $F084  02        ??? 
  $F085  B8        CLV 
  $F086  7F 40 65  RRA $6540,X
  $F089  43 33     SRE ($33,X)
  $F08B  F1 0C     SBC ($0C),Y
  $F08D  04 43     NOP $43
  $F08F  33 F1     RLA ($F1),Y
  $F091  0C 0A 14  NOP $140A
  $F094  4B        ??? 
  $F095  F1 08     SBC ($08),Y
  $F097  0F EA 3A  SLO $3AEA
  $F09A  30 50     BMI $F0EC
  $F09C  09 29     ORA #$29
  $F09E  31 51     AND ($51),Y
  $F0A0  0A        ASL 
  $F0A1  2A        ROL 
  $F0A2  32        ??? 
  $F0A3  52        ??? 
  $F0A4  0B        ??? 
  $F0A5  2B        ??? 
  $F0A6  33 53     RLA ($53),Y
  $F0A8  0C 2C 9C  NOP $9C2C
  $F0AB  EA        NOP 
  $F0AC  20 2C E8  JSR $E82C
  $F0AF  03 00     SLO ($00,X)
  $F0B1  7F 08 A1  RRA $A108,X
  $F0B4  01 01     ORA ($01,X)
  $F0B6  EE 15 6A  INC $6A15
  $F0B9  0B        ??? 
  $F0BA  0B        ??? 
  $F0BB  0B        ??? 
  $F0BC  EE 22 6F  INC $6F22
  $F0BF  33 65     RLA ($65),Y
  $F0C1  43 7E     SRE ($7E,X)
  $F0C3  EE 33 53  INC $5333
  $F0C6  6A        ROR 
  $F0C7  EE 15 43  INC $4315
  $F0CA  33 53     RLA ($53),Y
  $F0CC  6F EE 22  RRA $22EE
  $F0CF  13 65     SLO ($65),Y
  $F0D1  23 7E     RLA ($7E,X)
  $F0D3  EE 33 33  INC $3333
  $F0D6  6A        ROR 
  $F0D7  EE 15 23  INC $2315
  $F0DA  13 4A     SLO ($4A),Y
  $F0DC  9C        ??? 
  $F0DD  EE FF 32  INC $32FF
  $F0E0  E8        INX 
  $F0E1  01 42     ORA ($42,X)
  $F0E3  7F 40 66  RRA $6640,X
  $F0E6  1B 0B 78  SLO $780B,Y
  $F0E9  1B 68 52  SLO $5268,Y
  $F0EC  42        ??? 
  $F0ED  32        ??? 
  $F0EE  1A        NOP 
  $F0EF  1A        NOP 
  $F0F0  1A        NOP 
  $F0F1  78        SEI 
  $F0F2  1A        NOP 
  $F0F3  E8        INX 
  $F0F4  02        ??? 
  $F0F5  82 7F     NOP #$7F
  $F0F7  40        RTI 
  $F0F8  66 52     ROR $52
  $F0FA  52        ??? 
  $F0FB  78        SEI 
  $F0FC  52        ??? 
  $F0FD  68        PLA 
  $F0FE  32        ??? 
  $F0FF  2A        ROL 
  $F100  12        ??? 
  $F101  1A        NOP 
  $F102  1A        NOP 
  $F103  1A        NOP 
  $F104  78        SEI 
  $F105  1A        NOP 
  $F106  E8        INX 
  $F107  03 10     SLO ($10,X)
  $F109  7F 08 66  RRA $6608,X
  $F10C  3B 33 78  RLA $7833,Y
  $F10F  3B 68 1B  RLA $1B68,Y
  $F112  0B        ??? 
  $F113  52        ??? 
  $F114  52        ??? 
  $F115  52        ??? 
  $F116  52        ??? 
  $F117  78        SEI 
  $F118  52        ??? 
  $F119  E8        INX 
  $F11A  FF FF FF  ISC $FFFF,X
  $F11D  FF FF FF  ISC $FFFF,X
  $F120  FF FF FF  ISC $FFFF,X
  $F123  FF FF FF  ISC $FFFF,X
  $F126  FF FF FF  ISC $FFFF,X
  $F129  FF FF FF  ISC $FFFF,X
  $F12C  FF FF FF  ISC $FFFF,X
  $F12F  FF FF FF  ISC $FFFF,X
  $F132  FF FF FF  ISC $FFFF,X
  $F135  FF FF FF  ISC $FFFF,X
  $F138  FF FF FF  ISC $FFFF,X
  $F13B  FF FF FF  ISC $FFFF,X
  $F13E  FF FF FF  ISC $FFFF,X
  $F141  FF FF FF  ISC $FFFF,X
  $F144  FF FF FF  ISC $FFFF,X
  $F147  FF FF FF  ISC $FFFF,X
  $F14A  FF FF FF  ISC $FFFF,X
  $F14D  FF FF FF  ISC $FFFF,X
  $F150  FF FF FF  ISC $FFFF,X
  $F153  FF FF FF  ISC $FFFF,X
  $F156  FF FF FF  ISC $FFFF,X
  $F159  FF FF FF  ISC $FFFF,X
  $F15C  FF FF FF  ISC $FFFF,X
  $F15F  FF FF FF  ISC $FFFF,X
  $F162  FF FF FF  ISC $FFFF,X
  $F165  FF FF FF  ISC $FFFF,X
  $F168  FF FF FF  ISC $FFFF,X
  $F16B  FF FF FF  ISC $FFFF,X
  $F16E  FF FF FF  ISC $FFFF,X
  $F171  FF FF FF  ISC $FFFF,X
  $F174  FF FF FF  ISC $FFFF,X
  $F177  FF FF FF  ISC $FFFF,X
  $F17A  FF FF FF  ISC $FFFF,X
  $F17D  FF FF FF  ISC $FFFF,X
  $F180  FF FF FF  ISC $FFFF,X
  $F183  FF FF FF  ISC $FFFF,X
  $F186  FF FF FF  ISC $FFFF,X
  $F189  FF FF FF  ISC $FFFF,X
  $F18C  FF FF FF  ISC $FFFF,X
  $F18F  FF FF FF  ISC $FFFF,X
  $F192  FF FF FF  ISC $FFFF,X
  $F195  FF FF FF  ISC $FFFF,X
  $F198  FF FF FF  ISC $FFFF,X
  $F19B  FF FF FF  ISC $FFFF,X
  $F19E  FF FF FF  ISC $FFFF,X
  $F1A1  FF FF FF  ISC $FFFF,X
  $F1A4  FF FF FF  ISC $FFFF,X
  $F1A7  FF FF FF  ISC $FFFF,X
  $F1AA  FF FF FF  ISC $FFFF,X
  $F1AD  FF FF FF  ISC $FFFF,X
  $F1B0  FF FF FF  ISC $FFFF,X
  $F1B3  FF FF FF  ISC $FFFF,X
  $F1B6  FF FF FF  ISC $FFFF,X
  $F1B9  FF FF FF  ISC $FFFF,X
  $F1BC  FF FF FF  ISC $FFFF,X
  $F1BF  FF FF FF  ISC $FFFF,X
  $F1C2  FF FF FF  ISC $FFFF,X
  $F1C5  FF FF FF  ISC $FFFF,X
  $F1C8  FF FF FF  ISC $FFFF,X
  $F1CB  FF FF FF  ISC $FFFF,X
  $F1CE  FF FF FF  ISC $FFFF,X
  $F1D1  FF FF FF  ISC $FFFF,X
  $F1D4  FF FF FF  ISC $FFFF,X
  $F1D7  FF FF FF  ISC $FFFF,X
  $F1DA  FF FF FF  ISC $FFFF,X
  $F1DD  FF FF FF  ISC $FFFF,X
  $F1E0  FF FF FF  ISC $FFFF,X
  $F1E3  FF FF FF  ISC $FFFF,X
  $F1E6  FF FF FF  ISC $FFFF,X
  $F1E9  FF FF FF  ISC $FFFF,X
  $F1EC  FF FF FF  ISC $FFFF,X
  $F1EF  FF FF FF  ISC $FFFF,X
  $F1F2  FF FF FF  ISC $FFFF,X
  $F1F5  FF FF FF  ISC $FFFF,X
  $F1F8  FF FF FF  ISC $FFFF,X
  $F1FB  FF FF FF  ISC $FFFF,X
  $F1FE  FF FF C9  ISC $C9FF,X
  $F201  FF D0 05  ISC $05D0,X
  $F204  A9 24     LDA #$24
  $F206  4C 13 F2  JMP $F213
  $F209  C9 24     CMP #$24
  $F20B  90 06     BCC $F213
  $F20D  38        SEC 
  $F20E  E9 23     SBC #$23
  $F210  4C 09 F2  JMP $F209
  $F213  85 00     STA $00
  $F215  A9 F2     LDA #$F2
  $F217  85 12     STA $12
  $F219  A9 7D     LDA #$7D
  $F21B  85 11     STA $11
  $F21D  C6 00     DEC $00
  $F21F  F0 08     BEQ $F229
  $F221  A9 5B     LDA #$5B
  $F223  20 CA D7  JSR AdvanceNTPointer
  $F226  4C 1D F2  JMP $F21D
  $F229  A9 00     LDA #$00
  $F22B  85 5A     STA $5A
  $F22D  A5 11     LDA $11
  $F22F  85 13     STA $13
  $F231  A5 12     LDA $12
  $F233  85 14     STA $14
  $F235  A9 10     LDA #$10
  $F237  85 57     STA $57

LevelTileLoader:
  $F239  20 5F D9  JSR WaitVBlank ; LevelTileLoader: reads nibbles from ($13)
  $F23C  A9 10     LDA #$10
  $F23E  85 56     STA $56
  $F240  A5 5A     LDA $5A
  $F242  4A        LSR 
  $F243  A8        TAY 
  $F244  A5 5A     LDA $5A
  $F246  29 01     AND #$01
  $F248  F0 07     BEQ $F251
  $F24A  B1 13     LDA ($13),Y
  $F24C  29 0F     AND #$0F
  $F24E  4C 57 F2  JMP $F257
  $F251  B1 13     LDA ($13),Y
  $F253  4A        LSR 
  $F254  4A        LSR 
  $F255  4A        LSR 
  $F256  4A        LSR 
  $F257  A6 56     LDX $56
  $F259  A4 57     LDY $57
  $F25B  20 2B D8  JSR DrawNametableTile
  $F25E  A9 00     LDA #$00
  $F260  85 0C     STA $0C
  $F262  E6 5A     INC $5A
  $F264  A5 56     LDA $56
  $F266  18        CLC 
  $F267  69 10     ADC #$10
  $F269  85 56     STA $56
  $F26B  C9 E0     CMP #$E0
  $F26D  D0 D1     BNE $F240
  $F26F  E6 5A     INC $5A
  $F271  A5 57     LDA $57
  $F273  18        CLC 
  $F274  69 10     ADC #$10
  $F276  85 57     STA $57
  $F278  C9 E0     CMP #$E0
  $F27A  D0 BD     BNE LevelTileLoader
  $F27C  60        RTS 

LevelMapData:
  $F27D  DD DD DD  CMP $DDDD,X ; LevelMapData: 35 stages x 91 bytes; nibble-packed 13x13 metatile grids; 14 nibbles/row (13+1 skip) 13 rows; types 0-15 (4=brick 9=steel 10=trees 11=water 12=ice 13-15=empty)
  $F280  DD DD DD  CMP $DDDD,X
  $F283  DD D4 D4  CMP $D4D4,X
  $F286  D4 D4     NOP $D4,X
  $F288  D4 D4     NOP $D4,X
  $F28A  DD D4 D4  CMP $D4D4,X
  $F28D  D4 D4     NOP $D4,X
  $F28F  D4 D4     NOP $D4,X
  $F291  DD D4 D4  CMP $D4D4,X
  $F294  D4 94     NOP $94,X
  $F296  D4 D4     NOP $D4,X
  $F298  DD D4 D4  CMP $D4D4,X
  $F29B  D3 D3     DCP ($D3),Y
  $F29D  D4 D4     NOP $D4,X
  $F29F  DD D3 D3  CMP $D3D3,X
  $F2A2  D1 D1     CMP ($D1),Y
  $F2A4  D3 D3     DCP ($D3),Y
  $F2A6  DD 1D 11  CMP $111D,X
  $F2A9  D3 D3     DCP ($D3),Y
  $F2AB  D1 1D     CMP ($1D),Y
  $F2AD  1D 8D 33  ORA $338D,X
  $F2B0  D1 D1     CMP ($D1),Y
  $F2B2  D3 3D     DCP ($3D),Y
  $F2B4  8D D1 D1  STA $D1D1
  $F2B7  D4 44     NOP $44,X
  $F2B9  D1 D1     CMP ($D1),Y
  $F2BB  DD D4 D4  CMP $D4D4,X
  $F2BE  D4 D4     NOP $D4,X
  $F2C0  D4 D4     NOP $D4,X
  $F2C2  DD D4 D4  CMP $D4D4,X
  $F2C5  D3 D3     DCP ($D3),Y
  $F2C7  D4 D4     NOP $D4,X
  $F2C9  DD D4 D4  CMP $D4D4,X
  $F2CC  DD DD D4  CMP $D4DD,X
  $F2CF  D4 DD     NOP $DD,X
  $F2D1  DD DD DD  CMP $DDDD,X
  $F2D4  DD DD DD  CMP $DDDD,X
  $F2D7  DD DD DD  CMP $DDDD,X
  $F2DA  4D DD 4D  EOR $4DDD
  $F2DD  DD DD DB  CMP $DBDD,X
  $F2E0  BB        ??? 
  $F2E1  4D DD DD  EOR $DDDD
  $F2E4  66 6D     ROR $6D
  $F2E6  4B        ??? 
  $F2E7  BB        ??? 
  $F2E8  DD DD DD  CMP $DDDD,X
  $F2EB  DD DD BB  CMP $BBDD,X
  $F2EE  BB        ??? 
  $F2EF  DD D4 D4  CMP $D4D4,X
  $F2F2  44 2D     NOP $2D
  $F2F4  BB        ??? 
  $F2F5  BB        ??? 
  $F2F6  44 43     NOP $43
  $F2F8  D4 D0     NOP $D0,X
  $F2FA  DD BB BB  CMP $BBBB,X
  $F2FD  DD 4D DD  CMP $DD4D,X
  $F300  D0 DD     BNE $F2DF
  $F302  DB DD DD  DCP $DDDD,Y
  $F305  99 9D DB  STA $DB9D,Y
  $F308  DD D1 D1  CMP $D1D1,X
  $F30B  DD DD DB  CMP $DBDD,X
  $F30E  BB        ??? 
  $F30F  BD 42 04  LDA $0442,X
  $F312  20 33 3B  JSR $3B33
  $F315  BB        ??? 
  $F316  BD DD DD  LDA $DDDD,X
  $F319  D4 D1     NOP $D1,X
  $F31B  1B BB BD  SLO $BDBB,Y
  $F31E  4D D7 DD  EOR $DDD7
  $F321  D3 3B     DCP ($3B),Y
  $F323  BB        ??? 
  $F324  DD 44 D7  CMP $D744,X
  $F327  DD DD DB  CMP $DBDD,X
  $F32A  BB        ??? 
  $F32B  DD 94 4D  CMP $4D94,X
  $F32E  DD DD D4  CMP $D4DD,X
  $F331  DD DD DD  CMP $DDDD,X
  $F334  D9 DD D9  CMP $D9DD,Y
  $F337  DD DD DD  CMP $DDDD,X
  $F33A  D4 D9     NOP $D9,X
  $F33C  DD D4 D4  CMP $D4D4,X
  $F33F  D4 DD     NOP $DD,X
  $F341  D4 DD     NOP $DD,X
  $F343  DD 44 D4  CMP $D444,X
  $F346  94 DD     STY $DD,X
  $F348  DD D4 DD  CMP $DDD4,X
  $F34B  DD D9 DD  CMP $DDD9,X
  $F34E  DD BD D4  CMP $D4BD,X
  $F351  DD 9D D4  CMP $D49D,X
  $F354  B4 9D     LDY $9D,X
  $F356  BB        ??? 
  $F357  DD D4 DD  CMP $DDD4,X
  $F35A  9D BD DD  STA $DDBD,X
  $F35D  D4 44     NOP $44,X
  $F35F  BB        ??? 
  $F360  B9 DD B4  LDA $B4DD,Y
  $F363  DD DD D9  CMP $D9DD,X
  $F366  B4 D4     LDY $D4,X
  $F368  D4 D4     NOP $D4,X
  $F36A  DD 94 D9  CMP $D994,X
  $F36D  D4 D4     NOP $D4,X
  $F36F  DD D4 DD  CMP $DDD4,X
  $F372  D4 D4     NOP $D4,X
  $F374  D4 44     NOP $44,X
  $F376  D4 94     NOP $94,X
  $F378  DD D4 D4  CMP $D4D4,X
  $F37B  D4 44     NOP $44,X
  $F37D  DD DD DD  CMP $DDDD,X
  $F380  D4 DD     NOP $DD,X
  $F382  DD DD D4  CMP $D4DD,X
  $F385  D4 DD     NOP $DD,X
  $F387  D4 D4     NOP $D4,X
  $F389  DD DD D4  CMP $D4DD,X
  $F38C  44 DD     NOP $DD
  $F38E  DB BD DD  DCP $DDBD,Y
  $F391  DD DD DB  CMP $DBDD,X
  $F394  DD BB DD  CMP $DDBB,X
  $F397  14 41     NOP $41,X
  $F399  1D DD BD  ORA $BDDD,X
  $F39C  BD D0 44  LDA $44D0,X
  $F39F  44 44     NOP $44
  $F3A1  1D 8D 8D  ORA $8D8D,X
  $F3A4  D4 44     NOP $44,X
  $F3A6  44 44     NOP $44
  $F3A8  42        ??? 
  $F3A9  DD DD 03  CMP $03DD,X
  $F3AC  DD D3 44  CMP $44D3,X
  $F3AF  D2        ??? 
  $F3B0  DD AD 0D  CMP $0DAD,X
  $F3B3  7D 7D 42  ADC $427D,X
  $F3B6  DD DD DD  CMP $DDDD,X
  $F3B9  4D 11 DD  EOR $DD11
  $F3BC  42        ??? 
  $F3BD  DA        NOP 
  $F3BE  AD DD 44  LDA $44DD
  $F3C1  44 44     NOP $44
  $F3C3  44 DD     NOP $DD
  $F3C5  DD D0 44  CMP $44D0,X
  $F3C8  44 44     NOP $44
  $F3CA  44 2D     NOP $2D
  $F3CC  DD D3 34  CMP $34D3,X
  $F3CF  44 44     NOP $44
  $F3D1  43 3D     SRE ($3D,X)
  $F3D3  DD D4 41  CMP $41D4,X
  $F3D6  34 43     NOP $43,X
  $F3D8  14 4D     NOP $4D,X
  $F3DA  BD BD 33  LDA $33BD,X
  $F3DD  DD DD 33  CMP $33DD,X
  $F3E0  DB BD 9B  DCP $9BBD,Y
  $F3E3  DD DD DD  CMP $DDDD,X
  $F3E6  DD BB 9D  CMP $9DBB,X
  $F3E9  DD DD 44  CMP $44DD,X
  $F3EC  4D DD DD  EOR $DDDD
  $F3EF  DD 6D 1D  CMP $1D6D,X
  $F3F2  4D DD 88  EOR $88DD
  $F3F5  9D DD 9D  STA $9DDD,X
  $F3F8  4D DD 4D  EOR $4DDD
  $F3FB  DD DD DD  CMP $DDDD,X
  $F3FE  4D 44 4D  EOR $4D44
  $F401  44 DA     NOP $DA
  $F403  AA        TAX 
  $F404  DD 3D DD  CMP $DD3D,X
  $F407  3D DD DA  AND $DADD,X
  $F40A  DD DD DD  CMP $DDDD,X
  $F40D  1D AA DA  ORA $DAAA,X
  $F410  AA        TAX 
  $F411  D4 4D     NOP $4D,X
  $F413  44 DD     NOP $DD
  $F415  A4 D4     LDY $D4
  $F417  2D DD DD  AND $DDDD
  $F41A  DD DD AD  CMP $ADDD,X
  $F41D  DD DD 57  CMP $57DD,X
  $F420  DD AA AD  CMP $ADAA,X
  $F423  AD 9D 4D  LDA $4D9D
  $F426  5D DD DD  EOR $DDDD,X
  $F429  D1 1D     CMP ($1D),Y
  $F42B  DD DD 54  CMP $54DD,X
  $F42E  4D DD DD  EOR $DDDD
  $F431  43 33     SRE ($33,X)
  $F433  41 DD     EOR ($DD,X)
  $F435  DD 44 3D  CMP $3D44,X
  $F438  DD DD D3  CMP $D3DD,X
  $F43B  4D DD 3D  EOR $3DDD
  $F43E  DD DD DD  CMP $DDDD,X
  $F441  DD DD DD  CMP $DDDD,X
  $F444  DD DD DD  CMP $DDDD,X
  $F447  D8        CLD 
  $F448  8D DD DD  STA $DDDD
  $F44B  DD 98 88  CMP $8898,X
  $F44E  DD DD 9D  CMP $9DDD,X
  $F451  DD DD 9D  CMP $9DDD,X
  $F454  DD BD 89  CMP $89BD,X
  $F457  9D DD D9  STA $D9DD,X
  $F45A  DD DB 9D  CMP $9DDB,X
  $F45D  DD 9D DD  CMP $DD9D,X
  $F460  DD DD B9  CMP $B9DD,X
  $F463  9D DD 89  STA $89DD,X
  $F466  DD D9 DB  CMP $DBD9,X
  $F469  99 9D 9D  STA $9D9D,Y
  $F46C  DD DD D5  CMP $D5DD,X
  $F46F  D9 9D DD  CMP $DD9D,Y
  $F472  99 DD DD  STA $DDDD,Y
  $F475  7D DD 9D  ADC $9DDD,X
  $F478  99 9D D5  STA $D59D,Y
  $F47B  DD D5 9D  CMP $9DD5,X
  $F47E  DD 99 BD  CMP $BD99,X
  $F481  D9 DD D9  CMP $D9DD,Y
  $F484  DD DD 9B  CMP $9BDD,X
  $F487  DD 99 DD  CMP $DD99,X
  $F48A  D8        CLD 
  $F48B  89 DD     NOP #$DD
  $F48D  BD D9 DD  LDA $DDD9,X
  $F490  DD DD DD  CMP $DDDD,X
  $F493  DD DD D8  CMP $D8DD,X
  $F496  D6 9D     DEC $9D,X
  $F498  66 DD     ROR $DD
  $F49A  DD DD DD  CMP $DDDD,X
  $F49D  DD DD DD  CMP $DDDD,X
  $F4A0  DD DD DD  CMP $DDDD,X
  $F4A3  DD DD DD  CMP $DDDD,X
  $F4A6  D0 34     BNE $F4DC
  $F4A8  DD DD DD  CMP $DDDD,X
  $F4AB  43 2D     SRE ($2D,X)
  $F4AD  03 DD     SLO ($DD,X)
  $F4AF  4D BB D4  EOR $D4BB
  $F4B2  DD 0D 4D  CMP $4D0D,X
  $F4B5  DD 4B BB  CMP $BB4B,X
  $F4B8  B4 DD     LDY $DD,X
  $F4BA  0D 4D D0  ORA $D04D
  $F4BD  4B        ??? 
  $F4BE  99 B4 2D  STA $2DB4,Y
  $F4C1  4D 01 14  EOR $1401
  $F4C4  AA        TAX 
  $F4C5  AA        TAX 
  $F4C6  AA        TAX 
  $F4C7  44 4D     NOP $4D
  $F4C9  D4 44     NOP $44,X
  $F4CB  99 49 94  STA $9449,Y
  $F4CE  44 2D     NOP $2D
  $F4D0  DD 44 9D  CMP $9D44,X
  $F4D3  4D 94 42  EOR $4294
  $F4D6  DD DD 44  CMP $44DD,X
  $F4D9  44 44     NOP $44
  $F4DB  44 42     NOP $42
  $F4DD  DD 4B 33  CMP $334B,X
  $F4E0  39 93 33  AND $3393,Y
  $F4E3  3B 4D 4B  RLA $4B4D,Y
  $F4E6  BB        ??? 
  $F4E7  BB        ??? 
  $F4E8  BB        ??? 
  $F4E9  BB        ??? 
  $F4EA  BB        ??? 
  $F4EB  4D DD BB  EOR $BBDD
  $F4EE  B1 11     LDA ($11),Y
  $F4F0  BB        ??? 
  $F4F1  BB        ??? 
  $F4F2  DD DD D2  CMP $D2DD,X
  $F4F5  D4 D4     NOP $D4,X
  $F4F7  DD 2D DD  CMP $DD2D,X
  $F4FA  DD DD D0  CMP $D0DD,X
  $F4FD  D2        ??? 
  $F4FE  BB        ??? 
  $F4FF  DD DD D2  CMP $D2DD,X
  $F502  5D 2D DD  EOR $DD2D,X
  $F505  0B        ??? 
  $F506  20 BD D2  JSR $D2BD
  $F509  5D 2D 4D  EOR $4D2D,X
  $F50C  0B        ??? 
  $F50D  20 BD D4  JSR $D4BD
  $F510  DD 4D 9D  CMP $9D4D,X
  $F513  4B        ??? 
  $F514  D4 BD     NOP $BD,X
  $F516  DD D0 8D  CMP $8DD0,X
  $F519  4D 37 DB  EOR $DB37
  $F51C  BD 44 2D  LDA $2D44,X
  $F51F  DB 4B DD  DCP $DD4B,Y
  $F522  04 4D     NOP $4D
  $F524  DD DD 0B  CMP $0BDD,X
  $F527  BB        ??? 
  $F528  2D DD DD  AND $DDDD
  $F52B  94 4D     STY $4D,X
  $F52D  3B BB 30  RLA $30BB,Y
  $F530  44 9D     NOP $9D
  $F532  88        DEY 
  $F533  8D 1D BD  STA $BD1D
  $F536  1D 88 8D  ORA $8D88,X
  $F539  D4 DD     NOP $DD,X
  $F53B  4D DD 4D  EOR $4DDD
  $F53E  DD DD D4  CMP $D4DD,X
  $F541  2D D3 D3  AND $D3D3
  $F544  DD 04 BD  CMP $BD04,X
  $F547  DD 3D DD  CMP $DD3D,X
  $F54A  DD DD BB  CMP $BBDD,X
  $F54D  BD DD 1D  LDA $1DDD,X
  $F550  DD DD DD  CMP $DDDD,X
  $F553  1B BD DD  SLO $DDBD,Y
  $F556  DD DD 44  CMP $44DD,X
  $F559  44 DD     NOP $DD
  $F55B  DD D4 44  CMP $44D4,X
  $F55E  1D 1D D4  ORA $D41D,X
  $F561  DD DD DD  CMP $DDDD,X
  $F564  DD 4D 3D  CMP $3D4D,X
  $F567  DD D4 4D  CMP $4DD4,X
  $F56A  DA        NOP 
  $F56B  AA        TAX 
  $F56C  AA        TAX 
  $F56D  D4 2D     NOP $2D,X
  $F56F  D4 8D     NOP $8D,X
  $F571  DD 66 6A  CMP $6A66,X
  $F574  D4 D9     NOP $D9,X
  $F576  74 DD     NOP $DD,X
  $F578  4D 44 4A  EOR $4A44
  $F57B  AA        TAX 
  $F57C  DA        NOP 
  $F57D  44 DD     NOP $DD
  $F57F  DD DD 9A  CMP $9ADD,X
  $F582  DD DA 8D  CMP $8DDA,X
  $F585  DD AA AD  CMP $ADAA,X
  $F588  AA        TAX 
  $F589  44 DA     NOP $DA
  $F58B  DD DD DD  CMP $DDDD,X
  $F58E  DD D4 88  CMP $88D4,X
  $F591  DA        NOP 
  $F592  AA        TAX 
  $F593  DD 44 4D  CMP $4D44,X
  $F596  DD DD DD  CMP $DDDD,X
  $F599  DD DD DD  CMP $DDDD,X
  $F59C  4D 88 DD  EOR $DD88
  $F59F  D4 4D     NOP $4D,X
  $F5A1  0D 4D DD  ORA $DD4D
  $F5A4  DD DD D4  CMP $D4DD,X
  $F5A7  DD 4D DD  CMP $DD4D,X
  $F5AA  DD DD DD  CMP $DDDD,X
  $F5AD  DD DD DD  CMP $DDDD,X
  $F5B0  DD DD D9  CMP $D9DD,X
  $F5B3  D4 D4     NOP $D4,X
  $F5B5  4D DD D0  EOR $D0DD
  $F5B8  44 44     NOP $44
  $F5BA  D4 DD     NOP $DD,X
  $F5BC  DD DD DD  CMP $DDDD,X
  $F5BF  D2        ??? 
  $F5C0  D4 D4     NOP $D4,X
  $F5C2  4D BB BD  EOR $BDBB
  $F5C5  D0 DD     BNE $F5A4
  $F5C7  DD D9 DB  CMP $DBD9,X
  $F5CA  BB        ??? 
  $F5CB  BD D0 D4  LDA $D4D0,X
  $F5CE  44 94     NOP $94
  $F5D0  4B        ??? 
  $F5D1  B3 9D     LAX ($9D),Y
  $F5D3  D3 33     DCP ($33),Y
  $F5D5  9D D4 DB  STA $DBD4,X
  $F5D8  BD 0D 04  LDA $040D,X
  $F5DB  44 D9     NOP $D9
  $F5DD  BB        ??? 
  $F5DE  BB        ??? 
  $F5DF  BD DD DD  LDA $DDDD,X
  $F5E2  D9 DD BB  CMP $BBDD,Y
  $F5E5  BB        ??? 
  $F5E6  B4 DD     LDY $DD,X
  $F5E8  94 DB     STY $DB,X
  $F5EA  BB        ??? 
  $F5EB  B9 BB B4  LDA $B4BB,Y
  $F5EE  DD 04 BB  CMP $BB04,X
  $F5F1  BB        ??? 
  $F5F2  BD DD D4  LDA $D4DD,X
  $F5F5  2D D4 BB  AND $BBD4
  $F5F8  DD DD 84  CMP $84DD,X
  $F5FB  44 DD     NOP $DD
  $F5FD  DD BB DD  CMP $DDBB,X
  $F600  DD D4 D0  CMP $D0D4,X
  $F603  DD D1 BB  CMP $BBD1,X
  $F606  DD DD DD  CMP $DDDD,X
  $F609  DD DD DD  CMP $DDDD,X
  $F60C  DD DD DD  CMP $DDDD,X
  $F60F  DD DD DD  CMP $DDDD,X
  $F612  BB        ??? 
  $F613  DD 14 44  CMP $4414,X
  $F616  1D DB BD  ORA $BDDB,X
  $F619  BD D0 44  LDA $44D0,X
  $F61C  44 42     NOP $42
  $F61E  DD BD DD  CMP $DDBD,X
  $F621  D4 4B     NOP $4B,X
  $F623  4B        ??? 
  $F624  44 DD     NOP $DD
  $F626  DD DD D4  CMP $D4DD,X
  $F629  BB        ??? 
  $F62A  4B        ??? 
  $F62B  B4 DD     LDY $DD,X
  $F62D  DD BD D4  CMP $D4BD,X
  $F630  44 44     NOP $44
  $F632  44 DD     NOP $DD
  $F634  BD BB DD  LDA $DDBB,X
  $F637  4B        ??? 
  $F638  4B        ??? 
  $F639  4D DB BD  EOR $BDDB
  $F63C  AA        TAX 
  $F63D  AD 44 44  LDA $4444
  $F640  4D AA AD  EOR $ADAA
  $F643  DD DD 00  CMP $00DD,X
  $F646  00        BRK 
  $F647  0D DD DD  ORA $DDDD
  $F64A  DD DD 22  CMP $22DD,X
  $F64D  22        ??? 
  $F64E  2D DD DD  AND $DDDD
  $F651  55 5D     EOR $5D,X
  $F653  DD DD DD  CMP $DDDD,X
  $F656  77 7D     RRA $7D,X
  $F658  22        ??? 
  $F659  2D DD DD  AND $DDDD
  $F65C  DD 00 0D  CMP $0D00,X
  $F65F  77 75     RRA $75,X
  $F661  DD DD D7  CMP $D7DD,X
  $F664  55 5D     EOR $5D,X
  $F666  DD DD 1D  CMP $1DDD,X
  $F669  DD 1D DD  CMP $DD1D,X
  $F66C  DD D4 44  CMP $44D4,X
  $F66F  4D DD 44  EOR $44DD
  $F672  44 DD     NOP $DD
  $F674  D4 DD     NOP $DD,X
  $F676  DD 4D DD  CMP $DD4D,X
  $F679  D9 DD D9  CMP $D9DD,Y
  $F67C  D4 3D     NOP $3D,X
  $F67E  DD 34 D4  CMP $D434,X
  $F681  4D D4 D2  EOR $D2D4
  $F684  B6 96     LDX $96,Y
  $F686  B0 D9     BCS $F661
  $F688  4D D3 DD  EOR $DDD3
  $F68B  BB        ??? 
  $F68C  BB        ??? 
  $F68D  BD D8 4D  LDA $4DD8,X
  $F690  46 DD     LSR $DD
  $F692  BB        ??? 
  $F693  BB        ??? 
  $F694  BD D1 4D  LDA $4DD1,X
  $F697  49 D2     EOR #$D2
  $F699  B8        CLV 
  $F69A  98        TYA 
  $F69B  B0 D4     BCS $F671
  $F69D  DD 44 D4  CMP $D444,X
  $F6A0  1D DD 14  ORA $14DD,X
  $F6A3  D9 DD 49  CMP $49DD,Y
  $F6A6  DD DD 4D  CMP $4DDD,X
  $F6A9  DD D4 DD  CMP $DDD4,X
  $F6AC  44 44     NOP $44
  $F6AE  4D DD 44  EOR $44DD
  $F6B1  49 9D     EOR #$9D
  $F6B3  44 DD     NOP $DD
  $F6B5  3D DD 3D  AND $3DDD,X
  $F6B8  D4 DD     NOP $DD,X
  $F6BA  44 DD     NOP $DD
  $F6BC  DD DD DD  CMP $DDDD,X
  $F6BF  DD DD DD  CMP $DDDD,X
  $F6C2  4D D4 D1  EOR $D1D4
  $F6C5  D4 DD     NOP $DD,X
  $F6C7  DD B4 44  CMP $44B4,X
  $F6CA  D4 D6     NOP $D6,X
  $F6CC  D4 2D     NOP $2D,X
  $F6CE  DD BB BD  CMP $BDBB,X
  $F6D1  D3 D4     DCP ($D4),Y
  $F6D3  D3 D0     DCP ($D0),Y
  $F6D5  2D BA AA  AND $AABA
  $F6D8  AA        TAX 
  $F6D9  AA        TAX 
  $F6DA  AA        TAX 
  $F6DB  AD AD D4  LDA $D4AD
  $F6DE  DD DD 11  CMP $11DD,X
  $F6E1  DD DD DD  CMP $DDDD,X
  $F6E4  DD 4D D0  CMP $D04D,X
  $F6E7  44 34     NOP $34
  $F6E9  38        SEC 
  $F6EA  8D 44 D4  STA $D444
  $F6ED  D0 44     BNE $F733
  $F6EF  B4 66     LDY $66,X
  $F6F1  4D DD D9  EOR $D9DD
  $F6F4  D6 DB     DEC $DB,X
  $F6F6  BB        ??? 
  $F6F7  BD DD AA  LDA $AADD,X
  $F6FA  DA        NOP 
  $F6FB  AA        TAX 
  $F6FC  AA        TAX 
  $F6FD  DA        NOP 
  $F6FE  AA        TAX 
  $F6FF  AD BB D0  LDA $D0BB
  $F702  DD 11 DD  CMP $DD11,X
  $F705  DD DD BB  CMP $BBDD,X
  $F708  4D 2D D0  EOR $D02D
  $F70B  D6 14     DEC $14,X
  $F70D  DD B6 4D  CMP $4DB6,X
  $F710  2D DD D3  AND $D3DD
  $F713  D4 DD     NOP $DD,X
  $F715  DD DD DD  CMP $DDDD,X
  $F718  DD D1 D3  CMP $D3D1,X
  $F71B  DD DD D4  CMP $D4DD,X
  $F71E  DD DD D6  CMP $D6DD,X
  $F721  BD DD 4D  LDA $4DDD,X
  $F724  DD DD 6B  CMP $6BDD,X
  $F727  59 7D 4D  EOR $4D7D,Y
  $F72A  DD D6 B5  CMP $B5D6,X
  $F72D  97 D8     SAX $D8,Y
  $F72F  BD DD DD  LDA $DDDD,X
  $F732  59 7D 8B  EOR $8B7D,Y
  $F735  DD DD DD  CMP $DDDD,X
  $F738  DD D8 BD  CMP $BDD8,X
  $F73B  DD DD DD  CMP $DDDD,X
  $F73E  DD DD DB  CMP $DBDD,X
  $F741  6B        ??? 
  $F742  DB 6B DD  DCP $DD6B,Y
  $F745  DD 94 D5  CMP $D594,X
  $F748  97 D5     SAX $D5,Y
  $F74A  97 D4     SAX $D4,Y
  $F74C  9D DD DB  STA $DBDD,X
  $F74F  8B        ??? 
  $F750  DB 8B DD  DCP $DD8B,Y
  $F753  DD DD DD  CMP $DDDD,X
  $F756  6D DD 6D  ADC $6DDD
  $F759  DD DD 4D  CMP $4DDD,X
  $F75C  D5 97     CMP $97,X
  $F75E  D5 97     CMP $97,X
  $F760  DD 4D 4D  CMP $4D4D,X
  $F763  DB 8B DB  DCP $DB8B,Y
  $F766  8B        ??? 
  $F767  DD 4D DD  CMP $DD4D,X
  $F76A  1D DD DD  ORA $DDDD,X
  $F76D  DD 1D DD  CMP $DD1D,X
  $F770  DD 44 DD  CMP $DD44,X
  $F773  DD D4 4D  CMP $4DD4,X
  $F776  DD DD DD  CMP $DDDD,X
  $F779  44 DD     NOP $DD
  $F77B  4D DD DD  EOR $DDDD
  $F77E  DB B4 4D  DCP $4DB4,Y
  $F781  DD 4D DD  CMP $DD4D,X
  $F784  DD BB BB  CMP $BBBB,X
  $F787  BB        ??? 
  $F788  BB        ??? 
  $F789  44 DD     NOP $DD
  $F78B  DD B8 4B  CMP $4BB8,X
  $F78E  44 4B     NOP $4B
  $F790  BB        ??? 
  $F791  B4 9D     LDY $9D,X
  $F793  BB        ??? 
  $F794  4B        ??? 
  $F795  BB        ??? 
  $F796  8B        ??? 
  $F797  B4 74     LDY $74,X
  $F799  DD DB B4  CMP $B4DB,X
  $F79C  6B        ??? 
  $F79D  BB        ??? 
  $F79E  B4 D4     LDY $D4,X
  $F7A0  DD D4 44  CMP $44D4,X
  $F7A3  44 BB     NOP $BB
  $F7A5  44 2B     NOP $2B
  $F7A7  BD 58 44  LDA $4458,X
  $F7AA  DD D4 3D  CMP $3DD4,X
  $F7AD  DD BD D4  CMP $D4BD,X
  $F7B0  D4 D6     NOP $D6,X
  $F7B2  13 BB     SLO ($BB),Y
  $F7B4  42        ??? 
  $F7B5  BD D4 DD  LDA $DDD4,X
  $F7B8  04 3B     NOP $3B
  $F7BA  B4 DD     LDY $DD,X
  $F7BC  BD D4 42  LDA $42D4,X
  $F7BF  03 BB     SLO ($BB,X)
  $F7C1  1B 4B BD  SLO $BD4B,Y
  $F7C4  DD 4D BD  CMP $BD4D,X
  $F7C7  DD 4B 3B  CMP $3B4B,X
  $F7CA  DD DD 3D  CMP $3DDD,X
  $F7CD  BD DD DB  LDA $DBDD,X
  $F7D0  BB        ??? 
  $F7D1  DD DD DD  CMP $DDDD,X
  $F7D4  DD DD DD  CMP $DDDD,X
  $F7D7  DD DD DD  CMP $DDDD,X
  $F7DA  9B        ??? 
  $F7DB  9D DD DD  STA $DDDD,X
  $F7DE  DD DD DD  CMP $DDDD,X
  $F7E1  DB DB 6D  DCP $6DDB,Y
  $F7E4  DD DD DD  CMP $DDDD,X
  $F7E7  DB DD DD  DCP $DDDD,Y
  $F7EA  B1 DD     LDA ($DD),Y
  $F7EC  DD DD DB  CMP $DBDD,X
  $F7EF  BD DB DB  LDA $DBDB,X
  $F7F2  6D DD DD  ADC $DDDD
  $F7F5  DB DB DB  DCP $DBDB,Y
  $F7F8  DD B1 DD  CMP $DDB1,X
  $F7FB  DD DB DD  CMP $DDDB,X
  $F7FE  BD DD BB  LDA $BBDD,X
  $F801  6D DD DD  ADC $DDDD
  $F804  BD DD DB  LDA $DBDD,X
  $F807  BB        ??? 
  $F808  B1 DD     LDA ($DD),Y
  $F80A  DD DB DD  CMP $DDDB,X
  $F80D  BD BB BB  LDA $BBBB,X
  $F810  DD 4D DD  CMP $DD4D,X
  $F813  DD BD DB  CMP $DBBD,X
  $F816  BB        ??? 
  $F817  9D 44 DD  STA $DD44,X
  $F81A  DD DB DB  CMP $DBDB,X
  $F81D  BB        ??? 
  $F81E  BD 94 4D  LDA $4D94,X
  $F821  DD DD BD  CMP $BDDD,X
  $F824  BB        ??? 
  $F825  BD 99 44  LDA $4499,X
  $F828  DD DD BD  CMP $BDDD,X
  $F82B  DB BD DD  DCP $DDBD,Y
  $F82E  DD 1D DD  CMP $DD1D,X
  $F831  DD 1D DD  CMP $DD1D,X
  $F834  D4 D4     NOP $D4,X
  $F836  4D DC CC  EOR $CCDC
  $F839  44 DD     NOP $DD
  $F83B  D4 DD     NOP $DD,X
  $F83D  4D 9C CC  EOR $CC9C
  $F840  CC DD CC  CPY $CCDD
  $F843  C7 4D     DCP $4D
  $F845  D4 CC     NOP $CC,X
  $F847  CC DD CC  CPY $CCDD
  $F84A  CC CC 44  CPY $44CC
  $F84D  02        ??? 
  $F84E  DD DD DD  CMP $DDDD,X
  $F851  5C CC C4  NOP $C4CC,X
  $F854  02        ??? 
  $F855  D8        CLD 
  $F856  8D 44 44  STA $4444
  $F859  CC CC CC  CPY $CCCC
  $F85C  C4 4D     CPY $4D
  $F85E  DD D4 4C  CMP $4CD4,X
  $F861  CC C7 DD  CPY $DDC7
  $F864  DD D4 44  CMP $44D4,X
  $F867  DC CC 44  NOP $44CC,X
  $F86A  D4 DD     NOP $DD,X
  $F86C  CC C4 CD  CPY $CDC4
  $F86F  DD D4 D4  CMP $D4D4,X
  $F872  DD CC CC  CMP $CCCC,X
  $F875  C8        INY 
  $F876  D8        CLD 
  $F877  DD 14 DD  CMP $DD14,X
  $F87A  4C CC CD  JMP $CDCC
  $F87D  DD D4 DD  CMP $DDD4,X
  $F880  DD 44 7D  CMP $7D44,X
  $F883  DD DD D4  CMP $D4DD,X
  $F886  D4 DD     NOP $DD,X
  $F888  DD DD DD  CMP $DDDD,X
  $F88B  DD 99 9B  CMP $9B99,X
  $F88E  DD D4 DD  CMP $DDD4,X
  $F891  DD DD 9D  CMP $9DDD,X
  $F894  D9 DD 4B  CMP $4BDD,Y
  $F897  4D DD 44  EOR $44DD
  $F89A  44 D9     NOP $D9
  $F89C  DD D4 B4  CMP $B4D4,X
  $F89F  DD 4D B4  CMP $B44D,X
  $F8A2  99 DD DD  STA $DDDD,Y
  $F8A5  4D B9 4B  EOR $4BB9
  $F8A8  D4 DD     NOP $DD,X
  $F8AA  DD DD DD  CMP $DDDD,X
  $F8AD  9D 49 44  STA $4449,X
  $F8B0  DD DD DD  CMP $DDDD,X
  $F8B3  44 94     NOP $94
  $F8B5  D9 DD DD  CMP $DDDD,Y
  $F8B8  DD DD 4D  CMP $4DDD,X
  $F8BB  B4 9B     LDY $9B,X
  $F8BD  DD DD DD  CMP $DDDD,X
  $F8C0  99 9B D4  STA $D49B,Y
  $F8C3  DD 44 DD  CMP $DD44,X
  $F8C6  DD 9D 44  CMP $449D,X
  $F8C9  44 DD     NOP $DD
  $F8CB  49 9D     EOR #$9D
  $F8CD  DD 9D D9  CMP $D99D,X
  $F8D0  DD DD D9  CMP $D9DD,X
  $F8D3  44 DD     NOP $DD
  $F8D5  B9 99 DD  LDA $DD99,Y
  $F8D8  DD DD 49  CMP $49DD,X
  $F8DB  9D DD DD  STA $DDDD,X
  $F8DE  DD DD DD  CMP $DDDD,X
  $F8E1  D9 9D D4  CMP $D49D,Y
  $F8E4  D4 D4     NOP $D4,X
  $F8E6  D4 D4     NOP $D4,X
  $F8E8  D4 DD     NOP $DD,X
  $F8EA  D4 D4     NOP $D4,X
  $F8EC  D4 D4     NOP $D4,X
  $F8EE  D4 D4     NOP $D4,X
  $F8F0  DD D8 D8  CMP $D8D8,X
  $F8F3  D8        CLD 
  $F8F4  D8        CLD 
  $F8F5  D8        CLD 
  $F8F6  D8        CLD 
  $F8F7  DD 1D 1D  CMP $1D1D,X
  $F8FA  4D DD 4D  EOR $4DDD
  $F8FD  1D 1D 4D  ORA $4D1D,X
  $F900  43 4D     SRE ($4D,X)
  $F902  4D 43 4D  EOR $4D43
  $F905  4D 8D 8D  EOR $8D8D
  $F908  9D 8D 9D  STA $9D8D,X
  $F90B  8D 8D BB  STA $BB8D
  $F90E  DD 4D BD  CMP $BD4D,X
  $F911  4D DB BD  EOR $BDDB
  $F914  BB        ??? 
  $F915  BB        ??? 
  $F916  43 B3     SRE ($B3,X)
  $F918  4B        ??? 
  $F919  BB        ??? 
  $F91A  BD BB BB  LDA $BBBB,X
  $F91D  BB        ??? 
  $F91E  BB        ??? 
  $F91F  BB        ??? 
  $F920  BB        ??? 
  $F921  BD 1D 1D  LDA $1D1D,X
  $F924  4B        ??? 
  $F925  BB        ??? 
  $F926  4D 1D 1D  EOR $1D1D
  $F929  D4 D4     NOP $D4,X
  $F92B  DD BD D4  CMP $D4BD,X
  $F92E  D4 DD     NOP $DD,X
  $F930  D4 D4     NOP $D4,X
  $F932  DD DD D4  CMP $D4DD,X
  $F935  D4 DD     NOP $DD,X
  $F937  D3 D3     DCP ($D3),Y
  $F939  DD DD D3  CMP $D3DD,X
  $F93C  D3 DD     DCP ($DD),Y
  $F93E  DD DA D4  CMP $D4DA,X
  $F941  DD 4D 4D  CMP $4D4D,X
  $F944  DD DD DD  CMP $DDDD,X
  $F947  DD DD 4D  CMP $4DDD,X
  $F94A  9D DD DD  STA $DDDD,X
  $F94D  DA        NOP 
  $F94E  D1 9D     CMP ($9D),Y
  $F950  4D 4D DD  EOR $DD4D
  $F953  8D 4A D9  STA $D94A
  $F956  D1 3D     CMP ($3D),Y
  $F958  4D DD DD  EOR $DDDD
  $F95B  4A        LSR 
  $F95C  DD D4 DD  CMP $DDD4,X
  $F95F  DD DD 4D  CMP $4DDD,X
  $F962  4A        LSR 
  $F963  AD AA AA  LDA $AAAA
  $F966  DD 4D DD  CMP $DD4D,X
  $F969  D1 DD     CMP ($DD),Y
  $F96B  DB DA D8  DCP $D8DA,Y
  $F96E  8D 44 04  STA $0444
  $F971  D9 BB BA  CMP $BABB,Y
  $F974  D1 1D     CMP ($1D),Y
  $F976  3D 0D D4  AND $D40D,X
  $F979  BB        ??? 
  $F97A  BA        TSX 
  $F97B  D4 DD     NOP $DD,X
  $F97D  D6 DD     DEC $DD,X
  $F97F  D4 DB     NOP $DB,X
  $F981  DA        NOP 
  $F982  DB DD D4  DCP $D4DD,Y
  $F985  D6 D3     DEC $D3,X
  $F987  33 DD     RLA ($DD),Y
  $F989  BB        ??? 
  $F98A  BD D4 D4  LDA $D4D4,X
  $F98D  DD DD DA  CMP $DADD,X
  $F990  BB        ??? 
  $F991  BD DD DD  LDA $DDDD,X
  $F994  DD DD DA  CMP $DADD,X
  $F997  DB DD DD  DCP $DDDD,Y
  $F99A  D1 11     CMP ($11),Y
  $F99C  DD 1D DD  CMP $DD1D,X
  $F99F  DD D1 44  CMP $44D1,X
  $F9A2  44 44     NOP $44
  $F9A4  44 DD     NOP $DD
  $F9A6  DD DB BB  CMP $BBDB,X
  $F9A9  BB        ??? 
  $F9AA  BB        ??? 
  $F9AB  B4 4D     LDY $4D,X
  $F9AD  DD BB DD  CMP $DDBB,X
  $F9B0  DD DD BB  CMP $BBDD,X
  $F9B3  44 DD     NOP $DD
  $F9B5  BD 9D D9  LDA $D99D,X
  $F9B8  DD DB BB  CMP $BBDB,X
  $F9BB  DD BD 9D  CMP $9DBD,X
  $F9BE  D9 DD DB  CMP $DBDD,Y
  $F9C1  BB        ??? 
  $F9C2  DD BD DB  CMP $DBBD,X
  $F9C5  DD DD BB  CMP $BBDD,X
  $F9C8  44 2D     NOP $2D
  $F9CA  BB        ??? 
  $F9CB  BB        ??? 
  $F9CC  BB        ??? 
  $F9CD  BB        ??? 
  $F9CE  B4 44     LDY $44,X
  $F9D0  2D 4B B4  AND $B44B
  $F9D3  4B        ??? 
  $F9D4  BB        ??? 
  $F9D5  44 44     NOP $44
  $F9D7  DD D4 44  CMP $44D4,X
  $F9DA  44 44     NOP $44
  $F9DC  44 4D     NOP $4D
  $F9DE  9D 9D 49  STA $499D,X
  $F9E1  44 44     NOP $44
  $F9E3  44 2D     NOP $2D
  $F9E5  9D D9 43  STA $43D9,X
  $F9E8  94 44     STY $44,X
  $F9EA  44 99     NOP $99
  $F9EC  9D DD DD  STA $DDDD,X
  $F9EF  DD DD DD  CMP $DDDD,X
  $F9F2  DD DD DD  CMP $DDDD,X
  $F9F5  DD DB DD  CMP $DDDB,X
  $F9F8  DD DD DD  CMP $DDDD,X
  $F9FB  DD DD B9  CMP $B9DD,X
  $F9FE  BD DD DD  LDA $DDDD,X
  $FA01  DD DD BD  CMP $BDDD,X
  $FA04  DB DD BB  DCP $BBDD,Y
  $FA07  DD DD DB  CMP $DBDD,X
  $FA0A  4B        ??? 
  $FA0B  DD DB 44  CMP $44DB,X
  $FA0E  BD DD DD  LDA $DDDD,X
  $FA11  B4 BD     LDY $BD,X
  $FA13  DD BB DD  CMP $DDBB,X
  $FA16  BD BD DB  LDA $DBBD,X
  $FA19  DD BD DD  CMP $DDBD,X
  $FA1C  DB 9D 4B  DCP $4B9D,Y
  $FA1F  DD DB 9B  CMP $9BDB,X
  $FA22  DD BD BD  CMP $BDBD,X
  $FA25  94 BD     STY $BD,X
  $FA27  DD BD DB  CMP $DBBD,X
  $FA2A  9B        ??? 
  $FA2B  DD 4B DD  CMP $DD4B,X
  $FA2E  BD DD BD  LDA $BDDD,X
  $FA31  BD DD BD  LDA $BDDD,X
  $FA34  DB 4B DB  DCP $DB4B,Y
  $FA37  4B        ??? 
  $FA38  DD DD DD  CMP $DDDD,X
  $FA3B  DB 4B DD  DCP $DD4B,Y
  $FA3E  BD DB DD  LDA $DDDB,X
  $FA41  DB DD BD  DCP $BDDD,Y
  $FA44  DD DD B9  CMP $B9DD,X
  $FA47  BD B9 BD  LDA $BDB9,X
  $FA4A  DD DD DB  CMP $DBDD,X
  $FA4D  4B        ??? 
  $FA4E  DD DD DD  CMP $DDDD,X
  $FA51  DD DD DD  CMP $DDDD,X
  $FA54  DD DD DD  CMP $DDDD,X
  $FA57  DD D9 9D  CMP $9DD9,X
  $FA5A  DD DD DD  CMP $DDDD,X
  $FA5D  DD DD DD  CMP $DDDD,X
  $FA60  9D DD DD  STA $DDDD,X
  $FA63  DD D9 9B  CMP $9BD9,X
  $FA66  B4 94     LDY $94,X
  $FA68  BB        ??? 
  $FA69  99 DD DD  STA $DDDD,Y
  $FA6C  D9 BB 9B  CMP $9BBB,Y
  $FA6F  B9 DD DD  LDA $DDDD,Y
  $FA72  BD DD 9B  LDA $9BDD,X
  $FA75  BB        ??? 
  $FA76  9D DD BD  STA $BDDD,X
  $FA79  9B        ??? 
  $FA7A  DD DB BB  CMP $BBDB,X
  $FA7D  DD DB 9D  CMP $9DDB,X
  $FA80  BD DD 68  LDA $68DD,X
  $FA83  B8        CLV 
  $FA84  6D DD BD  ADC $BDDD
  $FA87  DD DD 9D  CMP $9DDD,X
  $FA8A  6D 9D DD  ADC $DD9D
  $FA8D  DD DD D9  CMP $D9DD,X
  $FA90  DD 9D D9  CMP $D99D,X
  $FA93  DD DD DD  CMP $DDDD,X
  $FA96  DD DD DD  CMP $DDDD,X
  $FA99  DD DD DD  CMP $DDDD,X
  $FA9C  DD DD DD  CMP $DDDD,X
  $FA9F  DD DD DD  CMP $DDDD,X
  $FAA2  DD DD 9D  CMP $9DDD,X
  $FAA5  DD DD DD  CMP $DDDD,X
  $FAA8  9D DD DD  STA $DDDD,X
  $FAAB  9D 48 DD  STA $DD48,X
  $FAAE  DD 0D DD  CMP $DD0D,X
  $FAB1  DD 4D 4B  CMP $4B4D,X
  $FAB4  D3 44     DCP ($44),Y
  $FAB6  4D DD DB  EOR $DBDD
  $FAB9  BD 4B 02  LDA $024B,X
  $FABC  DD D9 9D  CMP $9DD9,X
  $FABF  BB        ??? 
  $FAC0  BB        ??? 
  $FAC1  BB        ??? 
  $FAC2  44 4D     NOP $4D
  $FAC4  04 DD     NOP $DD
  $FAC6  DD BB 11  CMP $11BB,X
  $FAC9  84 D0     STY $D0
  $FACB  43 0D     SRE ($0D,X)
  $FACD  48        PHA 
  $FACE  D1 33     CMP ($33),Y
  $FAD0  DD D4 3D  CMP $3DD4,X
  $FAD3  0D 0D 14  ORA $140D
  $FAD6  CC CC CC  CPY $CCCC
  $FAD9  CC CD 0D  CPY $0DCD
  $FADC  3D CC CC  AND $CCCC,X
  $FADF  CC CC CD  CPY $CDCC
  $FAE2  DD 9D CC  CMP $CC9D,X
  $FAE5  CC CC CC  CPY $CCCC
  $FAE8  CD 4D 4D  CMP $4D4D
  $FAEB  CC CC CC  CPY $CCCC
  $FAEE  CC CD 0D  CPY $0DCD
  $FAF1  4D CC CC  EOR $CCCC
  $FAF4  CC CC CD  CPY $CDCC
  $FAF7  0D 4D DD  ORA $DD4D
  $FAFA  DD CC CC  CMP $CCCC,X
  $FAFD  CD DD 3D  CMP $3DDD
  $FB00  DD DD DC  CMP $DCDD,X
  $FB03  CC CD DD  CPY $DDCD
  $FB06  D9 D4 D4  CMP $D4D4,Y
  $FB09  D4 D9     NOP $D9,X
  $FB0B  DD D4 D4  CMP $D4D4,X
  $FB0E  DD DD D9  CMP $D9DD,X
  $FB11  DD DD D4  CMP $D4DD,X
  $FB14  D4 DD     NOP $DD,X
  $FB16  9D D9 D9  STA $D9D9,X
  $FB19  9D D4 DD  STA $DDD4,X
  $FB1C  D4 D9     NOP $D9,X
  $FB1E  4D DD 9D  EOR $9DDD
  $FB21  DD DD 44  CMP $44DD,X
  $FB24  D4 4D     NOP $4D,X
  $FB26  9D DD DD  STA $DDDD,X
  $FB29  9D 4D D4  STA $D44D,X
  $FB2C  4D 44 DD  EOR $DD44
  $FB2F  9D 9D D4  STA $D49D,X
  $FB32  D9 DD 94  CMP $94DD,Y
  $FB35  DD DD 44  CMP $44DD,X
  $FB38  D4 DD     NOP $DD,X
  $FB3A  D4 9D     NOP $9D,X
  $FB3C  DD D9 44  CMP $44D9,X
  $FB3F  D4 4D     NOP $4D,X
  $FB41  44 DD     NOP $DD
  $FB43  4D D4 DD  EOR $DDD4
  $FB46  D4 9D     NOP $9D,X
  $FB48  DD D4 4D  CMP $4DD4,X
  $FB4B  DD D4 D4  CMP $D4D4,X
  $FB4E  49 D9     EOR #$D9
  $FB50  DD 4D 4D  CMP $4D4D,X
  $FB53  44 DD     NOP $DD
  $FB55  DD D4 9D  CMP $9DD4,X
  $FB58  DD 4D 4D  CMP $4D4D,X
  $FB5B  DD DD D4  CMP $D4DD,X
  $FB5E  44 DD     NOP $DD
  $FB60  DD AA DD  CMP $DDAA,X
  $FB63  DD DD DD  CMP $DDDD,X
  $FB66  DD 6D DA  CMP $DA6D,X
  $FB69  BD 2D DD  LDA $DD2D,X
  $FB6C  DD DD B6  CMP $B6DD,X
  $FB6F  DD DD 7D  CMP $7DDD,X
  $FB72  2D AA DD  AND $DDAA
  $FB75  BB        ??? 
  $FB76  D8        CLD 
  $FB77  10 DD     BPL $FB56
  $FB79  7B AD DD  RRA $DDAD,Y
  $FB7C  BB        ??? 
  $FB7D  BD D9 10  LDA $10D9,X
  $FB80  DD DD 6D  CMP $6DDD,X
  $FB83  BB        ??? 
  $FB84  86 D0     STX $D0
  $FB86  D9 1D D6  CMP $D61D,Y
  $FB89  BD B8 DD  LDA $DDB8,X
  $FB8C  39 D0 D8  AND $D8D0,Y
  $FB8F  DB BD DD  DCP $DDBD,Y
  $FB92  DD D2 39  CMP $39D2,X
  $FB95  DD BB BD  CMP $BDBB,X
  $FB98  DD AB 5D  CMP $5DAB,X
  $FB9B  D2        ??? 
  $FB9C  36 8B     ROL $8B,X
  $FB9E  BD DA AD  LDA $ADDA,X
  $FBA1  0D 5D DD  ORA $DD5D
  $FBA4  DD BD DD  CMP $DDBD,X
  $FBA7  DD DD 0D  CMP $0DDD,X
  $FBAA  BA        TSX 
  $FBAB  DD 8D 9D  CMP $9D8D,X
  $FBAE  DD DD DD  CMP $DDDD,X
  $FBB1  DA        NOP 
  $FBB2  AD DD 99  LDA $99DD
  $FBB5  DD DD DD  CMP $DDDD,X
  $FBB8  DD DD 9D  CMP $9DDD,X
  $FBBB  DD DD 9D  CMP $9DDD,X
  $FBBE  DD DD DD  CMP $DDDD,X
  $FBC1  DD 99 DD  CMP $DD99,X
  $FBC4  9D D9 9D  STA $9DD9,X
  $FBC7  DD DD D9  CMP $D9DD,X
  $FBCA  DD 9D DD  CMP $DD9D,X
  $FBCD  9D 99 BD  STA $BD99,X
  $FBD0  D9 DD 99  CMP $99DD,Y
  $FBD3  9D BD 9D  STA $9DBD,X
  $FBD6  DD D4 DD  CMP $DDD4,X
  $FBD9  DD 9D 99  CMP $999D,X
  $FBDC  9D DD B9  STA $B9DD,X
  $FBDF  9D 94 94  STA $9494,X
  $FBE2  4D DD DD  EOR $DDDD
  $FBE5  DD 9B 9B  CMP $9B9B,X
  $FBE8  DD 4D D9  CMP $D94D,X
  $FBEB  9D DD 9D  STA $9DDD,X
  $FBEE  DB DD 9D  DCP $9DDD,Y
  $FBF1  D9 DD DD  CMP $DDDD,Y
  $FBF4  4D D9 DD  EOR $DDD9
  $FBF7  99 49 DD  STA $DD49,Y
  $FBFA  B9 99 BB  LDA $BB99,Y
  $FBFD  49 9D     EOR #$9D
  $FBFF  49 DD     EOR #$DD
  $FC01  DD D4 DD  CMP $DDD4,X
  $FC04  DD BB D4  CMP $D4BB,X
  $FC07  DD DD D9  CMP $D9DD,X
  $FC0A  DD DD DB  CMP $DBDD,X
  $FC0D  D4 DD     NOP $DD,X
  $FC0F  DD D9 DD  CMP $DDD9,X
  $FC12  DD D9 D4  CMP $D4D9,X
  $FC15  DD DD DD  CMP $DDDD,X
  $FC18  DD DD DD  CMP $DDDD,X
  $FC1B  57 DD     SRE $DD,X
  $FC1D  DD DD DD  CMP $DDDD,X
  $FC20  6D DD 9D  ADC $9DDD
  $FC23  DD DD DD  CMP $DDDD,X
  $FC26  D1 B1     CMP ($B1),Y
  $FC28  D4 2D     NOP $2D,X
  $FC2A  DD DD DD  CMP $DDDD,X
  $FC2D  6B        ??? 
  $FC2E  BB        ??? 
  $FC2F  64 2D     NOP $2D
  $FC31  DD DD D1  CMP $D1DD,X
  $FC34  BB        ??? 
  $FC35  CB        ??? 
  $FC36  B4 2D     LDY $2D,X
  $FC38  DD DD 6B  CMP $6BDD,X
  $FC3B  BC CC BB  LDY $BBCC,X
  $FC3E  2D DD D1  AND $D1DD
  $FC41  BB        ??? 
  $FC42  CC CC CB  CPY $CBCC
  $FC45  B1 DD     LDA ($DD),Y
  $FC47  6B        ??? 
  $FC48  BC CC CC  LDY $CCCC,X
  $FC4B  CC BB 6D  CPY $6DBB
  $FC4E  BB        ??? 
  $FC4F  CC CC CC  CPY $CCCC
  $FC52  CC CB BD  CPY $BDCB
  $FC55  DB CC CC  DCP $CCCC,Y
  $FC58  CC CC CB  CPY $CBCC
  $FC5B  DD DB CC  CMP $CCDB,X
  $FC5E  CC CC CC  CPY $CCCC
  $FC61  CB        ??? 
  $FC62  DD DB CC  CMP $CCDB,X
  $FC65  CD DD CC  CMP $CCDD
  $FC68  CB        ??? 
  $FC69  DD DB CC  CMP $CCDB,X
  $FC6C  DD DD DC  CMP $DCDD,X
  $FC6F  CB        ??? 
  $FC70  DD DD DD  CMP $DDDD,X
  $FC73  DD DD DD  CMP $DDDD,X
  $FC76  4D DD D4  EOR $D4DD
  $FC79  AA        TAX 
  $FC7A  D9 D4 DD  CMP $DDD4,Y
  $FC7D  DD DD DD  CMP $DDDD,X
  $FC80  AA        TAX 
  $FC81  4B        ??? 
  $FC82  BB        ??? 
  $FC83  AA        TAX 
  $FC84  D9 DD DD  CMP $DDDD,Y
  $FC87  DD DB BB  CMP $BBDB,X
  $FC8A  AA        TAX 
  $FC8B  4D DD D9  EOR $D9DD
  $FC8E  DD AA DB  CMP $DBAA,X
  $FC91  DD DD DD  CMP $DDDD,X
  $FC94  BB        ??? 
  $FC95  4D AA 9D  EOR $9DAA
  $FC98  DD D4 DD  CMP $DDD4,X
  $FC9B  BB        ??? 
  $FC9C  BD DD DD  LDA $DDDD,X
  $FC9F  D9 DD 9D  CMP $9DDD,Y
  $FCA2  D4 AA     NOP $AA,X
  $FCA4  D4 DD     NOP $DD,X
  $FCA6  DD DD DD  CMP $DDDD,X
  $FCA9  9D AA BB  STA $BBAA,X
  $FCAC  AA        TAX 
  $FCAD  BB        ??? 
  $FCAE  D4 DD     NOP $DD,X
  $FCB0  DD DD BD  CMP $BDDD,X
  $FCB3  AA        TAX 
  $FCB4  BB        ??? 
  $FCB5  AA        TAX 
  $FCB6  DD DD D9  CMP $D9DD,X
  $FCB9  BD DD BB  LDA $BBDD,X
  $FCBC  AA        TAX 
  $FCBD  DD DD 4D  CMP $4DDD,X
  $FCC0  4D DD DD  EOR $DDDD
  $FCC3  DD DD 4D  CMP $4DDD,X
  $FCC6  DD DD DD  CMP $DDDD,X
  $FCC9  D4 9D     NOP $9D,X
  $FCCB  DD DD DD  CMP $DDDD,X
  $FCCE  DD DD DD  CMP $DDDD,X
  $FCD1  DD DD DD  CMP $DDDD,X
  $FCD4  DD D1 1D  CMP $1DD1,X
  $FCD7  DD 6D DD  CMP $DD6D,X
  $FCDA  D6 6D     DEC $6D,X
  $FCDC  1B B6 D1  SLO $D1B6,Y
  $FCDF  B1 DD     LDA ($DD),Y
  $FCE1  1B B1 BB  SLO $BBB1,Y
  $FCE4  BB        ??? 
  $FCE5  1B BB 1D  SLO $1DBB,Y
  $FCE8  BB        ??? 
  $FCE9  BB        ??? 
  $FCEA  BB        ??? 
  $FCEB  BB        ??? 
  $FCEC  BB        ??? 
  $FCED  BB        ??? 
  $FCEE  BD 9B AB  LDA $AB9B,X
  $FCF1  BB        ??? 
  $FCF2  BB        ??? 
  $FCF3  AB        ??? 
  $FCF4  BB        ??? 
  $FCF5  BD BB AA  LDA $AABB,X
  $FCF8  AB        ??? 
  $FCF9  BB        ??? 
  $FCFA  AA        TAX 
  $FCFB  AB        ??? 
  $FCFC  9D BB BB  STA $BBBB,X
  $FCFF  AB        ??? 
  $FD00  9B        ??? 
  $FD01  BB        ??? 
  $FD02  AB        ??? 
  $FD03  BD BB BB  LDA $BBBB,X
  $FD06  BB        ??? 
  $FD07  BB        ??? 
  $FD08  BB        ??? 
  $FD09  BB        ??? 
  $FD0A  BD BB BB  LDA $BBBB,X
  $FD0D  B3 3B     LAX ($3B),Y
  $FD0F  BB        ??? 
  $FD10  BB        ??? 
  $FD11  8D 8B BB  STA $BB8B
  $FD14  3D D3 BB  AND $BBD3,X
  $FD17  B8        CLV 
  $FD18  DD D8 33  CMP $33D8,X
  $FD1B  DD DD 33  CMP $33DD,X
  $FD1E  3D DD DD  AND $DDDD,X
  $FD21  DD DD DD  CMP $DDDD,X
  $FD24  DD DD DD  CMP $DDDD,X
  $FD27  DD DA DD  CMP $DDDA,X
  $FD2A  DD AD DD  CMP $DDAD,X
  $FD2D  DD AA DA  CMP $DAAA,X
  $FD30  DA        NOP 
  $FD31  AA        TAX 
  $FD32  AD AA AD  LDA $ADAA
  $FD35  BB        ??? 
  $FD36  4D D4 DD  EOR $DDD4
  $FD39  AD AB AD  LDA $ADAB
  $FD3C  BA        TSX 
  $FD3D  AA        TAX 
  $FD3E  AD 9D D4  LDA $D49D
  $FD41  BB        ??? 
  $FD42  BD BB DA  LDA $DABB,X
  $FD45  DD AD AA  CMP $AAAD,X
  $FD48  AA        TAX 
  $FD49  BD AA DA  LDA $DAAA,X
  $FD4C  DA        NOP 
  $FD4D  AD DA DD  LDA $DDDA
  $FD50  DD DD 4B  CMP $4BDD,X
  $FD53  4D 4B DA  EOR $DA4B
  $FD56  DD AD DA  CMP $DAAD,X
  $FD59  AB        ??? 
  $FD5A  AA        TAX 
  $FD5B  AA        TAX 
  $FD5C  DB 4D AD  DCP $AD4D,Y
  $FD5F  4D D4 DD  EOR $DDD4
  $FD62  AD BB AD  LDA $ADBB
  $FD65  AD AA DA  LDA $DAAA
  $FD68  AD A4 AA  LDA $AAA4
  $FD6B  AD DD DD  LDA $DDDD
  $FD6E  4D BB DD  EOR $DDBB
  $FD71  BA        TSX 
  $FD72  DD AD DA  CMP $DAAD,X
  $FD75  AA        TAX 
  $FD76  BD DD DA  LDA $DADD,X
  $FD79  DA        NOP 
  $FD7A  AD DA DD  LDA $DDDA
  $FD7D  DD DD DD  CMP $DDDD,X
  $FD80  DD DD CC  CMP $CCDD,X
  $FD83  CC CC CC  CPY $CCCC
  $FD86  CC CC CD  CPY $CDCC
  $FD89  CC CC CC  CPY $CCCC
  $FD8C  CC CC CC  CPY $CCCC
  $FD8F  CD CC C4  CMP $C4CC
  $FD92  CC CC C4  CPY $C4CC
  $FD95  CC CD C4  CPY $C4CD
  $FD98  D4 D4     NOP $D4,X
  $FD9A  C4 D4     CPY $D4
  $FD9C  D4 CD     NOP $CD,X
  $FD9E  C3 34     DCP ($34,X)
  $FDA0  DD DD D4  CMP $D4DD,X
  $FDA3  33 CD     RLA ($CD),Y
  $FDA5  CC C4 14  CPY $14C4
  $FDA8  94 14     STY $14,X
  $FDAA  CC CD 9C  CPY $9CCD
  $FDAD  CC D8 D8  CPY $D8D8
  $FDB0  DC CC 9D  NOP $9DCC,X
  $FDB3  CC CC D1  CPY $D1CC
  $FDB6  D1 DC     CMP ($DC),Y
  $FDB8  CC CD CC  CPY $CCCD
  $FDBB  CC D4 D4  CPY $D4D4
  $FDBE  DC CC CD  NOP $CDCC,X
  $FDC1  CC C4 DD  CPY $DDC4
  $FDC4  1D D4 CC  ORA $CCD4,X
  $FDC7  CD C4 C4  CMP $C4C4
  $FDCA  D8        CLD 
  $FDCB  88        DEY 
  $FDCC  D4 C4     NOP $C4,X
  $FDCE  CD D4 14  CMP $14D4
  $FDD1  DD DD D4  CMP $D4DD,X
  $FDD4  14 DD     NOP $DD,X
  $FDD6  D3 DD     DCP ($DD),Y
  $FDD8  DD DD DD  CMP $DDDD,X
  $FDDB  D3 DD     DCP ($DD),Y
  $FDDD  DD DD 9D  CMP $9DDD,X
  $FDE0  DD D9 DD  CMP $DDD9,X
  $FDE3  DD D9 DD  CMP $DDD9,X
  $FDE6  D9 DD 9B  CMP $9BDD,Y
  $FDE9  BD DD DD  LDA $DDDD,X
  $FDEC  9D DD D9  STA $D9DD,X
  $FDEF  B6 7D     LDX $7D,Y
  $FDF1  DD DD D9  CMP $D9DD,X
  $FDF4  DB BB BB  DCP $BBBB,Y
  $FDF7  D5 DD     CMP $DD,X
  $FDF9  D7 DD     DCP $DD,X
  $FDFB  9B        ??? 
  $FDFC  B9 BD D9  LDA $D9BD,Y
  $FDFF  DD D8 7B  CMP $7BD8,X
  $FE02  D9 BB 9D  CMP $9DBB,Y
  $FE05  D5 DD     CMP $DD,X
  $FE07  DD BB BB  CMP $BBBB,X
  $FE0A  BD D9 DD  LDA $DDD9,X
  $FE0D  DD D6 7B  CMP $7BD6,X
  $FE10  D9 BD DD  CMP $DDBD,Y
  $FE13  9D DD DB  STA $DBDD,X
  $FE16  BB        ??? 
  $FE17  9D 9D 6D  STA $6D9D,X
  $FE1A  D9 DD BB  CMP $BBDD,Y
  $FE1D  B9 DD DD  LDA $DDDD,Y
  $FE20  5D DD DD  EOR $DDDD,X
  $FE23  DD 9D DD  CMP $DD9D,X
  $FE26  DD DD D5  CMP $D5DD,X
  $FE29  9D DD DD  STA $DDDD,X
  $FE2C  DD DD D6  CMP $D6DD,X
  $FE2F  7D DD 7D  ADC $7DDD,X
  $FE32  6D DD DD  ADC $DDDD
  $FE35  DD DD DD  CMP $DDDD,X
  $FE38  DD DD 20  CMP $20DD,X
  $FE3B  DD DD DD  CMP $DDDD,X
  $FE3E  DD 22 20  CMP $2022,X
  $FE41  D2        ??? 
  $FE42  DD 22 DD  CMP $DD22,X
  $FE45  DD 22 24  CMP $2422,X
  $FE48  4D DD 24  EOR $24DD
  $FE4B  2D DD 00  AND $00DD
  $FE4E  D4 2D     NOP $2D,X
  $FE50  D0 24     BNE $FE76
  $FE52  4D DD D2  EOR $D2DD
  $FE55  D4 02     NOP $02,X
  $FE57  D2        ??? 
  $FE58  44 4D     NOP $4D
  $FE5A  DD D2 0D  CMP $0DD2,X
  $FE5D  D4 24     NOP $24,X
  $FE5F  00        BRK 
  $FE60  4D DD D2  EOR $D2DD
  $FE63  DD 04 42  CMP $4204,X
  $FE66  D2        ??? 
  $FE67  4D DD D0  EOR $D0DD
  $FE6A  DD 24 42  CMP $4224,X
  $FE6D  D2        ??? 
  $FE6E  4D DD D0  EOR $D0DD
  $FE71  33 D4     RLA ($D4),Y
  $FE73  44 D2     NOP $D2
  $FE75  23 4D     RLA ($4D,X)
  $FE77  D0 DD     BNE $FE56
  $FE79  02        ??? 
  $FE7A  40        RTI 
  $FE7B  22        ??? 
  $FE7C  20 0D DD  JSR $DD0D
  $FE7F  2D 40 24  AND $2440
  $FE82  4D D0 DD  EOR $DDD0
  $FE85  DD 20 2D  CMP $2D20,X
  $FE88  DD 42 D2  CMP $D242,X
  $FE8B  DD DD 20  CMP $20DD,X
  $FE8E  DD DD D4  CMP $D4DD,X
  $FE91  4D DD DD  EOR $DDDD
  $FE94  DD DD DD  CMP $DDDD,X
  $FE97  DD DD DD  CMP $DDDD,X
  $FE9A  DD DD 4D  CMP $4DDD,X
  $FE9D  4D DD DD  EOR $DDDD
  $FEA0  DD BD DB  CMP $DBBD,X
  $FEA3  4B        ??? 
  $FEA4  4B        ??? 
  $FEA5  DD BD DD  CMP $DDBD,X
  $FEA8  4B        ??? 
  $FEA9  B4 44     LDY $44,X
  $FEAB  44 BB     NOP $BB
  $FEAD  4B        ??? 
  $FEAE  DD 44 44  CMP $4444,X
  $FEB1  94 94     STY $94,X
  $FEB3  44 4B     NOP $4B
  $FEB5  DD AA A4  CMP $A4AA,X
  $FEB8  44 44     NOP $44
  $FEBA  AA        TAX 
  $FEBB  AB        ??? 
  $FEBC  DD A4 44  CMP $44A4,X
  $FEBF  44 44     NOP $44
  $FEC1  44 AA     NOP $AA
  $FEC3  BD 44 4A  LDA $4A44,X
  $FEC6  44 4A     NOP $4A
  $FEC8  44 4B     NOP $4B
  $FECA  BD 44 AA  LDA $AA44,X
  $FECD  A4 AA     LDY $AA
  $FECF  A4 4A     LDY $4A
  $FED1  AD BA AB  LDA $ABBA
  $FED4  BB        ??? 
  $FED5  BB        ??? 
  $FED6  AA        TAX 
  $FED7  BA        TSX 
  $FED8  BD DB BD  LDA $BDDB,X
  $FEDB  DD DD BB  CMP $BBDD,X
  $FEDE  DB DD DD  DCP $DDDD,Y
  $FEE1  DD DD DD  CMP $DDDD,X
  $FEE4  DD DD DD  CMP $DDDD,X
  $FEE7  DD DD DD  CMP $DDDD,X
  $FEEA  DD DD DD  CMP $DDDD,X
  $FEED  DD DD DD  CMP $DDDD,X
  $FEF0  DD DD DD  CMP $DDDD,X
  $FEF3  DD DD 6D  CMP $6DDD,X
  $FEF6  DD DD 6D  CMP $6DDD,X
  $FEF9  DD DD 6D  CMP $6DDD,X
  $FEFC  DD DD DD  CMP $DDDD,X
  $FEFF  DD DD DD  CMP $DDDD,X
  $FF02  DD DD DD  CMP $DDDD,X
  $FF05  DD DD DD  CMP $DDDD,X
  $FF08  DD DD DD  CMP $DDDD,X
  $FF0B  DD DD DD  CMP $DDDD,X
  $FF0E  DD DD DD  CMP $DDDD,X
  $FF11  DD DD DD  CMP $DDDD,X
  $FF14  DD DD DD  CMP $DDDD,X
  $FF17  DD DD DD  CMP $DDDD,X
  $FF1A  DD DD DD  CMP $DDDD,X
  $FF1D  DD DD DD  CMP $DDDD,X
  $FF20  DD DD DD  CMP $DDDD,X
  $FF23  DD DD DD  CMP $DDDD,X
  $FF26  DD DD DD  CMP $DDDD,X
  $FF29  DD DD DD  CMP $DDDD,X
  $FF2C  DD BD DD  CMP $DDBD,X
  $FF2F  DD DD DD  CMP $DDDD,X
  $FF32  DD BD BB  CMP $BBBD,X
  $FF35  DD DD DD  CMP $DDDD,X
  $FF38  DD DB BD  CMP $BDDB,X
  $FF3B  9B        ??? 
  $FF3C  BD DD DD  LDA $DDDD,X
  $FF3F  DD BB 9D  CMP $9DBB,X
  $FF42  99 BB DD  STA $DDBB,Y
  $FF45  DD DB B9  CMP $B9DB,X
  $FF48  9D FF FF  STA $FFFF,X
  $FF4B  FF FF FF  ISC $FFFF,X
  $FF4E  FF FF FF  ISC $FFFF,X
  $FF51  FF FF FF  ISC $FFFF,X
  $FF54  FF FF FF  ISC $FFFF,X
  $FF57  FF FF FF  ISC $FFFF,X
  $FF5A  FF FF FF  ISC $FFFF,X
  $FF5D  FF FF FF  ISC $FFFF,X
  $FF60  FF FF FF  ISC $FFFF,X
  $FF63  FF FF FF  ISC $FFFF,X
  $FF66  FF FF FF  ISC $FFFF,X
  $FF69  FF FF FF  ISC $FFFF,X
  $FF6C  FF FF FF  ISC $FFFF,X
  $FF6F  FF FF FF  ISC $FFFF,X
  $FF72  FF FF FF  ISC $FFFF,X
  $FF75  FF FF FF  ISC $FFFF,X
  $FF78  FF FF FF  ISC $FFFF,X
  $FF7B  FF FF FF  ISC $FFFF,X
  $FF7E  FF FF FF  ISC $FFFF,X
  $FF81  FF FF FF  ISC $FFFF,X
  $FF84  FF FF FF  ISC $FFFF,X
  $FF87  FF FF FF  ISC $FFFF,X
  $FF8A  FF FF FF  ISC $FFFF,X
  $FF8D  FF FF FF  ISC $FFFF,X
  $FF90  FF FF FF  ISC $FFFF,X
  $FF93  FF FF FF  ISC $FFFF,X
  $FF96  FF FF FF  ISC $FFFF,X
  $FF99  FF FF FF  ISC $FFFF,X
  $FF9C  FF FF FF  ISC $FFFF,X
  $FF9F  FF FF FF  ISC $FFFF,X
  $FFA2  FF FF FF  ISC $FFFF,X
  $FFA5  FF FF FF  ISC $FFFF,X
  $FFA8  FF FF FF  ISC $FFFF,X
  $FFAB  FF FF FF  ISC $FFFF,X
  $FFAE  FF FF FF  ISC $FFFF,X
  $FFB1  FF FF FF  ISC $FFFF,X
  $FFB4  FF FF FF  ISC $FFFF,X
  $FFB7  FF FF FF  ISC $FFFF,X
  $FFBA  FF FF FF  ISC $FFFF,X
  $FFBD  FF FF FF  ISC $FFFF,X
  $FFC0  FF FF FF  ISC $FFFF,X
  $FFC3  FF FF FF  ISC $FFFF,X
  $FFC6  FF FF FF  ISC $FFFF,X
  $FFC9  FF FF FF  ISC $FFFF,X
  $FFCC  FF FF FF  ISC $FFFF,X
  $FFCF  FF FF FF  ISC $FFFF,X
  $FFD2  FF FF FF  ISC $FFFF,X
  $FFD5  FF FF FF  ISC $FFFF,X
  $FFD8  FF FF FF  ISC $FFFF,X
  $FFDB  FF FF FF  ISC $FFFF,X
  $FFDE  FF FF FF  ISC $FFFF,X
  $FFE1  FF FF FF  ISC $FFFF,X
  $FFE4  FF FF FF  ISC $FFFF,X
  $FFE7  FF FF FF  ISC $FFFF,X
  $FFEA  FF FF FF  ISC $FFFF,X
  $FFED  FF FF FF  ISC $FFFF,X
  $FFF0  FF FF FF  ISC $FFFF,X
  $FFF3  FF FF FF  ISC $FFFF,X
  $FFF6  FF FF FF  ISC $FFFF,X
  $FFF9  FF 00 D3  ISC NMI,X
; ---------------------------------------------------------------------------
; Range $FFFA–$10000 (ptr16) Vectors
; ---------------------------------------------------------------------------
  $FFFA  00 D3     .word $D300 -> NMI
  $FFFC  70 C0     .word $C070 -> Reset
  $FFFE  70 C0     .word $C070 -> Reset

; ---------------------------------------------------------------------------
; CHR-ROM (16384 bytes)
; ---------------------------------------------------------------------------

; CHR Bank 0 ($0000-$0FFF in PPU space if selected)
  0000  00 00 01 01 41 71 55 7C 00 00 01 01 71 11 77 1F
  0010  5B 7A 5A 7D 5E 77 40 00 7F 1F 7F 1E 77 10 70 00
  0020  00 00 00 00 10 1C D0 3C 00 00 00 00 1C 00 0C C0
  0030  10 9C 90 9C 30 DC 10 00 EC 60 6C 60 CC 00 0C 00
  0040  00 00 01 01 71 51 75 5C 00 00 01 01 41 71 17 7F
  0050  7B 5A 7A 5D 7E 57 30 00 1F 7F 1F 7E 17 70 40 00
  0060  00 00 00 00 1C 10 DC 30 00 00 00 00 10 0C 00 CC
  0070  1C 90 9C 90 3C D0 1C 00 E0 6C 60 6C C0 0C 00 00
  0080  00 0F 05 07 01 03 00 3E 00 0A 0A 0F 01 03 03 3F
  0090  02 02 01 0F 05 05 00 00 01 01 00 08 0A 0A 00 00
  00A0  00 FE 54 FE F8 1C EC 94 00 AA AA FC F0 F8 F8 E8
  00B0  74 0C F8 FE 54 54 00 00 88 F0 00 00 AA AA 00 00
  00C0  00 0F 0A 0F 01 03 00 3E 00 0D 05 07 01 03 03 3F
  00D0  02 02 01 0F 0A 0A 00 00 01 01 00 08 05 05 00 00
  00E0  00 FC AA FE F8 1C EC 94 00 56 54 FC F0 F8 F8 E8
  00F0  74 0C F8 FE AA AA 00 00 88 F0 00 00 54 54 00 00
  0100  00 40 77 54 7B 5A 7A 59 00 70 17 7F 1F 7F 1F 7E
  0110  7C 57 71 41 01 01 00 00 1F 71 11 71 01 01 00 00
  0120  00 10 DC 30 1C 90 9C 90 00 1C C0 CC E0 6C 60 6C
  0130  3C D0 1C 10 00 00 00 00 C0 0C 00 0C 00 00 00 00
  0140  00 70 57 74 5B 7A 5A 79 00 40 77 1F 7F 1F 7F 1E
  0150  5C 77 51 31 01 01 00 00 7F 11 71 41 01 01 00 00
  0160  00 1C D0 3C 10 9C 90 9C 00 10 CC C0 EC 60 6C 60
  0170  30 DC 10 1C 00 00 00 00 CC 00 0C 00 00 00 00 00
  0180  00 7F 2A 3F 0F 30 2E 09 00 55 55 7F 1F 3F 3F 3E
  0190  07 10 1F 7F 2A 2A 00 00 38 2F 00 40 55 55 00 00
  01A0  00 F0 A0 E0 80 C0 40 7C 00 50 50 F0 80 80 80 FC
  01B0  40 40 80 F0 A0 A0 00 00 80 80 00 00 50 50 00 00
  01C0  00 7F 55 7F 0F 30 2E 09 00 6A 2A 3F 1F 3F 3F 3E
  01D0  07 10 1F 7F 55 55 00 00 38 2F 00 40 2A 2A 00 00
  01E0  00 E0 50 F0 80 C0 40 7C 00 B0 A0 E0 80 80 80 FC
  01F0  40 40 80 F0 50 50 00 00 80 80 00 00 A0 A0 00 00
  0200  01 01 01 01 43 7F 4D 6C 01 01 01 01 71 1D 7F 1F
  0210  4B 6A 4A 6A 49 6C 5F 70 7F 1F 7F 1F 7E 1F 70 00
  0220  00 00 00 00 90 FC 70 7C 00 00 00 00 1C 00 8C 80
  0230  30 BC B0 BC B0 7C F0 1C CC 40 4C 40 4C 80 0C 00
  0240  01 01 01 01 33 5F 6D 4C 01 01 01 01 41 7D 1F 7F
  0250  6B 4A 6A 4A 69 4C 7F 40 1F 7F 1F 7F 1E 7F 10 70
  0260  00 00 00 00 9C F0 7C 70 00 00 00 00 10 0C 80 8C
  0270  3C B0 BC B0 BC 70 FC 00 C0 4C 40 4C 40 8C 00 1C
  0280  00 0F 05 04 07 06 00 FE 00 0A 0A 0F 07 07 0F FF
  0290  0C 06 07 0F 05 05 00 00 03 01 00 08 0A 0A 00 00
  02A0  00 FF 55 07 FA 06 F2 8A 00 AA AA FE FC F8 FC F4
  02B0  7A 06 FE FF 55 55 00 00 84 F8 00 00 AA AA 00 00
  02C0  00 0F 0A 0C 07 06 00 FE 00 0D 05 07 07 07 0F FF
  02D0  0C 06 07 0F 0A 0A 00 00 03 01 00 08 05 05 00 00
  02E0  00 FF AA 04 FA 06 F2 8A 00 55 55 FF FC F8 FC F4
  02F0  7A 06 FE FF AA AA 00 00 84 F8 00 00 55 55 00 00
  0300  70 5F 6C 4B 6A 4A 6A 49 00 7F 1F 7F 1F 7F 1F 7E
  0310  6C 4D 7F 43 01 01 01 01 1F 7F 19 71 01 01 01 01
  0320  1C F0 3C 30 BC B0 BC B0 10 EC C0 CC 40 4C 40 4C
  0330  3C 70 FC 80 00 00 00 00 C0 8C 00 1C 00 00 00 00
  0340  40 7F 4C 6B 4A 6A 4A 69 70 1F 7F 1F 7F 1F 7F 1E
  0350  4C 6D 5F 33 01 01 01 01 7F 1F 79 41 01 01 01 01
  0360  10 FC 30 3C B0 BC B0 BC 1C E0 CC C0 4C 40 4C 40
  0370  30 7C F0 8C 00 00 00 00 CC 80 0C 10 00 00 00 00
  0380  00 7F AA C0 7F 40 1E 11 00 D5 55 7F 7F 7F 7F 7E
  0390  0F 40 7F 7F AA AA 00 00 70 3F 00 80 55 55 00 00
  03A0  00 F0 A0 20 E0 C0 10 7F 00 50 50 F0 E0 E0 E0 FF
  03B0  30 E0 E0 F0 A0 A0 00 00 C0 00 00 00 50 50 00 00
  03C0  00 FF 55 40 7F 40 1E 11 00 AA AA FF 7F 7F 7F 7E
  03D0  0F 40 7F FF 55 55 00 00 70 3F 00 80 AA AA 00 00
  03E0  00 E0 50 30 E0 C0 10 7F 00 B0 A0 E0 E0 E0 E0 FF
  03F0  30 E0 E0 E0 50 50 00 00 C0 00 00 10 A0 A0 00 00
  0400  03 02 01 37 4F 58 53 52 03 03 01 45 75 3F 7F 3F
  0410  52 52 52 59 4C 4F 40 00 7F 3F 7F 3E 7F 30 70 00
  0420  00 00 00 DC F8 3C 18 9C 80 80 00 10 04 C0 E4 60
  0430  98 9C 98 BC 78 FC 18 00 64 60 64 40 84 00 04 00
  0440  03 02 01 77 4F 58 53 52 03 03 01 75 35 7F 3F 7F
  0450  52 52 52 59 4C 4F 40 00 3F 7F 3F 7E 3F 70 30 00
  0460  00 00 00 D0 FC 38 1C 98 80 80 00 1C 00 C4 E0 64
  0470  9C 98 9C B8 7C F8 1C 00 60 64 60 44 80 04 00 00
  0480  00 0F 10 17 0C 18 C3 BA 00 1A 0F 0F 07 1F DF FF
  0490  19 18 0C 1F 1F 15 00 00 C6 07 03 10 00 0A 00 00
  04A0  00 FE 00 F0 1C 0C E4 14 00 AA FE FE F8 F8 F8 E8
  04B0  F4 0C 1C FE FE 54 00 00 08 F0 E0 00 00 AA 00 00
  04C0  00 1F 10 17 0C 18 C3 BA 00 15 1F 1F 07 1F DF FF
  04D0  19 18 0C 1F 0F 0A 00 00 C6 07 03 10 10 15 00 00
  04E0  00 FE 00 F0 1C 0C E4 14 00 54 FE FE F8 F8 F8 E8
  04F0  F4 0C 1C FE FE AA 00 00 08 F0 E0 00 00 54 00 00
  0500  00 40 4F 4C 5B 52 52 52 00 70 3F 7F 3F 7F 3F 7F
  0510  52 51 58 4F 37 01 03 00 3F 7E 3F 71 41 01 03 03
  0520  00 08 DC 38 1C 98 9C 98 00 14 E0 C4 E0 64 60 64
  0530  9C 98 3C F8 DC 00 00 00 60 64 C0 04 00 00 80 80
  0540  00 40 4F 4C 5B 52 52 52 00 30 7F 3F 7F 3F 7F 3F
  0550  52 51 58 47 07 01 03 00 7F 3E 7F 39 71 01 03 03
  0560  00 0C D8 3C 18 9C 98 9C 00 10 E4 C0 E4 60 64 60
  0570  98 9C 38 FC DC 00 00 00 64 60 C4 00 00 00 80 80
  0580  00 7F 00 0F 38 20 0F 08 00 55 7F 7F 3F 3F 3F 3F
  0590  07 20 30 3F 7F 2A 00 00 38 1F 0F 40 00 55 00 00
  05A0  00 F0 08 E8 30 00 83 5E 00 58 F0 F0 E0 F8 FB BF
  05B0  D8 18 30 F8 F8 A8 00 00 23 E0 C0 00 00 50 00 00
  05C0  00 7F 00 0F 38 20 0F 08 00 2A 7F 7F 3F 3F 3F 3F
  05D0  07 20 30 3F 7F 55 00 00 38 1F 0F 40 00 2A 00 00
  05E0  00 F8 08 E8 30 00 83 5E 00 A8 F8 F8 E0 F8 FB BF
  05F0  D8 18 30 F0 F0 40 00 00 23 E0 C0 08 08 B8 00 00
  0600  01 41 5D 4D 4D 4F 48 4B 01 71 3F 7F 3F 7F 3F 7F
  0610  4A 4A 49 48 4F 5F 70 00 3F 7F 3E 7F 30 60 00 00
  0620  00 08 46 48 4A 18 1A 98 80 8E B8 B6 B4 E6 E4 E6
  0630  5A 58 DA 18 EA F4 0E 00 A4 A6 24 E6 14 0A 00 00
  0640  01 31 5D 4D 4D 4F 48 4B 01 41 7F 3F 7F 3F 7F 3F
  0650  4A 4A 49 48 4F 5F 40 00 7F 3F 7E 3F 70 20 70 00
  0660  00 0E 44 4A 48 1A 18 9A 80 88 BA B4 B6 E4 E6 E4
  0670  58 5A D8 1A E8 F6 08 00 A6 A4 26 E4 16 08 06 00
  0680  00 7F 00 20 3F 3C 05 FD 00 55 7F 7F 3F 3F 3F FF
  0690  01 38 00 07 5F 20 2A 00 FF 07 3F 38 60 5F 55 00
  06A0  00 FE 02 06 FC 0C CC 2C 00 54 FC F8 F0 F0 F0 D0
  06B0  2C EC 0C F4 FA 06 AA 00 D0 10 F0 08 04 F8 54 00
  06C0  00 3F 40 60 3F 3C 05 FD 00 6A 3F 3F 3F 3F 3F FF
  06D0  01 38 00 07 5F 60 55 00 FF 07 3F 38 60 1F 2A 00
  06E0  00 FE 00 04 FC 0C CC 2C 00 AA FE FA F0 F0 F0 D0
  06F0  2C EC 0C F4 FA 04 54 00 D0 10 F0 08 04 FA AA 00
  0700  70 4F 47 48 4B 4A 4A 49 00 7F 3F 7F 3F 7F 3F 7E
  0710  48 4F 4F 4F 4F 41 01 00 3F 7F 3D 79 31 71 01 00
  0720  0E F0 EA 18 9A 58 5A D8 00 FE F4 E6 E4 A6 A4 26
  0730  1A 18 5A 68 72 00 00 00 E4 E6 A4 96 8C 8E 80 00
  0740  40 4F 47 48 4B 4A 4A 49 70 3F 7F 3F 7F 3F 7F 3E
  0750  48 4F 4F 4F 4F 71 01 00 7F 3F 7D 39 71 01 01 00
  0760  00 F2 E8 1A 98 5A 58 DA 0E FC F6 E4 E6 A4 A6 24
  0770  18 1A 58 6A 70 0E 00 00 E6 E4 A6 94 8E 80 80 00
  0780  00 3F 40 40 2F 30 37 34 00 6A 3F 3F 3F 3F 3F 3F
  0790  34 33 30 2F 1F 40 55 00 3F 3C 3F 30 60 3F 2A 00
  07A0  00 FE 00 00 F8 30 20 BF 00 AA FE FE FC FC FC 7F
  07B0  80 9C 0C F4 F8 04 54 00 7F 60 F0 08 06 FA AA 00
  07C0  00 7F 00 20 3F 30 37 34 00 55 7F 7F 3F 3F 3F 3F
  07D0  34 33 30 2F 1F 20 2A 00 3F 3C 3F 30 60 5F 55 00
  07E0  00 FC 02 06 F8 30 20 BF 00 56 FC FC FC FC FC 7F
  07F0  80 9C 0C F4 F8 02 AA 00 7F 60 F0 08 06 FC 54 00
  0800  01 01 01 41 65 4D 6C 49 01 01 01 73 17 7F 1F 7E
  0810  6B 4B 68 4C 64 43 00 00 1C 7D 1F 7F 17 70 01 00
  0820  00 00 00 90 CC E0 6C 20 00 00 00 1C 10 1C 90 DC
  0830  AC A0 2C 60 CC 80 00 00 D0 DC D0 9C 10 1C 00 00
  0840  01 01 01 31 45 6D 4C 69 01 01 01 43 77 1F 7F 1E
  0850  4B 6B 48 6C 44 63 01 00 7C 1D 7F 1F 77 10 01 00
  0860  00 00 00 9C C0 EC 60 2C 00 00 00 10 1C 10 9C D0
  0870  A0 AC 20 6C C0 8C 00 00 DC D0 DC 90 1C 10 00 00
  0880  00 00 1F 0A 00 07 0E 00 00 00 15 15 1F 07 0F 1F
  0890  FD 1C 0E 07 10 0A 0A 00 FE 03 01 00 1F 15 15 00
  08A0  00 00 FC A8 00 F0 18 C4 00 00 54 54 FC F0 F8 38
  08B0  C4 CC 18 F0 00 A8 A8 00 7A F0 E0 00 FC 54 54 00
  08C0  00 00 0F 15 10 07 0E 00 00 00 1A 0A 0F 07 0F 1F
  08D0  FD 1C 0E 07 10 15 15 00 FE 03 01 00 1F 0A 0A 00
  08E0  00 00 FC 54 00 F0 18 C4 00 00 A8 A8 FC F0 F8 38
  08F0  C6 CC 18 F0 00 54 54 00 7A F0 E0 00 FC A8 A8 00
  0900  00 43 67 4C 68 4B 6B 49 01 73 17 7F 1F 7C 1D 7F
  0910  6C 49 63 43 01 01 01 00 1F 7F 15 71 01 01 01 00
  0920  00 90 0C 20 2C A0 AC 20 00 9C D0 DC D0 DC D0 DC
  0930  6C E0 CC 80 00 00 00 00 90 1C 10 1C 00 00 00 00
  0940  01 63 47 6C 48 6B 4B 69 01 13 77 1F 7F 1C 7D 1F
  0950  4C 69 43 33 01 01 01 00 7F 1F 75 41 01 01 01 00
  0960  00 8C 00 2C 20 AC A0 2C 00 90 DC D0 DC D0 DC D0
  0970  60 EC C0 8C 00 00 00 00 9C 10 1C 10 00 00 00 00
  0980  00 3F 15 00 0F 18 33 33 00 2A 2A 3F 0F 1F 3C 7D
  0990  33 08 07 20 15 15 00 00 3F 1F 08 3F 2A 2A 00 00
  09A0  00 F8 50 00 C0 40 00 BF 00 A8 A8 F8 E0 F0 F8 FF
  09B0  38 70 E0 00 50 50 00 00 C0 80 00 F8 A8 A8 00 00
  09C0  00 3F 2A 00 0F 18 33 73 00 15 15 3F 0F 1F 3C 7D
  09D0  33 08 07 20 2A 2A 00 00 3F 1F 08 3F 15 15 00 00
  09E0  00 F0 A8 08 C0 40 00 BF 00 58 50 F0 E0 F0 F8 FF
  09F0  38 70 E0 00 A8 A8 00 00 C0 80 00 F8 50 50 00 00
  0A00  01 01 2F 7F 6F 05 08 29 01 01 4D 1D 1D 1F 1F 5E
  0A10  6B 6B 08 0C 23 6F 6F 00 1C 1D 1F 1F 5F 10 01 00
  0A20  00 00 84 8C EC 60 20 24 00 00 68 70 10 90 D0 D8
  0A30  AC AC 20 60 E4 EC EC 00 D0 D0 D0 D0 98 10 00 00
  0A40  01 01 6F 3F 6F 05 08 69 01 01 0D 5D 1D 1F 1F 1E
  0A50  2B 6B 08 0C 63 2F 6E 00 5C 1D 1F 1F 1F 50 01 00
  0A60  00 00 8C 84 EC 60 20 2C 00 00 60 78 10 90 D0 D0
  0A70  A4 AC 20 60 EC E4 EC 00 D8 D0 D0 D0 90 18 00 00
  0A80  00 00 18 39 10 3B 3C 00 00 00 21 00 1F 3F 3F 3F
  0A90  FD 38 1C 0F 00 18 39 00 FE 07 23 30 1F 21 00 00
  0AA0  00 00 C6 CE 00 F6 16 CE 00 00 08 00 FC F8 F8 38
  0AB0  CE CE 1E FE 00 C6 CE 00 7A F8 F0 00 FC 08 00 00
  0AC0  00 00 29 39 10 3B 3C 00 00 00 10 00 1F 3F 3F 3F
  0AD0  FD 38 1C 0F 00 29 39 00 FE 07 23 30 1F 10 00 00
  0AE0  00 00 4A CE 00 F6 16 CE 00 00 84 00 FC F8 F8 38
  0AF0  CC CE 1E FE 00 4A CE 00 7A F8 F0 00 FC 84 00 00
  0B00  00 2F 78 73 0C 08 2B 6B 00 4E 1F 1F 1F 1F 5C 1D
  0B10  69 08 05 27 67 63 01 01 1F 1F 1F 59 19 0D 01 01
  0B20  00 E4 0C CC 60 20 A4 AC 00 E8 F0 B0 D0 D0 D8 D0
  0B30  2C 20 60 E4 CC 8C 00 00 D0 D0 90 18 30 60 00 00
  0B40  00 6E 38 73 0C 08 6B 2B 00 0F 5F 1F 1F 1F 1C 5D
  0B50  69 08 05 67 27 63 01 01 1F 1F 1F 19 59 0D 01 01
  0B60  00 EC 04 CC 60 20 AC A4 00 E0 F8 B0 D0 D0 D0 D8
  0B70  2C 20 60 EC C4 8C 00 00 D0 D0 90 10 38 60 00 00
  0B80  00 31 73 00 4F 68 73 73 00 42 00 3F 7F 7F 7C 3D
  0B90  63 58 0F 00 31 73 00 00 7F 6F 70 3F 42 00 00 00
  0BA0  00 8C 9C 00 C0 24 14 BF 00 10 00 F8 FC F8 E8 FF
  0BB0  1C 3C F4 00 8C 9C 00 00 E0 C0 08 F8 10 00 00 00
  0BC0  00 52 73 00 4F 68 73 33 00 21 00 3F 7F 7F 7C 7D
  0BD0  63 58 0F 00 52 73 00 00 7F 6F 70 3F 21 00 00 00
  0BE0  00 94 9C 00 C0 24 14 BF 00 08 00 F8 FC F8 E8 FF
  0BF0  1C 3C F4 00 94 9C 00 00 E0 C0 08 F8 08 00 00 00
  0C00  03 01 01 41 65 4D 6C 49 03 01 01 73 17 7F 1F 7E
  0C10  6B 4B 68 4C 66 47 61 00 1C 7D 1F 7F 17 76 13 00
  0C20  00 00 00 90 CC E0 6C 20 80 00 00 1C 10 1C 90 DC
  0C30  AC A0 2C 60 CC C0 8C 00 D0 DC D0 9C 10 1C 10 00
  0C40  03 01 01 31 45 6D 4C 69 03 01 01 43 77 1F 7F 1E
  0C50  4B 6B 48 6C 46 67 40 00 7C 1D 7F 1F 77 16 73 00
  0C60  00 00 00 9C C0 EC 60 2C 80 00 00 10 1C 10 9C D0
  0C70  A0 AC 20 6C C0 CC 80 00 DC D0 DC 90 1C 10 1C 00
  0C80  00 00 1F 0A 00 07 0E 80 00 00 15 15 1F 07 0F 9F
  0C90  FD 1C 0E 07 10 0A 0A 00 FE 83 01 00 1F 15 15 00
  0CA0  00 00 FE AA 00 F0 1C CC 00 00 54 54 FE F0 FC 3E
  0CB0  C6 CE 1C F0 00 AA AA 00 7A F0 E0 00 FE 54 54 00
  0CC0  00 00 0F 15 10 07 0E 80 00 00 1A 0A 0F 07 0F 9F
  0CD0  FD 1C 0E 07 10 15 15 00 FE 83 01 00 1F 0A 0A 00
  0CE0  00 00 FE 54 00 F0 1C CC 00 00 AA AA FE F0 FC 3E
  0CF0  C4 CE 1C F0 00 54 54 00 7A F0 E0 00 FE AA AA 00
  0D00  C2 8C CC 98 D0 97 D7 92 27 EF 2F FF 3F F9 3B FF
  0D10  D8 9B C7 87 02 02 06 00 3F FE 2A E2 02 02 07 00
  0D20  18 00 98 C0 58 40 58 40 20 B8 20 38 A0 B8 A0 B8
  0D30  D8 C0 98 00 00 00 00 00 20 38 20 38 00 00 00 00
  0D40  80 CC 8C D8 90 D7 97 D2 E7 2F EF 3F FF 39 FB 3F
  0D50  98 DB 87 67 02 02 06 00 FF 3E EA 82 02 02 07 00
  0D60  20 18 80 D8 40 58 40 58 38 A0 38 20 B8 A0 B8 A0
  0D70  C0 D8 80 18 00 00 00 00 38 20 38 20 00 00 00 00
  0D80  00 7F 55 00 0F 38 33 63 00 2A 2A 7F 0F 3F 7C 7D
  0D90  63 30 0F 00 55 55 00 00 3F 0F 00 7F 2A 2A 00 00
  0DA0  00 F8 50 00 E0 70 01 BF 00 A8 A8 F8 E0 F0 F9 FF
  0DB0  38 70 E0 00 50 50 00 00 C1 80 00 F8 A8 A8 00 00
  0DC0  00 7F 2A 00 0F 38 33 23 00 55 55 7F 0F 3F 7C 7D
  0DD0  63 30 0F 00 2A 2A 00 00 3F 0F 00 7F 55 55 00 00
  0DE0  00 F0 A8 08 E0 70 01 BF 00 58 50 F0 E0 F0 F9 FF
  0DF0  38 70 E0 00 A8 A8 00 00 C1 80 00 F8 50 50 00 00
  0E00  43 67 41 69 49 6D 4F 69 73 1B 7F 1F 7F 1F 7F 1E
  0E10  4B 6B 48 68 47 6F 40 00 7C 1D 7F 1F 78 10 71 00
  0E20  10 4C 80 9C D0 FC F0 3C 9C B0 7C 60 6C 40 CC C0
  0E30  B0 BC 30 3C D0 EC 10 00 CC C0 CC C0 2C 10 0C 00
  0E40  23 47 61 49 69 4D 6F 49 53 7B 1F 7F 1F 7F 1F 7E
  0E50  6B 4B 68 48 67 4F 61 00 1C 7D 1F 7F 18 70 11 00
  0E60  1C 40 8C 90 DC F0 FC 30 90 BC 70 6C 60 4C C0 CC
  0E70  BC B0 3C 30 DC E0 1C 00 C0 CC C0 CC 20 1C 00 00
  0E80  00 FF 55 00 1F 46 C2 FF 00 AA AA FF 7F 3F FF FE
  0E90  3E 46 07 9F 55 55 00 00 C3 3F 78 E0 AA AA 00 00
  0EA0  00 FE 54 00 F4 0C CC CC 00 AA AA FE F8 F0 30 72
  0EB0  CC 0C F4 FA 54 54 00 00 F0 F0 08 04 AA AA 00 00
  0EC0  00 7F AA 00 1F 46 C2 FF 00 D5 55 FF 7F 3F FF FE
  0ED0  3E 46 07 9F AA AA 00 00 C3 3F 78 E0 55 55 00 00
  0EE0  00 FE AA 00 F4 0C CC CE 00 54 54 FE F8 F0 30 72
  0EF0  CC 0C F4 FA AA AA 00 00 F0 F0 08 04 54 54 00 00
  0F00  40 6F 47 68 48 6B 4B 69 71 1F 7F 1F 7F 1C 7D 1E
  0F10  4F 6F 4F 6F 4F 6F 42 00 7F 1D 79 19 71 13 73 00
  0F20  10 EC D0 3C 30 BC B0 3C 1C F0 EC C0 CC C0 CC C0
  0F30  F0 FC D0 DC E0 EC 00 00 CC 40 2C 20 1C 90 9C 00
  0F40  61 4F 67 48 68 4B 6B 49 11 7F 1F 7F 1F 7C 1D 7E
  0F50  6F 4F 6F 4F 6F 4F 62 00 1F 7D 19 79 11 73 13 00
  0F60  1C E0 DC 30 3C B0 BC 30 00 FC E0 CC C0 CC C0 CC
  0F70  FC F0 DC D0 EC E0 1C 00 C0 4C 20 2C 10 9C 80 00
  0F80  00 FF 55 00 5F 60 66 67 00 AA AA FF 7F 7F 79 FB
  0F90  66 60 5F 3F 55 55 00 00 7F 7F 60 C0 AA AA 00 00
  0FA0  00 FE 54 04 F0 C0 FE 7C 00 AA AA FA FC FC 86 FE
  0FB0  F8 7C CC F4 54 54 00 00 86 C0 30 0A AA AA 00 00
  0FC0  00 FF AA 80 5F 60 66 E7 00 55 55 7F 7F 7F 79 FB
  0FD0  66 60 5F BF AA AA 00 00 7F 7F 60 40 55 55 00 00
  0FE0  00 FE AA 06 F0 C0 FE 7C 00 54 54 F8 FC FC 86 FE
  0FF0  F8 7C CC F6 AA AA 00 00 86 C0 30 08 54 54 00 00

; CHR Bank 1 ($0000-$0FFF in PPU space if selected)
  1000  00 00 00 00 00 00 00 00 00 00 00 00 00 00 00 00
  1010  00 F0 F0 F0 00 00 00 00 F0 00 00 F0 00 00 00 00
  1020  08 0B 0B 0F 00 00 00 00 0F 0C 0C 0F 00 00 00 00
  1030  08 FB FB FF 00 00 00 00 FF 0C 0C FF 00 00 00 00
  1040  00 00 00 00 80 B0 B0 F0 00 00 00 00 F0 C0 C0 F0
  1050  00 F0 F0 F0 80 B0 B0 F0 F0 00 00 F0 F0 C0 C0 F0
  1060  08 0B 0B 0F 80 B0 B0 F0 0F 0C 0C 0F F0 C0 C0 F0
  1070  08 FB FB FF 80 B0 B0 F0 FF 0C 0C FF F0 C0 C0 F0
  1080  00 00 00 00 00 0F 0F 0F 00 00 00 00 0F 00 00 0F
  1090  00 F0 F0 F0 00 0F 0F 0F F0 00 00 F0 0F 00 00 0F
  10A0  08 0B 0B 0F 00 0F 0F 0F 0F 0C 0C 0F 0F 00 00 0F
  10B0  08 FB FB FF 00 0F 0F 0F FF 0C 0C FF 0F 00 00 0F
  10C0  00 00 00 00 80 BF BF FF 00 00 00 00 FF C0 C0 FF
  10D0  00 F0 F0 F0 80 BF BF FF F0 00 00 F0 FF C0 C0 FF
  10E0  08 0B 0B 0F 80 BF BF FF 0F 0C 0C 0F FF C0 C0 FF
  10F0  08 FB FB FF 80 BF BF FF FF 0C 0C FF FF C0 C0 FF
  1100  00 01 3F 3F 3F 3F 3F 7F FF FE FC FC FC FC C0 80
  1110  FF FF FF FF FF FF FF FF FF FF FF FF FF FF FF FF
  1120  FE BF DF ED FE EF D7 7F FB FF 7F B7 EB FF BF DD
  1130  81 9C 9C 9C 81 9F 9F FF 81 9C 9C 9C 81 9F 9F FF
  1140  FF FF FF FF FF FF FF FF E3 B6 A2 88 9C 88 A2 B6
  1150  1C 1C 1C 1C 08 00 1C 1C 1C 1C 1C 1C 08 00 1C 1C
  1160  00 00 00 00 00 00 00 00 7E 63 63 63 7E 60 60 00
  1170  00 00 00 00 00 00 00 00 00 00 00 00 00 00 00 00
  1180  00 00 00 00 00 00 00 00 1C 36 63 63 7F 63 63 00
  1190  00 00 00 00 00 00 00 00 00 00 00 00 00 00 00 00
  11A0  00 00 00 00 00 00 00 00 63 63 63 63 63 63 3E 00
  11B0  00 00 00 00 00 00 00 00 00 00 00 00 00 00 00 00
  11C0  00 00 00 00 00 00 00 00 3C 66 60 3E 03 63 3E 00
  11D0  00 00 00 00 00 00 00 00 00 00 00 00 00 00 00 00
  11E0  00 00 00 00 00 00 00 00 3F 30 30 3E 30 30 3F 00
  11F0  00 00 00 00 00 00 00 00 00 00 00 00 00 00 00 00
  1200  00 00 00 00 00 00 00 00 00 00 00 00 00 00 00 00
  1210  99 03 06 8C 99 33 66 CC 77 FE FD FB 77 EE DD BB
  1220  76 DF FF 7B EE BF FB 6E 7C EA F8 E6 D1 E0 04 10
  1230  C3 99 9F C1 FC 9C C1 FF C3 99 9F C1 FC 9C C1 FF
  1240  C0 F3 F3 F3 F3 F3 F3 FF C0 F3 F3 F3 F3 F3 F3 FF
  1250  E3 C9 9C 9C 80 9C 9C FF E3 C9 9C 9C 80 9C 9C FF
  1260  E0 CF 9F 98 9C CC E0 FF E0 CF 9F 98 9C CC E0 FF
  1270  C0 CF CF C1 CF CF C0 FF C0 CF CF C1 CF CF C0 FF
  1280  03 04 08 08 30 40 80 80 03 04 08 08 30 40 80 80
  1290  80 80 40 30 08 08 04 03 80 80 40 30 08 08 04 03
  12A0  C0 20 10 10 0C 02 01 01 C0 20 10 10 0C 02 01 01
  12B0  01 01 02 0C 10 10 20 C0 01 01 02 0C 10 10 20 C0
  12C0  30 48 86 81 40 20 20 10 30 48 86 81 40 20 20 10
  12D0  10 20 20 40 81 86 48 30 10 20 20 40 81 86 48 30
  12E0  0C 12 61 81 02 04 04 08 0C 12 61 81 02 04 04 08
  12F0  08 04 04 02 81 61 12 0C 08 04 04 02 81 61 12 0C
  1300  1C 26 63 63 63 32 1C 00 1C 26 63 63 63 32 1C 00
  1310  0C 1C 0C 0C 0C 0C 3F 00 0C 1C 0C 0C 0C 0C 3F 00
  1320  3E 63 07 1E 3C 70 7F 00 3E 63 07 1E 3C 70 7F 00
  1330  3F 06 0C 1E 03 63 3E 00 3F 06 0C 1E 03 63 3E 00
  1340  0E 1E 36 66 7F 06 06 00 0E 1E 36 66 7F 06 06 00
  1350  7E 60 7E 03 03 63 3E 00 7E 60 7E 03 03 63 3E 00
  1360  1C 30 60 7E 63 63 3E 00 1C 30 60 7E 63 63 3E 00
  1370  7F 63 06 0C 18 18 18 00 7F 63 06 0C 18 18 18 00
  1380  3C 62 72 3C 4F 43 3E 00 3C 62 72 3C 4F 43 3E 00
  1390  3E 63 63 3F 03 06 3C 00 3E 63 63 3F 03 06 3C 00
  13A0  00 00 00 00 79 42 72 0A 00 00 00 00 79 42 72 0A
  13B0  0A 4A 31 00 00 00 00 00 0A 4A 31 00 00 00 00 00
  13C0  00 00 00 00 8C 52 52 52 00 00 00 00 8C 52 52 52
  13D0  52 52 8C 00 00 00 00 00 52 52 8C 00 00 00 00 00
  13E0  CC CC CC E1 F3 F3 F3 FF CC CC CC E1 F3 F3 F3 FF
  13F0  C1 9C 9C 9C 9C 9C C1 FF C1 9C 9C 9C 9C 9C C1 FF
  1400  3C 42 9D A1 A1 9D 42 3C 3C 42 9D A1 A1 9D 42 3C
  1410  1C 36 63 63 7F 63 63 00 1C 36 63 63 7F 63 63 00
  1420  7E 63 63 7E 63 63 7E 00 7E 63 63 7E 63 63 7E 00
  1430  1E 33 60 60 60 33 1E 00 1E 33 60 60 60 33 1E 00
  1440  7C 66 63 63 63 66 7C 00 7C 66 63 63 63 66 7C 00
  1450  3F 30 30 3E 30 30 3F 00 3F 30 30 3E 30 30 3F 00
  1460  7F 60 60 7E 60 60 60 00 7F 60 60 7E 60 60 60 00
  1470  1F 30 60 67 63 33 1F 00 1F 30 60 67 63 33 1F 00
  1480  63 63 63 7F 63 63 63 00 63 63 63 7F 63 63 63 00
  1490  3F 0C 0C 0C 0C 0C 3F 00 3F 0C 0C 0C 0C 0C 3F 00
  14A0  81 9C 9C 98 83 91 98 FF 81 9C 9C 98 83 91 98 FF
  14B0  63 66 6C 78 7C 6E 67 00 63 66 6C 78 7C 6E 67 00
  14C0  30 30 30 30 30 30 3F 00 30 30 30 30 30 30 3F 00
  14D0  63 77 7F 7F 6B 63 63 00 63 77 7F 7F 6B 63 63 00
  14E0  63 73 7B 7F 6F 67 63 00 63 73 7B 7F 6F 67 63 00
  14F0  3E 63 63 63 63 63 3E 00 3E 63 63 63 63 63 3E 00
  1500  7E 63 63 63 7E 60 60 00 7E 63 63 63 7E 60 60 00
  1510  9C 9C 9C 9C 9C 9C C1 FF 9C 9C 9C 9C 9C 9C C1 FF
  1520  7E 63 63 67 7C 6E 67 00 7E 63 63 67 7C 6E 67 00
  1530  3C 66 60 3E 03 63 3E 00 3C 66 60 3E 03 63 3E 00
  1540  3F 0C 0C 0C 0C 0C 0C 00 3F 0C 0C 0C 0C 0C 0C 00
  1550  63 63 63 63 63 63 3E 00 63 63 63 63 63 63 3E 00
  1560  63 63 63 77 3E 1C 08 00 63 63 63 77 3E 1C 08 00
  1570  63 63 6B 7F 7F 77 63 00 63 63 6B 7F 7F 77 63 00
  1580  C3 E7 E7 E7 E7 E7 C3 FF C3 E7 E7 E7 E7 E7 C3 FF
  1590  33 33 33 1E 0C 0C 0C 00 33 33 33 1E 0C 0C 0C 00
  15A0  C1 EB EB EB EB EB C1 FF C1 EB EB EB EB EB C1 FF
  15B0  08 18 3F 7F 3F 18 08 00 08 18 3F 7F 3F 18 08 00
  15C0  00 00 00 00 00 FF FF 00 00 00 00 00 00 FF FF 00
  15D0  08 0C 7E 7F 7E 0C 08 00 08 0C 7E 7F 7E 0C 08 00
  15E0  3C 18 18 18 18 18 3C 00 3C 18 18 18 18 18 3C 00
  15F0  3E 14 14 14 14 14 3E 00 3E 14 14 14 14 14 3E 00
  1600  FF FF E1 E1 E1 E1 E1 E1 00 00 00 00 00 00 00 00
  1610  87 C7 C0 C7 CF CE CF C7 00 00 00 00 00 00 00 00
  1620  F8 FC 1C FC FC 1C FC FC 00 00 00 00 00 00 00 00
  1630  FF FF E7 E7 E7 E7 E7 E7 00 00 00 00 00 00 00 00
  1640  F0 F9 39 39 39 39 39 38 00 00 00 00 00 00 00 00
  1650  FF FF C0 C0 C0 C0 FF FF 00 00 00 00 00 00 00 00
  1660  1F 3F 38 38 38 38 3F 1F 00 00 00 00 00 00 00 00
  1670  E0 F0 70 70 70 70 F0 E0 00 00 00 00 00 00 00 00
  1680  00 00 00 00 00 00 00 00 00 00 00 00 00 00 00 00
  1690  00 00 00 00 00 30 30 00 00 00 00 00 00 30 30 00
  16A0  FF B6 A2 80 80 A2 B6 E3 FF B6 A2 88 88 A2 B6 E3
  16B0  00 00 00 7E 7E 00 00 00 00 00 00 7E 7E 00 00 00
  16C0  3F 3F 3F 3F 3F 3F 3F 3F 3F 0F 03 00 00 00 00 00
  16D0  3F 3F 3F 3F 3F 3F 3F FF 00 3F 3F 3F 3F 3F 3F FF
  16E0  E3 D9 9C 9C 9C CD E3 FF E3 D9 9C 9C 9C CD E3 FF
  16F0  F3 E3 F3 F3 F3 F3 C0 FF F3 E3 F3 F3 F3 F3 C0 FF
  1700  C1 9C F8 E1 C3 8F 80 FF C1 9C F8 E1 C3 8F 80 FF
  1710  C0 F9 F3 E1 FC 9C C1 FF C0 F9 F3 E1 FC 9C C1 FF
  1720  F1 E1 C9 99 80 F9 F9 FF F1 E1 C9 99 80 F9 F9 FF
  1730  81 9F 81 FC FC 9C C1 FF 81 9F 81 FC FC 9C C1 FF
  1740  E3 CF 9F 81 9C 9C C1 FF E3 CF 9F 81 9C 9C C1 FF
  1750  80 9C F9 F3 E7 E7 E7 FF 80 9C F9 F3 E7 E7 E7 FF
  1760  C3 9D 8D C3 B0 BC C1 FF C3 9D 8D C3 B0 BC C1 FF
  1770  C1 9C 9C C0 FC F9 C3 FF C1 9C 9C C0 FC F9 C3 FF
  1780  00 00 00 00 00 00 00 00 1F 30 60 67 63 33 1F 00
  1790  00 00 00 00 00 00 00 00 3E 63 63 63 63 63 3E 00
  17A0  00 00 00 00 00 00 00 00 1C 36 63 63 7F 63 63 00
  17B0  00 00 00 00 00 00 00 00 63 63 63 77 3E 1C 08 00
  17C0  00 00 00 00 00 00 00 00 63 77 7F 7F 6B 63 63 00
  17D0  00 00 00 00 00 00 00 00 3F 30 30 3E 30 30 3F 00
  17E0  00 00 00 00 00 00 00 00 3F 30 30 3E 30 30 3F 00
  17F0  00 00 00 00 00 00 00 00 7E 63 63 67 7C 6E 67 00
  1800  7F 80 BF BF BF BC B8 B0 7F 80 80 80 87 8F 8F 8F
  1810  A0 A0 BF BF BF 7F 7F 00 9F 80 80 80 80 FF 00 00
  1820  FC 03 FF FF 1F 0F 0F 0F FE 02 02 02 C2 E2 E2 E2
  1830  0F 07 07 FF FF FD FE 00 E2 F2 02 02 02 FE 00 00
  1840  7F 80 BE BC B8 B7 AF AF 7F 80 83 82 87 8F 9D 9D
  1850  AF A7 B0 B8 BF 7F 7F 00 9E 8F 87 80 80 FF 00 00
  1860  FC 03 9F 27 07 9F CF CF FE 02 C2 32 82 C2 E2 E2
  1870  CF 9F 3F 7F FF FD FE 00 E2 C2 82 02 02 FE 00 00
  1880  7F 80 BF BF BF BF BF BD 7F 80 80 80 80 80 84 8F
  1890  BA B4 A0 A0 A1 7F 7F 00 9D 9B 9F 9E 80 FF 00 00
  18A0  FC 03 FF EF C7 C7 BF 7F FE 02 22 32 3A 42 82 02
  18B0  7F 3F 7F FF FF FD FE 00 02 82 02 02 02 FE 00 00
  18C0  7F 80 BF BF BF BE A2 B7 7F 80 81 83 83 BF 9F 8F
  18D0  BC A8 B0 A1 A7 7F 7F 00 8F 9E 9C 90 80 FF 00 00
  18E0  FC 03 7F 3F 3F 7B 83 87 FE 02 02 82 82 FA F2 E2
  18F0  CF 27 17 87 E7 FD FE 00 E2 F2 72 12 02 FE 00 00
  1900  7F 80 BF BD B8 B6 A0 B6 7F 80 87 86 8F 9B 94 9B
  1910  A0 B6 B4 BC B8 7F 7F 00 94 9B 88 87 80 FF 00 00
  1920  FC 03 1F 0F 87 87 07 87 FE 02 C2 22 12 52 92 52
  1930  07 8F 3F 7F FF FD FE 00 92 42 82 02 02 FE 00 00
  1940  7F 80 BF BF BE A0 BC B8 7F 80 80 81 9F 81 87 8F
  1950  A7 A8 AA B0 B8 7F 7F 00 9F 9C 8A 87 80 FF 00 00
  1960  FC 03 FF 1F 2F 2F D7 37 FE 02 02 C2 C2 C2 22 C2
  1970  8B 03 B3 07 0F FD FE 00 F2 0A AA F2 02 FE 00 00
  1980  7F 80 BF BF 9F A0 87 A1 7F 80 80 90 BF BF 98 86
  1990  B8 BC BE BF BF 7F 7F 00 82 81 80 80 80 FF 00 00
  19A0  FC 03 FF FF CF 07 E7 03 FE 02 02 02 E2 F2 12 FA
  19B0  33 33 33 83 87 FD FE 00 6A EA 4A 7A 02 FE 00 00
  19C0  9C 88 80 80 94 9C 9C FF 9C 88 80 80 94 9C 9C FF
  19D0  C0 F3 F3 F3 F3 F3 C0 FF C0 F3 F3 F3 F3 F3 C0 FF
  19E0  CF CF CF CF CF CF C0 FF CF CF CF CF CF CF C0 FF
  19F0  E1 CC 9F 9F 9F CC E1 FF E1 CC 9F 9F 9F CC E1 FF
  1A00  00 00 00 01 01 01 03 1F 00 00 00 01 01 01 03 1F
  1A10  03 01 01 01 00 00 00 00 03 01 01 01 00 00 00 00
  1A20  00 00 00 00 00 00 80 F0 00 00 00 00 00 00 80 F0
  1A30  80 00 00 00 00 00 00 00 80 00 00 00 00 00 00 00
  1A40  00 00 01 01 01 03 07 3F 00 00 01 01 01 03 07 3F
  1A50  07 03 01 01 01 00 00 00 07 03 01 01 01 00 00 00
  1A60  00 00 00 00 00 80 C0 F8 00 00 00 00 00 80 C0 F8
  1A70  C0 80 00 00 00 00 00 00 C0 80 00 00 00 00 00 00
  1A80  00 01 01 01 03 03 0F 7F 00 01 01 01 03 03 0F 7F
  1A90  0F 03 03 01 01 01 00 00 0F 03 03 01 01 01 00 00
  1AA0  00 00 00 00 80 80 E0 FC 00 00 00 00 80 80 E0 FC
  1AB0  E0 80 80 00 00 00 00 00 E0 80 80 00 00 00 00 00
  1AC0  01 01 01 03 03 07 1F FF 01 01 01 03 03 07 1F FF
  1AD0  1F 07 03 03 01 01 01 00 1F 07 03 03 01 01 01 00
  1AE0  00 00 00 80 80 C0 F0 FE 00 00 00 80 80 C0 F0 FE
  1AF0  F0 C0 80 80 00 00 00 00 F0 C0 80 80 00 00 00 00
  1B00  00 00 00 00 00 00 00 00 00 00 00 00 00 00 08 1C
  1B10  00 00 00 00 00 00 00 00 1C 1C 00 00 00 00 00 00
  1B20  00 00 00 00 00 00 00 00 00 00 00 00 00 00 1C 3C
  1B30  00 00 00 00 00 00 00 00 1C 00 00 00 00 00 00 00
  1B40  00 00 00 00 00 00 00 00 00 00 00 00 00 00 1C 1C
  1B50  00 00 00 00 00 00 00 00 1C 08 00 00 00 00 00 00
  1B60  00 00 00 00 00 00 00 00 00 00 00 00 00 00 38 3C
  1B70  00 00 00 00 00 00 00 00 38 00 00 00 00 00 00 00
  1B80  00 00 00 00 11 32 12 12 00 00 00 00 11 32 12 12
  1B90  12 12 39 00 00 00 00 00 12 12 39 00 00 00 00 00
  1BA0  00 00 00 00 8C 52 52 52 00 00 00 00 8C 52 52 52
  1BB0  52 52 8C 00 00 00 00 00 52 52 8C 00 00 00 00 00
  1BC0  00 00 00 00 31 4A 0A 12 00 00 00 00 31 4A 0A 12
  1BD0  22 42 79 00 00 00 00 00 22 42 79 00 00 00 00 00
  1BE0  00 00 00 00 8C 52 52 52 00 00 00 00 8C 52 52 52
  1BF0  52 52 8C 00 00 00 00 00 52 52 8C 00 00 00 00 00
  1C00  00 00 00 00 31 4A 0A 32 00 00 00 00 31 4A 0A 32
  1C10  0A 4A 31 00 00 00 00 00 0A 4A 31 00 00 00 00 00
  1C20  00 00 00 00 8C 52 52 52 00 00 00 00 8C 52 52 52
  1C30  52 52 8C 00 00 00 00 00 52 52 8C 00 00 00 00 00
  1C40  00 00 00 00 11 32 52 52 00 00 00 00 11 32 52 52
  1C50  7A 12 11 00 00 00 00 00 7A 12 11 00 00 00 00 00
  1C60  00 00 00 00 8C 52 52 52 00 00 00 00 8C 52 52 52
  1C70  52 52 8C 00 00 00 00 00 52 52 8C 00 00 00 00 00
  1C80  00 C0 63 F1 71 FD 2F 77 00 C0 63 F1 71 FD 3F 7F
  1C90  3D 3F 1D 01 03 0F 0D 00 3F 3F 1D 01 03 0F 0D 00
  1CA0  00 03 86 4F 8E BF F4 EE 00 03 86 CF 8E BF FC FE
  1CB0  BC FC B8 80 C0 F0 B0 00 FC FC B8 80 C0 F0 B0 00
  1CC0  00 00 04 0D 0B 17 37 2F 00 00 00 01 03 07 07 0F
  1CD0  6F 4F 5F 47 41 40 40 40 0F 0F 1F 07 01 00 00 00
  1CE0  00 00 00 00 80 C0 F8 FC 00 00 00 00 80 C0 F8 FC
  1CF0  FC F6 96 04 04 00 00 00 FC F6 96 04 04 00 00 00
  1D00  00 00 20 12 09 05 02 0C 00 00 20 12 01 04 02 0C
  1D10  01 03 86 6D 2D 46 2F 0D 00 02 06 45 2D 46 2B 00
  1D20  00 00 20 47 1F 3E 3D 7F 00 00 20 40 1C 2E 35 7F
  1D30  E7 FF FB CF E5 E8 F5 F3 27 3E BF FF FF BF 3F BE
  1D40  00 04 04 72 FA 9E EF FF 00 04 04 62 62 92 0F DF
  1D50  FD DB 7F 7F 67 17 AF 5E 6C DB F7 BA FB FF F7 7E
  1D60  00 04 04 08 90 B0 40 A0 00 04 04 08 80 B0 40 A0
  1D70  86 C4 F0 B8 78 B0 D8 B8 82 44 70 A8 48 B0 D8 A0
  1D80  03 07 06 0D 0F 27 10 00 03 07 06 05 02 20 10 00
  1D90  03 05 08 10 20 20 00 00 02 01 08 10 00 20 00 00
  1DA0  C5 F2 F4 EE FE FF DF DD 7D FF FF BF 3D 79 53 DD
  1DB0  6B 7F 1E 40 10 00 00 00 68 7C 00 40 10 00 00 00
  1DC0  CB 8F B6 BF 7F 7F DB E7 59 78 7E DF FB FD D9 E1
  1DD0  FF 3A 00 24 1C 14 00 00 F3 02 00 24 08 14 00 00
  1DE0  D8 F2 F1 F0 A8 B0 60 E0 C0 E2 C1 00 88 B0 40 80
  1DF0  40 B0 90 18 0C 04 00 00 00 B0 80 10 08 04 00 00
  1E00  80 C4 62 30 19 13 03 0F 80 44 20 00 01 03 02 03
  1E10  0F 06 1D 3F 3D 1B 1B 5D 07 06 1D 1F 2D 09 01 5C
  1E20  00 00 0F DE F7 DF FF FF 00 00 08 DC 7F 2F F7 FE
  1E30  BF 7D DC C5 C3 EC E1 83 A7 7F FF FF EE FE FF FF
  1E40  00 1E 7F F3 6D FE FE FF 00 06 3C 72 69 FC E6 7B
  1E50  FF EF CB 17 2F 5D 8B AF BF FF FE FF FF FF 7F BF
  1E60  00 02 0C 98 C8 C0 D8 FC 00 02 08 10 00 80 98 98
  1E70  FE EE F6 F7 EF DE F8 FC 30 68 F4 B5 A8 52 F0 CC
  1E80  7F EF FF FB FF 6F 07 0D 7F F7 F7 6F 0C 0F 07 0D
  1E90  0E 0F 0F 27 13 28 48 80 0E 0F 07 22 10 00 40 80
  1EA0  E5 AD 60 C9 9C FD FF BF F9 FE FE FF E7 FF F7 BF
  1EB0  7F FE DE 9F 03 31 08 10 1D CE 9E 03 03 21 08 10
  1EC0  87 C8 2F 0F 67 FB FF B7 FF EF FF FF FE FF EF 87
  1ED0  CF FF FF 75 8F FF FF 74 CE F6 E3 07 8E FC C8 00
  1EE0  FE FE EF F7 FA F7 FB FF B8 FC ED B6 7A B5 FA F5
  1EF0  67 9E FC F0 84 94 0A 01 63 12 04 90 04 80 02 00
  1F00  00 00 01 11 1D 0F 06 1F 00 00 01 11 0C 03 03 1D
  1F10  06 06 0D 1B 02 00 00 00 02 07 09 11 02 00 00 00
  1F20  00 00 04 28 B8 F0 BC 18 00 00 04 28 B0 20 EC A0
  1F30  30 D8 FC 64 20 00 00 00 E0 B0 68 24 00 00 00 00
  1F40  00 02 4B 73 3F 1B 4C 1E 00 00 42 31 09 0F 06 1F
  1F50  DC 3E 0B 2D 1F 1F 32 00 D5 0D 0E 07 0A 12 22 00
  1F60  00 20 62 6E FC DA 78 1E 00 20 42 4C D0 B8 E0 CE
  1F70  3C 3A 68 DC EE 62 B0 00 B0 E0 38 EC 62 20 00 00
  1F80  0A 44 79 3F 17 5D 3A F4 00 44 19 09 0F 4F 1D F6
  1F90  7E 1D 7F 3B 7F 65 C8 00 0D 01 4D 3E 25 40 80 00
  1FA0  12 A6 8C DC FD 68 1C 3F 00 84 88 18 B0 70 A8 7F
  1FB0  3C 3C 5E F0 FA DC 86 A2 60 8C 72 B0 98 84 82 80
  1FC0  FF FF FF FF FF FF FF FF FF FF FF FF 3F 0F 03 00
  1FD0  FF FF FF FF FF FF FF FF 00 FF FF FF FF FF FF FF
  1FE0  43 4F 50 59 52 49 47 48 54 20 31 39 38 31 20 31
  1FF0  39 38 35 20 4E 41 4D 43 4F 20 4C 54 44 2E 0D 0A

; CHR Bank 2 ($0000-$0FFF in PPU space if selected)
  2000  38 4C C6 C6 C6 64 38 00 00 00 00 00 00 00 00 00
  2010  18 38 18 18 18 18 7E 00 00 00 00 00 00 00 00 00
  2020  7C C6 0E 3C 78 E0 FE 00 00 00 00 00 00 00 00 00
  2030  7E 0C 18 3C 06 C6 7C 00 00 00 00 00 00 00 00 00
  2040  1C 3C 6C CC FE 0C 0C 00 00 00 00 00 00 00 00 00
  2050  FC C0 FC 06 06 C6 7C 00 00 00 00 00 00 00 00 00
  2060  3C 60 C0 FC C6 C6 7C 00 00 00 00 00 00 00 00 00
  2070  FE C6 0C 18 30 30 30 00 00 00 00 00 00 00 00 00
  2080  7C C6 C6 7C C6 C6 7C 00 00 00 00 00 00 00 00 00
  2090  7C C6 C6 7E 06 0C 78 00 00 00 00 00 00 00 00 00
  20A0  00 00 01 01 01 01 01 01 00 00 00 00 00 00 0E 01
  20B0  0C 18 30 24 27 31 1B 0E 0F 1B 33 24 20 31 1B 0E
  20C0  00 00 00 3C 7C 78 0E 7E 00 00 00 00 02 07 7E 04
  20D0  4F C0 C8 C0 E2 E3 F1 F9 70 38 70 BE 9F C0 66 A6
  20E0  78 78 45 C5 81 81 08 00 D7 C6 3D 3D 39 BD 08 00
  20F0  00 00 00 80 80 80 00 80 00 00 00 80 80 80 F0 08
  2100  F0 D8 CC 64 24 8C D8 70 30 18 8C 04 04 8C D8 70
  2110  00 00 01 01 01 01 00 00 00 00 00 00 00 00 00 00
  2120  01 07 08 10 14 10 19 0F 0F 07 0B 13 13 10 19 0F
  2130  00 00 00 3C 7C 78 0E 7E 00 00 00 00 02 07 7E 04
  2140  4F C0 C8 C8 C0 E0 F2 7B 70 38 70 B0 B8 DE 6F 20
  2150  F9 F9 44 44 C5 41 89 00 D6 C6 FF BE 3D 7D 89 00
  2160  00 00 00 00 00 80 80 80 00 00 00 00 00 80 80 80
  2170  00 E0 D0 E8 64 04 8C F0 F0 28 10 88 04 04 8C F0
  2180  00 00 00 01 01 00 01 01 00 00 00 00 00 01 00 01
  2190  01 03 03 03 03 03 03 00 00 00 01 01 01 00 0F 13
  21A0  0C 18 31 27 26 31 1B 0E 0F 1B 31 24 20 31 1B 0E
  21B0  00 00 F0 F0 E0 38 F8 3C 00 00 00 08 1C F8 10 C0
  21C0  00 01 85 C7 E3 F1 F1 79 E0 FD 7F 01 8C 4E 2E D7
  21D0  71 C1 81 80 88 80 00 00 C9 79 39 3C 98 80 00 00
  21E0  00 00 00 00 00 F0 D8 8C 00 00 00 E0 00 70 58 0C
  21F0  E4 A4 8C D8 70 00 00 00 04 84 8C D8 70 00 00 00
  2200  00 07 0F 0F 01 0F 09 08 00 00 00 00 0F 00 0E 07
  2210  08 0C 0F 0F 07 07 07 0D 07 07 06 02 03 00 07 3F
  2220  00 11 31 21 27 31 1B 0E 0E 1F 36 20 24 31 1B 0E
  2230  00 80 80 00 C0 C0 E8 88 00 00 40 E0 C0 80 08 89
  2240  14 08 0F C3 E3 F3 E3 81 FF E4 11 1C 9E 5A 13 71
  2250  00 80 88 80 80 80 00 00 F8 7C 38 80 80 80 00 00
  2260  00 E0 B0 18 08 C8 18 B0 00 E0 B0 18 08 08 18 B0
  2270  E0 00 00 00 00 00 00 00 E0 00 00 00 00 00 00 00
  2280  03 07 07 00 07 04 0C 0C 00 00 00 07 00 07 03 03
  2290  0C 0E 0F 0F 07 03 06 00 07 05 04 03 00 03 0F 0B
  22A0  00 04 0C 08 09 0C 06 03 13 07 0C 08 09 0C 06 03
  22B0  C0 C0 80 E0 E0 F8 88 14 00 20 70 E0 40 08 89 FF
  22C0  0D 07 E2 F2 FB E1 40 40 E3 98 3E 8E 6B 19 FC FE
  22D0  60 E4 60 E0 A0 60 C0 80 DF 8C 20 20 20 60 C0 80
  22E0  00 00 00 00 00 00 00 E0 00 00 00 00 00 80 00 E0
  22F0  B0 98 C8 48 18 B0 E0 00 B0 18 08 08 18 B0 E0 00
  2300  0F 1F 1E 03 1F 13 32 30 00 00 01 1F 01 1C 0E 0F
  2310  30 39 1F 0F 01 03 03 02 1F 0E 07 00 00 03 03 07
  2320  00 00 03 02 02 03 01 00 0D 09 13 02 02 03 01 00
  2330  00 00 00 80 A1 F3 1F 4F 00 80 C2 84 25 3B 20 C0
  2340  03 C1 F0 EC E4 C0 C4 30 9B 3D 18 DC 1E BE FC E8
  2350  30 30 38 28 68 18 B0 E0 C0 90 98 08 48 18 B0 E0
  2360  00 00 00 E0 B0 18 08 C8 00 00 00 E0 B0 18 08 08
  2370  18 B0 E0 00 00 00 00 00 18 B0 E0 00 00 00 00 00
  2380  1E 3E 3C 07 3F 27 62 60 00 01 03 3F 02 38 1E 3C
  2390  70 30 3F 1F 1F 0F 03 03 1F 0F 09 0E 00 01 03 03
  23A0  00 00 01 01 01 01 00 00 05 05 0D 01 01 01 00 00
  23B0  00 00 00 00 21 93 1F 32 00 00 82 06 25 1B 20 E2
  23C0  03 61 F8 F4 E0 C0 A0 34 DF 9D 4C 0C DC FE FF CC
  23D0  30 18 1C 14 14 8C D8 70 E0 C8 8C 04 04 8C D8 70
  23E0  00 00 00 E0 B0 18 C8 48 00 00 00 E0 B0 18 08 08
  23F0  18 B0 E0 00 00 00 00 00 18 B0 E0 00 00 00 00 00
  2400  07 0F 0F 01 0F 09 18 18 00 00 00 0F 00 0E 07 07
  2410  18 1C 1E 0F 0F 07 03 00 07 07 05 06 01 00 00 00
  2420  80 80 01 C3 C2 E3 83 3F 00 40 E1 CB 8A 08 89 B1
  2430  08 10 1B FC F8 F8 CE 0D 14 FF E7 33 C7 07 0F 0E
  2440  0C 0C 00 02 02 03 01 00 0F 0F 0B 0A 0A 0B 01 00
  2450  00 E0 B0 18 C8 C8 18 B0 00 E0 B0 18 08 08 18 B0
  2460  E0 00 C0 00 00 40 00 80 E0 00 C0 E0 C0 C0 80 00
  2470  E0 F0 58 48 48 18 B0 E0 20 30 18 08 08 18 B0 E0
  2480  07 0D 18 13 11 19 0D 07 07 0D 18 10 10 18 0C 06
  2490  01 01 03 03 04 00 00 00 08 06 02 02 05 00 00 00
  24A0  00 03 01 01 00 00 00 00 00 00 00 01 03 01 00 00
  24B0  00 80 C0 40 40 C4 80 20 00 80 C0 40 40 DC 8C 2E
  24C0  21 1B 3E 7C 8E 07 07 03 FE E4 D3 53 F9 FC 3C 3E
  24D0  03 E3 FF C6 78 F8 F0 00 1E 3C 84 F8 80 00 00 00
  24E0  00 00 00 00 00 00 70 D8 00 00 00 00 00 00 70 D8
  24F0  8C E4 04 0C 18 70 80 80 0C 04 84 CC D8 F0 00 70
  2500  0E 1B 31 24 24 37 1B 0F 0E 1B 31 20 20 31 19 0C
  2510  01 00 01 01 01 00 00 00 00 0F 01 01 01 00 00 00
  2520  00 07 03 03 00 01 01 00 00 00 01 03 07 02 00 00
  2530  00 10 81 81 A3 A3 1E 1E 00 10 BD 9C BC BD 63 EB
  2540  9D 8F CF 4F 07 07 03 03 65 66 03 F1 79 3A 1E 1E
  2550  43 C3 FE 80 F0 F0 E0 00 7E 7C 08 F0 00 00 00 00
  2560  70 D8 8C E4 24 0C 18 30 70 D8 8C 04 24 CC D8 F0
  2570  80 80 80 F0 F0 F0 E0 C0 80 70 00 09 7F 4F 8E 00
  2580  00 07 0D 18 12 13 19 0D 00 07 0D 18 10 10 18 0D
  2590  07 00 00 00 00 00 00 00 07 00 01 00 00 00 00 00
  25A0  01 03 06 05 07 06 07 06 01 03 06 04 04 04 11 3B
  25B0  00 06 8F DF 4F 47 C1 F0 79 7B 90 D4 72 79 38 09
  25C0  14 10 7E 3F 38 0F 1F 1E 67 9F 0F 10 3F 70 20 00
  25D0  C0 60 30 90 10 30 20 00 C0 60 30 90 10 30 E0 D9
  25E0  40 C0 C0 80 DC FE FE 78 F3 E7 C7 8F 02 88 50 C0
  25F0  38 0C 0C 1C BC F0 C0 00 F0 F0 F0 F8 C0 80 80 00
  2600  07 0D 18 12 16 1A 0F 07 07 0D 18 10 10 18 0C 04
  2610  01 00 00 04 00 00 00 07 00 01 03 07 03 02 00 07
  2620  0D 18 13 13 18 0D 07 00 0D 18 10 10 18 0D 07 00
  2630  00 80 C0 40 00 80 99 19 00 80 C1 48 68 E8 F8 78
  2640  59 39 1F 1F 3F DC 04 18 78 C0 E0 E8 C7 E3 F7 44
  2650  FE E0 C3 41 C0 80 00 00 8E 88 08 48 C8 83 01 00
  2660  00 00 00 00 00 00 E0 E0 00 00 E0 E0 E0 E0 00 80
  2670  C0 C0 E0 F8 FC 0E 0E 06 80 80 40 00 90 F8 F8 78
  2680  06 06 CC F8 C0 78 F8 F0 F8 78 38 80 F8 80 00 00
  2690  00 00 01 03 06 04 04 06 00 00 01 03 06 04 04 06
  26A0  03 01 00 00 00 00 00 00 03 01 00 00 00 00 00 00
  26B0  00 00 C3 63 37 8F 86 E6 00 00 C8 68 38 93 39 3D
  26C0  66 FE 17 07 02 02 20 00 3D 89 1A 18 3C 3F 31 10
  26D0  03 06 0C 09 09 0C 06 03 03 06 0C 08 08 0C 06 03
  26E0  3C 7C F8 8E FE 1F 00 00 00 02 87 FE 84 F0 E0 C0
  26F0  00 00 00 A0 00 18 50 40 80 E0 E0 E0 90 D8 B0 20
  2700  C0 C0 E0 A0 20 60 C0 80 10 50 60 20 20 60 C0 80
  2710  00 00 00 00 00 1C 36 63 00 00 00 00 01 1C 36 63
  2720  40 48 6F 37 1C 00 00 00 41 49 61 34 1C 00 00 00
  2730  00 01 03 1F 3C 73 60 60 00 00 00 04 07 9C 1F 9C
  2740  70 38 3D FC C9 45 05 49 DE CF CB 50 36 7E 7E 78
  2750  03 07 0D 09 09 0C 06 03 32 16 0C 08 08 0C 06 03
  2760  00 E0 E0 C0 70 F0 F8 00 00 00 10 38 F0 20 80 00
  2770  00 00 40 80 80 00 00 00 00 00 40 80 80 80 C0 60
  2780  80 C0 60 20 20 60 C0 80 80 C0 60 20 20 60 C0 80
  2790  0E 1A 30 24 27 31 1B 0E 0F 1B 31 24 20 30 1B 0E
  27A0  00 03 07 3F 78 77 60 60 00 00 00 08 0F B8 BF 9E
  27B0  E0 30 38 7C DD 88 80 40 DC CF EF C9 E3 77 7A 7B
  27C0  01 03 07 05 05 06 03 01 33 12 06 04 04 06 03 01
  27D0  00 C0 C0 80 E0 E0 F0 00 00 00 20 70 E0 40 00 00
  27E0  00 00 00 B0 A0 80 80 80 00 00 80 B0 60 00 40 30
  27F0  C0 E0 30 90 90 30 60 C0 50 60 30 10 10 30 60 C0
  2800  03 0F 1E 1C 38 3E 7E 7E 00 00 00 00 00 00 00 00
  2810  7E 7E 3E 38 18 1F 0F 03 00 00 00 00 00 00 00 00
  2820  C0 F0 78 78 7C 7C 7E 7E 00 00 00 00 00 00 00 00
  2830  7E 7E 7C 1C 18 F8 F0 C0 00 00 00 00 00 00 00 00
  2840  FF FF FF FF FF FF FF FF FF FF FF FF FF FF FF FF
  2850  FF FF FF FF FF FF FF FF FF FF FF FF FF FF FF FF
  2860  FF FF FF FF FF FF FF FF FF FF FF FF FF FF FF FF
  2870  FF FF FF FF FF FF FF FF FF FF FF FF FF FF FF FF
  2880  FF FF FF FF FF FF FF FF FF FF FF FF FF FF FF FF
  2890  FF FF FF FF FF FF FF FF FF FF FF FF FF FF FF FF
  28A0  FF FF FF FF FF FF FF FF FF FF FF FF FF FF FF FF
  28B0  FF FF FF FF FF FF FF FF FF FF FF FF FF FF FF FF
  28C0  FF FF FF FF FF FF FF FF FF FF FF FF FF FF FF FF
  28D0  FF FF FF FF FF FF FF FF FF FF FF FF FF FF FF FF
  28E0  FF FF FF FF FF FF FF FF FF FF FF FF FF FF FF FF
  28F0  FF FF FF FF FF FF FF FF FF FF FF FF FF FF FF FF
  2900  00 00 50 51 F3 F7 74 35 00 00 53 56 F4 F0 77 36
  2910  07 06 03 03 02 06 07 0F 77 7D 3E 3D 1D 09 00 00
  2920  0F 0D 07 07 07 00 00 00 00 02 00 00 00 07 3F 3B
  2930  00 00 00 C0 E0 F8 98 D0 00 00 E0 30 10 08 F8 B0
  2940  F0 30 E0 E0 30 30 F0 F8 F0 D0 20 DC CE CF 07 07
  2950  F0 10 FF FF 38 00 00 00 0E EC 0F 07 00 38 3F 37
  2960  60 60 71 73 0F 0C 05 07 60 63 76 74 78 7F 76 77
  2970  06 03 03 02 06 07 0F 0A 7D 3E 3D 3D 19 08 00 05
  2980  0F 0F 0F 0E 00 00 00 00 00 00 00 00 0E 0E 0E 0C
  2990  03 03 C7 E7 F8 98 D0 F0 03 E3 37 17 0F FF B7 F7
  29A0  30 E0 E0 20 30 F0 F8 28 DF 3E DE DE CC 08 00 D0
  29B0  F8 F8 78 38 00 00 00 00 00 00 00 00 38 38 38 18
  29C0  00 00 00 01 73 7F 0C 05 00 00 03 06 74 78 3F 7E
  29D0  07 06 03 03 06 0C 0F 0F 7F 75 72 7D 39 13 00 00
  29E0  0A 1F 3F 3F 1E 00 00 00 05 00 00 00 00 3E 7E 00
  29F0  00 00 00 C0 E7 FF 98 D0 00 00 E0 30 17 0F FE BF
  2A00  F0 30 E0 E0 30 18 F8 F8 FF D7 27 DF CE E4 00 00
  2A10  28 FC FE FE 3C 00 00 00 D0 00 00 00 00 3E 3F 00
  2A20  1F 3F 3F 7E 7C 79 73 0B 00 00 00 01 03 06 0C 7C
  2A30  1D 19 01 23 00 80 01 01 7E 5E 0E 0C 03 03 01 00
  2A40  03 07 07 03 00 00 00 00 60 78 3F 3C 1C 18 03 03
  2A50  00 80 04 40 F0 92 08 08 00 00 80 80 40 60 F0 F0
  2A60  0C 04 84 84 C4 E4 F4 FC F0 F8 78 7A 3F 7F AF 20
  2A70  FC F8 F8 F0 00 00 00 00 40 40 40 40 F0 F0 F0 D0
  2A80  1D 19 01 83 00 10 01 01 7E 5E 0E 0C 03 03 01 00
  2A90  01 01 01 00 00 00 00 00 00 00 00 00 00 00 03 03
  2AA0  00 90 00 40 F1 90 08 08 00 00 80 80 40 60 F0 F0
  2AB0  00 00 00 3C 04 34 04 3C 00 00 00 3C 3C 0C 3C 3C
  2AC0  00 08 14 22 48 64 30 10 00 08 1C 3E 76 78 38 10
  2AD0  00 00 00 00 54 54 44 7C 00 00 00 00 6C 6C 7C 7C
  2AE0  00 00 0E 04 1B 2F 24 18 00 00 31 0B 00 0E 02 00
  2AF0  C0 40 60 38 74 54 44 38 40 58 E0 A0 30 10 00 00
  2B00  FF FF FF FF FF FF FF FF F7 F3 01 00 01 F3 F7 FF
  2B10  00 00 00 00 00 00 00 00 7F FF C0 C0 C0 C0 C0 C0
  2B20  00 00 00 00 00 00 00 00 C0 C0 C0 C0 C0 FF 7F 00
  2B30  00 00 00 00 00 00 00 00 FC FE 06 06 06 06 06 06
  2B40  00 00 00 00 00 00 00 00 06 06 06 06 06 FE FC 00
  2B50  01 01 01 00 01 01 02 00 00 00 02 1B 3F 1F 07 03
  2B60  6E FC FC 9C B8 F8 F0 E0 EE 1C DC 9C B8 F8 F0 E0
  2B70  81 C3 81 B9 BD FB D7 82 00 38 BD A9 A1 C3 EF FE
  2B80  38 00 00 7C 6C 6C 00 00 44 7C 7C 00 00 00 6C EE
  2B90  01 03 01 1D 3D 1D 6B C2 00 1C 3D 15 05 01 77 FE
  2BA0  DC 80 E0 7E 36 36 00 00 E2 BE DE 4E 36 36 36 77
  2BB0  80 C1 83 B9 BD FB D7 86 00 38 BC A9 A1 C3 EF FE
  2BC0  38 00 00 00 00 6C 00 00 7C 7C 7C 7C 6C 6C 6C EE
  2BD0  00 00 00 00 FB FD B9 D7 00 00 38 3C 28 A0 81 EF
  2BE0  83 BA 00 00 00 00 6C 00 FF FE 7C 7C FE C6 6C EE
  2BF0  3C 0E 0E 70 7E 7C 0E CE 00 70 F0 7E 51 03 1D 11
  2C00  CF 0F 0F 0F 07 00 00 00 30 78 2C 00 00 07 03 03
  2C10  00 00 00 00 00 30 30 80 00 00 00 C0 E0 C0 80 00
  2C20  C0 C0 C0 C0 80 00 00 00 80 40 80 80 40 80 C0 80
  2C30  3C 0E 0E 70 7E 7C 18 18 00 70 F0 7E 50 02 3F 07
  2C40  68 61 01 3F 07 03 00 00 17 1E 3E 7A 71 70 F0 E0
  2C50  00 00 80 80 C0 80 00 00 40 E0 70 70 10 00 00 00
  2C60  1E 8F C6 C6 40 00 00 00 C1 FB FF FF 63 03 07 07
  2C70  00 00 1E 0F 07 38 3F 3E 00 00 00 30 78 3F 28 01
  2C80  38 FC FC 7C 38 36 06 00 FF 1F 07 E7 DF C1 80 80
  2C90  7C C6 C6 C6 C6 C6 7C 00 00 00 00 00 00 00 00 00
  2CA0  FF FF FF FF FF FF FF FF EF EF EF C7 C7 83 83 01
  2CB0  38 FE 7C 00 00 00 00 00 38 FE 7C 00 00 00 00 00
  2CC0  00 F0 78 3C 0E 00 00 00 00 F0 78 3C 0E 00 00 00
  2CD0  00 80 60 70 38 18 0C 06 00 80 60 70 38 18 0C 06
  2CE0  60 20 30 10 18 08 0C 04 60 20 30 10 18 08 0C 04
  2CF0  00 00 00 FE FE FE FE 06 00 00 06 1D 1F 1F 1D 01
  2D00  06 03 03 03 07 0A 12 20 01 03 00 00 07 0A 12 20
  2D10  00 00 1E 7E 3E 24 0C 3C 1E 1E 03 F2 F0 FE DE DE
  2D20  38 1E 00 00 80 40 20 1E DE 1E 7E 7E E6 66 26 1E
  2D30  00 00 00 03 43 FF FE 00 00 03 0F 00 00 3C 3F 03
  2D40  00 00 03 03 07 0E 0E 00 03 03 03 03 07 0E 0E 1C
  2D50  00 00 00 C0 C0 E0 70 30 00 C0 C0 00 00 20 F0 F0
  2D60  30 30 F0 E0 F0 70 30 00 F0 F0 C0 E0 F0 70 30 38
  2D70  00 00 1C 1C 0C 1E 3E 38 1C 3C 00 00 0C 3F 77 77
  2D80  38 3E 00 00 00 00 00 77 5F 5E 3E 3E 36 36 36 77
  2D90  00 00 00 00 00 00 00 00 00 00 00 00 00 00 38 38
  2DA0  38 3C 26 E6 EE 0C 01 E1 04 04 3E 6E 7E 72 7F E7
  2DB0  60 60 60 60 60 60 7E 00 00 00 00 00 00 00 00 00
  2DC0  38 6C C6 C6 FE C6 C6 00 00 00 00 00 00 00 00 00
  2DD0  FC C6 C6 C6 FC C0 C0 00 00 00 00 00 00 00 00 00
  2DE0  7E 18 18 18 18 18 18 00 00 00 00 00 00 00 00 00
  2DF0  7E FF FF 7E 24 24 24 A5 7E FF FF FF DF DF DF 5E
  2E00  FF FF FF 7E 24 26 24 24 04 04 04 85 DF DD DF 5E
  2E10  FE C0 C0 FC C0 C0 FE 00 00 00 00 00 00 00 00 00
  2E20  FF FF FF FF FF FF FF FF CC CC 33 33 CC CC 32 32
  2E30  FF FF FF FF 00 00 00 00 CC CC 32 32 00 00 00 00
  2E40  00 00 00 00 00 00 00 07 00 00 01 01 03 03 03 07
  2E50  00 80 80 80 00 0F 1F 0F 00 00 0F 4F DF EB 63 71
  2E60  06 08 00 00 3E 3E 3E 00 38 1E FE FE 3E 3E 3E 7E
  2E70  00 00 00 00 00 00 00 8F FE EE EE CE 8E 8E 8E 8F
  2E80  00 00 00 00 01 03 01 00 00 01 01 03 01 00 00 00
  2E90  01 00 00 00 03 03 03 07 03 03 03 03 03 03 00 04
  2EA0  03 03 0C 00 01 01 00 07 03 03 0C 00 03 03 03 07
  2EB0  00 00 00 00 E0 E0 E0 C0 00 E0 E0 E0 60 60 20 00
  2EC0  E0 E0 70 78 FC FE FE FF F0 F0 F0 C8 30 32 CC CC
  2ED0  FF FF FF FF FF FF 0F 87 33 33 CC CC 33 33 BC 8C
  2EE0  C6 C6 C6 EE 7C 38 10 00 00 00 00 00 00 00 00 00
  2EF0  FC C6 C6 CE F8 DC CE 00 00 00 00 00 00 00 00 00
  2F00  00 00 00 00 08 0C 0A 7F 00 00 00 00 00 00 00 76
  2F10  49 49 49 45 43 7F 00 00 40 40 40 40 40 7E 00 00
  2F20  00 00 00 00 00 10 1C 3F 00 00 00 00 00 00 00 2C
  2F30  31 31 31 31 2D 3F 00 00 20 20 20 20 20 3C 00 00
  2F40  00 00 00 00 00 00 00 3F 00 00 00 00 00 00 00 00
  2F50  21 21 21 21 21 3F 00 00 00 00 00 00 00 00 00 00
  2F60  00 08 80 32 0C 47 09 16 00 08 80 32 0C 47 09 16
  2F70  40 AC 50 18 22 48 32 01 40 AC 50 18 22 48 32 01
  2F80  C6 C6 C6 FE C6 C6 C6 00 00 00 00 00 00 00 00 00
  2F90  3E 60 C0 CE C6 66 3E 00 00 00 00 00 00 00 00 00
  2FA0  7F 7F 7F 7F 7F 7F 40 40 33 33 0C 0C 33 33 00 00
  2FB0  00 18 18 00 00 18 18 00 00 00 00 00 00 00 00 00
  2FC0  00 00 00 00 00 00 00 00 00 00 00 00 00 00 00 00
  2FD0  FF FF FF FF FF FF FF FF 00 00 00 00 00 00 00 00
  2FE0  00 00 00 00 00 00 00 00 FF FF FF FF FF FF FF FF
  2FF0  FF FF FF FF FF FF FF FF FF FF FF FF FF FF FF FF

; CHR Bank 3 ($0000-$0FFF in PPU space if selected)
  3000  38 4C C6 C6 C6 64 38 00 FF FF FF FF FF FF FF FF
  3010  18 38 18 18 18 18 7E 00 FF FF FF FF FF FF FF FF
  3020  7C C6 0E 3C 78 E0 FE 00 FF FF FF FF FF FF FF FF
  3030  7E 0C 18 3C 06 C6 7C 00 FF FF FF FF FF FF FF FF
  3040  1C 3C 6C CC FE 0C 0C 00 FF FF FF FF FF FF FF FF
  3050  FC C0 FC 06 06 C6 7C 00 FF FF FF FF FF FF FF FF
  3060  3C 60 C0 FC C6 C6 7C 00 FF FF FF FF FF FF FF FF
  3070  FE C6 0C 18 30 30 30 00 FF FF FF FF FF FF FF FF
  3080  7C C6 C6 7C C6 C6 7C 00 FF FF FF FF FF FF FF FF
  3090  7C C6 C6 7E 06 0C 78 00 FF FF FF FF FF FF FF FF
  30A0  38 6C C6 C6 FE C6 C6 00 FF FF FF FF FF FF FF FF
  30B0  FC C6 C6 FC C6 C6 FC 00 FF FF FF FF FF FF FF FF
  30C0  3C 66 C0 C0 C0 66 3C 00 FF FF FF FF FF FF FF FF
  30D0  F8 CC C6 C6 C6 CC F8 00 FF FF FF FF FF FF FF FF
  30E0  FE C0 C0 FC C0 C0 FE 00 FF FF FF FF FF FF FF FF
  30F0  FE C0 C0 FC C0 C0 C0 00 FF FF FF FF FF FF FF FF
  3100  3E 60 C0 CE C6 66 3E 00 FF FF FF FF FF FF FF FF
  3110  C6 C6 C6 FE C6 C6 C6 00 FF FF FF FF FF FF FF FF
  3120  7E 18 18 18 18 18 7E 00 FF FF FF FF FF FF FF FF
  3130  1E 06 06 06 C6 C6 7C 00 FF FF FF FF FF FF FF FF
  3140  C6 CC D8 F0 F8 DC CE 00 FF FF FF FF FF FF FF FF
  3150  60 60 60 60 60 60 7E 00 FF FF FF FF FF FF FF FF
  3160  C6 EE FE FE D6 C6 C6 00 FF FF FF FF FF FF FF FF
  3170  C6 E6 F6 FE DE CE C6 00 FF FF FF FF FF FF FF FF
  3180  7C C6 C6 C6 C6 C6 7C 00 FF FF FF FF FF FF FF FF
  3190  FC C6 C6 C6 FC C0 C0 00 FF FF FF FF FF FF FF FF
  31A0  7C C6 C6 C6 DE CC 7A 00 FF FF FF FF FF FF FF FF
  31B0  FC C6 C6 CE F8 DC CE 00 FF FF FF FF FF FF FF FF
  31C0  78 CC C0 7C 06 C6 7C 00 FF FF FF FF FF FF FF FF
  31D0  7E 18 18 18 18 18 18 00 FF FF FF FF FF FF FF FF
  31E0  C6 C6 C6 C6 C6 C6 7C 00 FF FF FF FF FF FF FF FF
  31F0  C6 C6 C6 EE 7C 38 10 00 FF FF FF FF FF FF FF FF
  3200  C6 C6 D6 FE FE EE C6 00 FF FF FF FF FF FF FF FF
  3210  C6 EE 7C 38 7C EE C6 00 FF FF FF FF FF FF FF FF
  3220  66 66 66 3C 18 18 18 00 FF FF FF FF FF FF FF FF
  3230  FE 0E 1C 38 70 E0 FE 00 FF FF FF FF FF FF FF FF
  3240  00 00 00 00 00 30 30 00 FF FF FF FF FF FF FF FF
  3250  00 00 00 00 00 00 00 7C 00 00 00 00 00 00 00 00
  3260  00 00 00 7C 7C 00 00 00 FF FF FF FF FF FF FF FF
  3270  3C 42 99 A1 A1 99 42 3C FF FF FF FF FF FF FF FF
  3280  E6 D6 D6 D6 E6 D6 D3 00 FF FF FF FF FF FF FF FF
  3290  B8 B4 B4 B8 B4 B4 38 00 FF FF FF FF FF FF FF FF
  32A0  EC CE CE EF CD CD EC 00 FF FF FF FF FF FF FF FF
  32B0  B8 B4 B4 B4 B4 B4 B8 00 FF FF FF FF FF FF FF FF
  32C0  24 7E 24 24 24 7E 24 00 FF FF FF FF FF FF FF FF
  32D0  00 00 00 00 00 FF 00 FF FF FF FF FF FF 00 FF 00
  32E0  FF 00 FC 00 00 00 00 00 00 FE 00 FC F8 F0 F0 E0
  32F0  00 00 00 00 00 00 00 00 E0 C0 80 80 00 80 C0 C0
  3300  00 00 00 00 00 FC 00 FF E0 F0 F0 F8 FC 00 FE 00
  3310  00 00 00 00 70 FC FE FF 00 00 00 00 00 00 00 00
  3320  FF FF FF FF FF FF 3C 00 00 00 00 00 00 00 00 00
  3330  FF FF FE FC F0 80 00 00 00 00 00 00 00 00 00 00
  3340  C0 E0 F0 F0 F0 F0 E0 C0 00 00 00 00 00 00 00 00
  3350  00 01 03 1F 7F FF FF FF 00 00 00 00 00 00 00 00
  3360  FF FF 6F 2F 1F 0F 07 00 00 00 00 00 00 00 00 00
  3370  78 FE FF FF FF FF FF FF 00 00 00 00 00 00 00 00
  3380  00 00 0F 10 27 48 50 50 FF FF F0 EF D8 B7 AF AF
  3390  50 48 27 10 0F 00 00 00 AF B7 D8 EF F0 FF FF FF
  33A0  00 00 E0 10 C8 24 14 14 FF FF 1F EF 37 DB EB EB
  33B0  14 24 C8 10 E0 00 00 00 EB DB 37 EF 1F FF FF FF
  33C0  00 00 FF 00 FF 00 00 00 FF FF 00 FF 00 FF FF FF
  33D0  00 00 FF 00 FF 00 00 00 FF FF 00 FF 00 FF FF FF
  33E0  50 50 50 50 50 50 50 50 AF AF AF AF AF AF AF AF
  33F0  14 14 14 14 14 14 14 14 EB EB EB EB EB EB EB EB
  3400  06 0E 1E 3E 36 76 66 66 FF FF FF FF FF FF FF FF
  3410  E6 C6 C6 FE FE C6 C6 00 FF FF FF FF FF FF FF FF
  3420  0E 1E 38 70 60 E0 C0 C0 FF FF FF FF FF FF FF FF
  3430  C0 E0 E0 70 7E 3E 0E 00 FF FF FF FF FF FF FF FF
  3440  C0 C0 C0 C0 C0 C0 C0 C0 FF FF FF FF FF FF FF FF
  3450  C0 C0 C0 C0 FE FE FE 00 FF FF FF FF FF FF FF FF
  3460  C6 E6 F6 FE DE CE CE C6 FF FF FF FF FF FF FF FF
  3470  C6 C6 C6 C6 C6 C6 C6 00 FF FF FF FF FF FF FF FF
  3480  F8 FC CC C6 C6 C6 C6 CC FF FF FF FF FF FF FF FF
  3490  FC F8 DC CE C6 C6 C6 00 FF FF FF FF FF FF FF FF
  34A0  FE FE 18 18 18 18 18 18 FF FF FF FF FF FF FF FF
  34B0  18 18 18 18 18 18 18 00 FF FF FF FF FF FF FF FF
  34C0  18 18 18 18 18 18 18 18 FF FF FF FF FF FF FF FF
  34D0  CC CC CC D8 D8 F0 F8 FC FF FF FF FF FF FF FF FF
  34E0  CC CE C6 C6 C6 C6 C6 00 FF FF FF FF FF FF FF FF
  34F0  F8 FC CE C6 CE FC F8 FC FF FF FF FF FF FF FF FF
  3500  CE C6 C6 CE FE FC F8 00 FF FF FF FF FF FF FF FF
  3510  C6 C6 C6 C6 C6 FE FE C6 FF FF FF FF FF FF FF FF
  3520  C6 C6 EE 7C 7C 38 38 7C FF FF FF FF FF FF FF FF
  3530  6C 6C EE C6 C6 C6 C6 00 FF FF FF FF FF FF FF FF
  3540  FE FE C0 C0 C0 C0 FC FC FF FF FF FF FF FF FF FF
  3550  C6 E6 E6 76 7E 3E 0E 00 FF FF FF FF FF FF FF FF
  3560  FF FF FF FF FF FF FF FF 0F 0F 0F 0F F0 F0 F0 F0
  3570  10 10 FE 7C 38 6C 44 82 EF EF 01 83 C7 93 BB 7D
  3580  1F 3F 3F 78 70 70 70 70 E0 C0 C0 87 8F 8F 8F 8F
  3590  70 70 70 78 3F 3F 1F 00 8F 8F 8F 87 C0 C0 E0 FF
  35A0  F8 FC FC 1E 0E 0E 0E 0E 07 03 03 E1 F1 F1 F1 F1
  35B0  0E 0E 0E 1E FC FC F8 00 F1 F1 F1 E1 03 03 07 FF
  35C0  01 03 07 01 01 01 01 01 FE FC F8 FE FE FE FE FE
  35D0  01 01 01 01 01 01 01 00 FE FE FE FE FE FE FE FF
  35E0  C0 C0 C0 C0 C0 C0 C0 C0 3F 3F 3F 3F 3F 3F 3F 3F
  35F0  C0 C0 C0 C0 C0 C0 C0 00 3F 3F 3F 3F 3F 3F 3F FF
  3600  1F 3F 3F 78 70 00 07 1F E0 C0 C0 87 8F FF F8 E0
  3610  3F 38 70 70 7F 7F 7F 00 C0 C7 8F 8F 80 80 80 FF
  3620  F8 FC FC 1E 0E 1E FC FC 07 03 03 E1 F1 E1 03 03
  3630  F0 00 00 00 FE FE FE 00 0F FF FF FF 01 01 01 FF
  3640  1F 3F 7F 78 70 00 03 03 E0 C0 80 87 8F FF FC FC
  3650  03 00 70 78 7F 3F 1F 00 FC FF 8F 87 80 C0 E0 FF
  3660  F8 FC FC 1E 0E 1E FC F8 07 03 03 E1 F1 E1 03 07
  3670  FC 1E 0E 1E FC FC F8 00 03 E1 F1 E1 03 03 07 FF
  3680  00 01 03 07 0F 1E 1C 38 FF FE FC F8 F0 E1 E3 C7
  3690  78 70 7F 7F 7F 00 00 00 87 8F 80 80 80 FF FF FF
  36A0  78 F8 F8 B8 38 38 38 38 87 07 07 47 C7 C7 C7 C7
  36B0  38 38 FE FE FE 38 38 00 C7 C7 01 01 01 C7 C7 FF
  36C0  7F 7F 7F 70 70 73 77 7F 80 80 80 8F 8F 8C 88 80
  36D0  78 70 00 70 7F 3F 1F 00 87 8F FF 8F 80 C0 E0 FF
  36E0  FE FE FC 00 00 F8 FC FC 01 01 03 FF FF 07 03 03
  36F0  1E 0E 0E 1E FC FC F8 00 E1 F1 F1 E1 03 03 07 FF
  3700  1F 3F 3F 78 70 73 77 7F E0 C0 C0 87 8F 8C 88 80
  3710  78 70 70 78 3F 3F 1F 00 87 8F 8F 87 C0 C0 E0 FF
  3720  F8 FC FE 0E 00 F0 FC FE 07 03 01 F1 FF 0F 03 01
  3730  7F 7F 7F 00 00 00 01 03 80 80 80 FF FF FF FE FC
  3740  07 0F 0F 1E 1E 3C 3C 00 F8 F0 F0 E1 E1 C3 C3 FF
  3750  FE FE FE 3E 78 F0 E0 C0 01 01 01 C1 87 0F 1F 3F
  3760  80 00 00 00 00 00 00 00 7F FF FF FF FF FF FF FF
  3770  FF 00 3F 00 00 00 00 00 00 7F 00 3F 1F 0F 0F 07
  3780  00 00 00 00 00 00 00 00 07 03 01 01 00 01 03 03
  3790  00 00 00 00 00 3F 00 FF 07 0F 0F 1F 3F 00 7F 00
  37A0  00 00 00 7F 80 7F 80 00 00 00 00 00 7F 80 7F FF
  37B0  00 7F 80 7F F0 F0 F0 F0 FF 80 7F 80 70 F0 F0 F0
  37C0  70 10 00 10 60 90 60 80 F0 F0 F0 E0 90 60 80 00
  37D0  00 00 00 FF 00 FF 00 00 00 00 00 00 FF 00 FF FF
  37E0  00 FF 00 FF 00 00 00 00 FF 00 FF 00 00 00 00 00
  37F0  00 00 00 FE 01 FE 01 00 00 00 00 00 FE 01 FE FF
  3800  7F 7F 60 60 60 60 73 73 00 00 1F 1F 1F 1F 3F 6F
  3810  33 33 33 33 33 33 30 30 0F 0F 0F 0F 0F 0E 0F 0F
  3820  30 30 33 33 33 33 33 33 0F 0F 0F 0F 0F 0F 0F 0F
  3830  73 73 60 60 60 60 7F 7F 0F 0E 1F 1F 1F 1F 3F 7F
  3840  FF FF 00 00 00 00 FF FF 00 00 FF FF FF FF FF FF
  3850  00 00 00 00 FF FF 00 00 00 00 00 00 00 00 FF FF
  3860  00 00 FF FF 00 00 00 00 FF FF FF FF 00 00 00 00
  3870  FE FE 06 06 06 06 C6 C6 02 06 FE FE FE FE BE 3E
  3880  FE FE 00 00 F0 F0 30 30 7E FE 00 00 10 30 F0 F0
  3890  30 30 F0 F0 00 00 FE FE F0 F0 F0 F0 00 00 02 06
  38A0  C6 C6 06 06 06 06 FE FE 3E 3E FE FE FE FE FE FE
  38B0  7F 7F 63 63 63 63 73 73 01 03 1F 1F 1F 1F 0F 0F
  38C0  33 31 38 1C 0E 07 03 01 0F 0F 07 03 01 00 00 00
  38D0  01 03 07 0E 1C 38 31 33 00 00 00 01 03 07 0F 0F
  38E0  73 73 63 63 63 63 7F 7F 0F 0F 1F 1F 1F 1F 3F 7F
  38F0  81 C3 E7 7E 3C 18 81 C3 80 C0 E0 F1 F3 F7 7F 3F
  3900  C3 81 18 3C 7E E7 C3 81 3F 7F F7 F3 F1 E0 C0 80
  3910  FE FE C6 C6 C6 C6 CE CE 02 06 3E 3E 3E 3E 3E 3E
  3920  CC 8C 1C 38 70 E0 C0 80 3C 7C FC F8 F0 E0 C0 80
  3930  80 C0 E0 70 38 1C 8C CC 80 C0 E0 F0 F8 FC 7C 3C
  3940  CE CE C6 C6 C6 C6 FE FE 3E 3E 3E 3E 3E 3E 7E FE
  3950  07 0F 1C 38 70 60 61 63 00 00 03 07 0F 1F 1F 1F
  3960  63 63 63 63 63 63 63 63 1F 1F 1F 1F 1F 1F 1F 1F
  3970  63 61 60 70 38 1C 0F 07 1D 1E 1F 3F 3F 1F 0F 07
  3980  FE FE 06 06 06 06 FE FE 02 06 FE FE FE FE FE FE
  3990  7F 7F 60 60 60 60 7C 7C 00 00 1F 1F 1F 1F 3F 7B
  39A0  0C 0C 0C 0C 0C 0C 0C 0C 03 03 03 03 03 03 03 03
  39B0  7C 7C 60 60 60 60 7F 7F 03 03 1F 1F 1F 1F 3F 7F
  39C0  FE FE 06 06 06 06 3E 3E 02 06 FE FE FE FE FE FE
  39D0  30 30 30 30 30 30 30 30 F0 F0 F0 F0 F0 F0 F0 F0
  39E0  3E 3E 06 06 06 06 FE FE E2 C6 FE FE FE FE FE FE
  39F0  7F 7F 60 60 60 60 67 67 00 00 1F 1F 1F 1F 1F 1F
  3A00  7E 7E 00 00 00 00 00 00 3E 7E 00 00 00 00 00 00
  3A10  07 07 06 06 06 06 07 07 00 00 01 01 01 01 03 07
  3A20  FF FF 00 00 00 00 C3 C3 00 00 FF FF FF FF BF 3F
  3A30  C3 C3 C3 C3 C3 C3 C3 C3 3F 3F 3F 3F 3F 3F 3F 3F
  3A40  C3 C3 00 00 00 00 FF FF 3E 3C FF FF FF FF FF FF
  3A50  FE FE 06 06 06 06 E6 E6 02 06 FE FE FE FE DE 9E
  3A60  7E 7E 00 00 00 00 00 00 3E 7E 00 00 00 00 00 00
  3A70  E0 E0 60 60 60 60 E0 E0 20 60 E0 E0 E0 E0 E0 E0
  3A80  E0 F0 38 1C 0E 06 86 C6 00 30 F8 FC FE FE FE BE
  3A90  C6 C6 C6 C6 C6 8E 1C 38 3E 3E 3E 3E 3E 7E FC F8
  3AA0  38 1C 8E C6 C6 C6 C6 C6 F8 FC FE BE 3E 3E 3E 3E
  3AB0  C6 86 06 0E 1C 38 F0 E0 3E 7E FE FE FC F8 F0 E0
  3AC0  33 33 33 33 33 33 33 33 0F 0F 0F 0F 0F 0F 0E 0C
  3AD0  30 30 30 33 33 33 33 33 0F 0F 0F 0F 0F 0F 0F 0F
  3AE0  01 03 07 1E 38 F0 C1 03 00 00 00 01 07 0F 3F FF
  3AF0  03 31 F8 DC 8E 07 03 01 FF EF E7 C3 81 00 00 00
  3B00  00 00 00 00 00 00 00 00 00 00 FD 31 31 31 31 00
  3B10  00 00 00 00 00 00 00 00 00 00 F0 A8 A8 A8 A8 00
  3B20  3F 7F 7F FF FF FF FF FF 3F 7F 7E FC F8 FE FE FE
  3B30  FF FF FF FF FF 7F 7F 3F FE FE FE FE FE 7E 7F 3F
  3B40  FC FE FE FF FF FF FF FF FC FE 7E 7F 7F 7F 7F 7F
  3B50  FF FF FF FF FF FE FE FC 7F 7F 7F 7F 7F 7E FE FC
  3B60  3F 7F 7F FF FF FF FF FF 3F 7F 78 F0 E3 E7 FF FF
  3B70  FF FF FF FF FF 7F 7F 3F FE F8 F0 E3 E0 60 7F 3F
  3B80  FC FE FE FF FF FF FF FF FC FE 1E 0F C7 E7 E7 C7
  3B90  FF FF FF FF FF FE FE FC 0F 1F FF FF 07 06 FE FC
  3BA0  3F 7F 7F FF FF FF FF FF 3F 7F 78 F0 E3 E7 FF FC
  3BB0  FF FF FF FF FF 7F 7F 3F FC FF E7 E3 F0 78 7F 3F
  3BC0  FC FE FE FF FF FF FF FF FC FE 1E 0F C7 E7 C7 0F
  3BD0  FF FF FF FF FF FE FE FC 07 E7 E7 C7 0F 1E FE FC
  3BE0  3F 7F 7F FF FF FF FF FF 3F 7F 7F FE FC F8 F1 E3
  3BF0  FF FF FF FF FF 7F 7F 3F E7 C7 C0 C0 FF 7F 7F 3F
  3C00  FC FE FE FF FF FF FF FF FC FE 1E 1F 1F 9F 9F 9F
  3C10  FF FF FF FF FF FE FE FC 9F 9F 07 07 9F 9E FE FC
  3C20  3F 7F 7F FF FF FF FF FF 3F 7F 60 E0 E7 E7 E4 E0
  3C30  FF FF FF FF FF 7F 7F 3F E7 FF FF E7 E0 70 7F 3F
  3C40  FC FE FE FF FF FF FF FF FC FE 06 07 FF FF 1F 0F
  3C50  FF FF FF FF FF FE FE FC C7 E7 E7 C7 0F 1E FE FC
  3C60  3F 7F 7F FF FF FF FF FF 3F 7F 78 F0 E3 E7 E4 E0
  3C70  FF FF FF FF FF 7F 7F 3F E3 E7 E7 E3 F0 78 7F 3F
  3C80  FC FE FE FF FF FF FF FF FC FE 0E 07 E7 FF 1F 0F
  3C90  3F 7F 7F FF FF FF FF FF 3F 7F 60 E0 FF FF FF FF
  3CA0  FF FF FF FF FF 7F 7F 3F FE FC FC F8 F9 79 7F 3F
  3CB0  FC FE FE FF FF FF FF FF FC FE 06 07 C7 8F 1F 3F
  3CC0  FF FF FF FF FF FE FE FC 7F 7F FF FF FF FE FE FC
  3CD0  00 00 00 00 0F 0F 0F 0E 00 00 00 00 00 00 00 01
  3CE0  0E 0E 0E 0E FE FE FE FE 01 01 01 01 01 01 01 01
  3CF0  00 00 00 00 FF FF FF 00 00 00 00 00 00 00 00 FF
  3D00  00 00 00 00 F0 F0 F0 F0 00 00 00 00 00 00 00 00
  3D10  F0 F0 F0 F0 F0 F0 F0 F0 00 00 00 00 00 00 00 00
  3D20  F0 F0 F0 F0 FF FF FF FE 00 00 00 00 00 00 00 01
  3D30  FE FE FE FE FE FE FE FE 01 01 01 01 01 01 01 01
  3D40  0E 0E 0E 0E 0E 0E 0E 0E 01 01 01 01 01 01 01 01
  3D50  0F 0F 0F 0F FF FF FF FF 00 00 00 00 00 00 00 00
  3D60  0F 3F 7F 7F FF FF FF FD 00 00 00 00 00 00 00 02
  3D70  7B 3B 0B 03 03 01 00 00 04 04 04 00 00 00 00 00
  3D80  06 1F 3F 7E 7F 7F FF FF 00 00 00 00 00 00 00 00
  3D90  7F 7F BF FF FF FE FD FB 80 80 40 00 00 01 02 04
  3DA0  FB F7 F7 F7 F7 F9 FE 18 04 08 08 08 08 06 01 00
  3DB0  00 00 7C FF FF FE FF FF 00 00 00 00 00 00 00 00
  3DC0  FF FF FF FF 9F 7F FF FF 00 00 00 00 60 80 00 00
  3DD0  FF FF FE FD FD FE FC 70 00 00 01 02 02 00 00 00
  3DE0  00 80 80 80 80 80 80 80 00 80 80 80 80 80 80 80
  3DF0  80 80 80 80 80 80 80 00 80 80 80 80 80 80 80 00
  3E00  00 00 00 00 00 00 00 7F 00 00 00 00 00 00 00 7F
  3E10  00 00 00 00 00 00 00 FE 00 00 00 00 00 00 00 FE
  3E20  80 40 20 10 08 04 02 01 80 40 20 10 08 04 02 01
  3E30  80 BF BF BE BF BF BF BF 7F 40 43 49 4F 49 49 49
  3E40  BF BB BB BB BB B3 B3 B3 4D 43 41 40 40 40 40 40
  3E50  B7 BF BF BF BF 80 FF FF 40 40 41 41 40 7F 00 00
  3E60  00 FF 3F 00 F9 F9 F9 F9 FF 00 3F FF 3F 3F 3F 3F
  3E70  F9 F9 F1 C3 EF FF 83 EF FF 3F BF FE 38 5C 7C 38
  3E80  EF F3 FD FD FF 00 FF FF 38 CE 3F FF 00 FF 00 00
  3E90  02 FA FA FA FA FA FA FA FD 05 85 25 E5 25 25 25
  3EA0  FB BB BB BB BB 3B 3B 3B 64 84 04 04 04 04 04 04
  3EB0  FB FB FB FB FB 03 FF FF 04 04 04 04 04 FC 00 00
  3EC0  0F 0F 0F 0F 0F 0F 0F 0F 00 00 00 00 00 00 00 00
  3ED0  00 00 00 00 00 00 00 00 00 00 00 00 00 00 00 00
  3EE0  00 00 00 00 00 00 00 00 00 00 00 00 00 00 00 00
  3EF0  00 00 00 00 00 00 00 00 00 00 00 00 00 00 00 00
  3F00  00 00 00 00 00 00 00 00 00 00 00 00 00 00 00 00
  3F10  00 00 00 00 00 00 00 00 00 00 00 00 00 00 00 00
  3F20  00 00 00 00 00 00 00 00 00 00 00 00 00 00 00 00
  3F30  00 00 00 00 00 00 00 00 00 00 00 00 00 00 00 00
  3F40  00 00 00 00 00 00 00 00 00 00 00 00 00 00 00 00
  3F50  00 00 00 00 00 00 00 00 00 00 00 00 00 00 00 00
  3F60  00 00 00 00 00 00 00 00 00 00 00 00 00 00 00 00
  3F70  00 00 00 00 00 00 00 00 00 00 00 00 00 00 00 00
  3F80  00 FE 01 FE 0F 0F 0F 0F FF 01 FE 01 0E 0F 0F 0F
  3F90  0E 08 00 08 06 09 06 01 0F 0F 0F 07 09 06 01 00
  3FA0  FF 00 FF 00 00 00 00 00 00 FF 00 FF FF FF FF FF
  3FB0  00 18 18 00 00 18 18 00 FF FF FF FF FF FF FF FF
  3FC0  00 00 00 00 00 00 00 00 00 00 00 00 00 00 00 00
  3FD0  FF FF FF FF FF FF FF FF 00 00 00 00 00 00 00 00
  3FE0  00 00 00 00 00 00 00 00 FF FF FF FF FF FF FF FF
  3FF0  FF FF FF FF FF FF FF FF FF FF FF FF FF FF FF FF
